
Arducon.elf:     file format elf32-avr

Sections:
Idx Name          Size      VMA       LMA       File off  Algn
  0 .data         00000288  00800100  00005b6e  00005c22  2**0
                  CONTENTS, ALLOC, LOAD, DATA
  1 .text         00005b6e  00000000  00000000  000000b4  2**1
                  CONTENTS, ALLOC, LOAD, READONLY, CODE
  2 .bss          0000028a  00800388  00800388  00005eaa  2**0
                  ALLOC
  3 .eeprom       00000237  00810000  00810000  00005eaa  2**0
                  CONTENTS, ALLOC, LOAD, DATA
  4 .comment      0000005c  00000000  00000000  000060e1  2**0
                  CONTENTS, READONLY
  5 .note.gnu.avr.deviceinfo 00000040  00000000  00000000  00006140  2**2
                  CONTENTS, READONLY
  6 .debug_aranges 00000448  00000000  00000000  00006180  2**3
                  CONTENTS, READONLY, DEBUGGING
  7 .debug_info   00005f31  00000000  00000000  000065c8  2**0
                  CONTENTS, READONLY, DEBUGGING
  8 .debug_abbrev 00001648  00000000  00000000  0000c4f9  2**0
                  CONTENTS, READONLY, DEBUGGING
  9 .debug_line   00003e25  00000000  00000000  0000db41  2**0
                  CONTENTS, READONLY, DEBUGGING
 10 .debug_frame  00000c04  00000000  00000000  00011968  2**2
                  CONTENTS, READONLY, DEBUGGING
 11 .debug_str    00001d61  00000000  00000000  0001256c  2**0
                  CONTENTS, READONLY, DEBUGGING
 12 .debug_loc    00004c7e  00000000  00000000  000142cd  2**0
                  CONTENTS, READONLY, DEBUGGING
 13 .debug_ranges 000003c0  00000000  00000000  00018f4b  2**0
                  CONTENTS, READONLY, DEBUGGING

Disassembly of section .text:

00000000 <__vectors>:
       0:	0c 94 f6 00 	jmp	0x1ec	; 0x1ec <__dtors_end>
       4:	0c 94 09 10 	jmp	0x2012	; 0x2012 <__vector_1>
       8:	0c 94 1e 01 	jmp	0x23c	; 0x23c <__bad_interrupt>
       c:	0c 94 1e 01 	jmp	0x23c	; 0x23c <__bad_interrupt>
      10:	0c 94 1e 01 	jmp	0x23c	; 0x23c <__bad_interrupt>
      14:	0c 94 f0 13 	jmp	0x27e0	; 0x27e0 <__vector_5>
      18:	0c 94 1e 01 	jmp	0x23c	; 0x23c <__bad_interrupt>
      1c:	0c 94 1e 01 	jmp	0x23c	; 0x23c <__bad_interrupt>
      20:	0c 94 4c 0a 	jmp	0x1498	; 0x1498 <__vector_8>
      24:	0c 94 1e 01 	jmp	0x23c	; 0x23c <__bad_interrupt>
      28:	0c 94 1e 01 	jmp	0x23c	; 0x23c <__bad_interrupt>
      2c:	0c 94 1e 01 	jmp	0x23c	; 0x23c <__bad_interrupt>
      30:	0c 94 1e 01 	jmp	0x23c	; 0x23c <__bad_interrupt>
      34:	0c 94 1e 01 	jmp	0x23c	; 0x23c <__bad_interrupt>
      38:	0c 94 91 09 	jmp	0x1322	; 0x1322 <__vector_14>
      3c:	0c 94 1e 01 	jmp	0x23c	; 0x23c <__bad_interrupt>
      40:	0c 94 1e 01 	jmp	0x23c	; 0x23c <__bad_interrupt>
      44:	0c 94 1e 01 	jmp	0x23c	; 0x23c <__bad_interrupt>
      48:	0c 94 a8 07 	jmp	0xf50	; 0xf50 <__vector_18>
      4c:	0c 94 44 09 	jmp	0x1288	; 0x1288 <__vector_19>
      50:	0c 94 1e 01 	jmp	0x23c	; 0x23c <__bad_interrupt>
      54:	0c 94 70 07 	jmp	0xee0	; 0xee0 <__vector_21>
      58:	0c 94 1e 01 	jmp	0x23c	; 0x23c <__bad_interrupt>
      5c:	0c 94 1e 01 	jmp	0x23c	; 0x23c <__bad_interrupt>
      60:	0c 94 1e 01 	jmp	0x23c	; 0x23c <__bad_interrupt>
      64:	0c 94 1e 01 	jmp	0x23c	; 0x23c <__bad_interrupt>
      68:	4c 01       	movw	r8, r24
      6a:	57 01       	movw	r10, r14
      6c:	62 01       	movw	r12, r4
      6e:	6d 01       	movw	r12, r26
      70:	78 01       	movw	r14, r16
      72:	83 01       	movw	r16, r6
      74:	ef 01       	movw	r28, r30
      76:	8e 01       	movw	r16, r28
      78:	ef 01       	movw	r28, r30
      7a:	ef 01       	movw	r28, r30
      7c:	ef 01       	movw	r28, r30
      7e:	99 01       	movw	r18, r18
      80:	a4 01       	movw	r20, r8
      82:	b1 01       	movw	r22, r2
      84:	be 01       	movw	r22, r28
      86:	cb 01       	movw	r24, r22
      88:	d8 01       	movw	r26, r16
      8a:	e5 01       	movw	r28, r10
      8c:	fa 01       	movw	r30, r20
      8e:	fe 01       	movw	r30, r28
      90:	02 02       	muls	r16, r18
      92:	06 02       	muls	r16, r22
      94:	0a 02       	muls	r16, r26
      96:	0e 02       	muls	r16, r30
      98:	28 02       	muls	r18, r24
      9a:	12 02       	muls	r17, r18
      9c:	28 02       	muls	r18, r24
      9e:	28 02       	muls	r18, r24
      a0:	28 02       	muls	r18, r24
      a2:	13 02       	muls	r17, r19
      a4:	17 02       	muls	r17, r23
      a6:	1c 02       	muls	r17, r28
      a8:	20 02       	muls	r18, r16
      aa:	24 02       	muls	r18, r20
      ac:	3a 02       	muls	r19, r26
      ae:	40 02       	muls	r20, r16
      b0:	46 02       	muls	r20, r22
      b2:	4c 02       	muls	r20, r28
      b4:	52 02       	muls	r21, r18
      b6:	58 02       	muls	r21, r24
      b8:	81 02       	muls	r24, r17
      ba:	5e 02       	muls	r21, r30
      bc:	81 02       	muls	r24, r17
      be:	81 02       	muls	r24, r17
      c0:	81 02       	muls	r24, r17
      c2:	64 02       	muls	r22, r20
      c4:	6a 02       	muls	r22, r26
      c6:	70 02       	muls	r23, r16
      c8:	76 02       	muls	r23, r22
      ca:	7c 02       	muls	r23, r28
      cc:	db 0e       	add	r13, r27
      ce:	db 0e       	add	r13, r27
      d0:	db 0e       	add	r13, r27
      d2:	db 0e       	add	r13, r27
      d4:	db 0e       	add	r13, r27
      d6:	db 0e       	add	r13, r27
      d8:	2e 0f       	add	r18, r30
      da:	2e 0f       	add	r18, r30
      dc:	f9 0e       	add	r15, r25
      de:	2e 0f       	add	r18, r30
      e0:	2e 0f       	add	r18, r30
      e2:	2e 0f       	add	r18, r30
      e4:	2e 0f       	add	r18, r30
      e6:	2e 0f       	add	r18, r30
      e8:	2e 0f       	add	r18, r30
      ea:	2e 0f       	add	r18, r30
      ec:	2e 0f       	add	r18, r30
      ee:	f9 0e       	add	r15, r25
      f0:	f9 0e       	add	r15, r25
      f2:	c7 0e       	add	r12, r23
      f4:	d1 0e       	add	r13, r17
      f6:	e5 11       	cpse	r30, r5
      f8:	ef 11       	cpse	r30, r15
      fa:	0e 12       	cpse	r0, r30
      fc:	2a 12       	cpse	r2, r26
      fe:	34 13       	cpse	r19, r20
     100:	34 13       	cpse	r19, r20
     102:	32 12       	cpse	r3, r18
     104:	69 12       	cpse	r6, r25
     106:	c9 12       	cpse	r12, r25
     108:	f5 12       	cpse	r15, r21
     10a:	fc 12       	cpse	r15, r28
     10c:	03 13       	cpse	r16, r19
     10e:	0a 13       	cpse	r16, r26
     110:	fc 20       	and	r15, r12
     112:	c0 20       	and	r12, r0
     114:	ec 20       	and	r14, r12
     116:	04 21       	and	r16, r4
     118:	f0 20       	and	r15, r0
     11a:	04 21       	and	r16, r4
     11c:	d0 20       	and	r13, r0
     11e:	bc 20       	and	r11, r12
     120:	c8 20       	and	r12, r8
     122:	cc 20       	and	r12, r12
     124:	04 21       	and	r16, r4
     126:	e0 20       	and	r14, r0
     128:	b4 20       	and	r11, r4
     12a:	e4 20       	and	r14, r4
     12c:	b0 20       	and	r11, r0
     12e:	c4 20       	and	r12, r4
     130:	88 20       	and	r8, r8
     132:	8c 20       	and	r8, r12
     134:	90 20       	and	r9, r0
     136:	94 20       	and	r9, r4
     138:	98 20       	and	r9, r8
     13a:	9c 20       	and	r9, r12
     13c:	a0 20       	and	r10, r0
     13e:	a4 20       	and	r10, r4
     140:	a8 20       	and	r10, r8
     142:	ac 20       	and	r10, r12
     144:	d4 20       	and	r13, r4
     146:	d8 20       	and	r13, r8
     148:	00 21       	and	r16, r0
     14a:	dc 20       	and	r13, r12
     14c:	04 21       	and	r16, r4
     14e:	b8 20       	and	r11, r8
     150:	f4 20       	and	r15, r4
     152:	08 21       	and	r16, r8
     154:	24 20       	and	r2, r4
     156:	28 20       	and	r2, r8
     158:	2c 20       	and	r2, r12
     15a:	30 20       	and	r3, r0
     15c:	34 20       	and	r3, r4
     15e:	38 20       	and	r3, r8
     160:	3c 20       	and	r3, r12
     162:	40 20       	and	r4, r0
     164:	44 20       	and	r4, r4
     166:	48 20       	and	r4, r8
     168:	4c 20       	and	r4, r12
     16a:	50 20       	and	r5, r0
     16c:	54 20       	and	r5, r4
     16e:	58 20       	and	r5, r8
     170:	5c 20       	and	r5, r12
     172:	60 20       	and	r6, r0
     174:	64 20       	and	r6, r4
     176:	68 20       	and	r6, r8
     178:	6c 20       	and	r6, r12
     17a:	70 20       	and	r7, r0
     17c:	74 20       	and	r7, r4
     17e:	78 20       	and	r7, r8
     180:	7c 20       	and	r7, r12
     182:	80 20       	and	r8, r0
     184:	84 20       	and	r8, r4
     186:	04 21       	and	r16, r4
     188:	04 21       	and	r16, r4
     18a:	04 21       	and	r16, r4
     18c:	04 21       	and	r16, r4
     18e:	e8 20       	and	r14, r8
     190:	04 21       	and	r16, r4
     192:	04 21       	and	r16, r4
     194:	04 21       	and	r16, r4
     196:	04 21       	and	r16, r4
     198:	04 21       	and	r16, r4
     19a:	04 21       	and	r16, r4
     19c:	04 21       	and	r16, r4
     19e:	04 21       	and	r16, r4
     1a0:	04 21       	and	r16, r4
     1a2:	04 21       	and	r16, r4
     1a4:	04 21       	and	r16, r4
     1a6:	04 21       	and	r16, r4
     1a8:	04 21       	and	r16, r4
     1aa:	04 21       	and	r16, r4
     1ac:	04 21       	and	r16, r4
     1ae:	04 21       	and	r16, r4
     1b0:	04 21       	and	r16, r4
     1b2:	04 21       	and	r16, r4
     1b4:	04 21       	and	r16, r4
     1b6:	04 21       	and	r16, r4
     1b8:	04 21       	and	r16, r4
     1ba:	04 21       	and	r16, r4
     1bc:	04 21       	and	r16, r4
     1be:	04 21       	and	r16, r4
     1c0:	04 21       	and	r16, r4
     1c2:	04 21       	and	r16, r4
     1c4:	04 21       	and	r16, r4
     1c6:	04 21       	and	r16, r4
     1c8:	f8 20       	and	r15, r8
     1ca:	05 a8       	ldd	r0, Z+53	; 0x35
     1cc:	4c cd       	rjmp	.-1384   	; 0xfffffc66 <__eeprom_end+0xff7efa2f>
     1ce:	b2 d4       	rcall	.+2404   	; 0xb34 <_Z15i2c_device_readhhPhh+0x98>
     1d0:	4e b9       	out	0x0e, r20	; 14
     1d2:	38 36       	cpi	r19, 0x68	; 104
     1d4:	a9 02       	muls	r26, r25
     1d6:	0c 50       	subi	r16, 0x0C	; 12
     1d8:	b9 91       	ld	r27, Y+
     1da:	86 88       	ldd	r8, Z+22	; 0x16
     1dc:	08 3c       	cpi	r16, 0xC8	; 200
     1de:	a6 aa       	std	Z+54, r10	; 0x36
     1e0:	aa 2a       	or	r10, r26
     1e2:	be 00       	.word	0x00be	; ????
     1e4:	00 00       	nop
     1e6:	80 3f       	cpi	r24, 0xF0	; 240

000001e8 <__ctors_start>:
     1e8:	03 20       	and	r0, r3

000001ea <__ctors_end>:
     1ea:	14 20       	and	r1, r4

000001ec <__dtors_end>:
     1ec:	11 24       	eor	r1, r1
     1ee:	1f be       	out	0x3f, r1	; 63
     1f0:	cf ef       	ldi	r28, 0xFF	; 255
     1f2:	d8 e0       	ldi	r29, 0x08	; 8
     1f4:	de bf       	out	0x3e, r29	; 62
     1f6:	cd bf       	out	0x3d, r28	; 61

000001f8 <__do_copy_data>:
     1f8:	13 e0       	ldi	r17, 0x03	; 3
     1fa:	a0 e0       	ldi	r26, 0x00	; 0
     1fc:	b1 e0       	ldi	r27, 0x01	; 1
     1fe:	ee e6       	ldi	r30, 0x6E	; 110
     200:	fb e5       	ldi	r31, 0x5B	; 91
     202:	02 c0       	rjmp	.+4      	; 0x208 <__do_copy_data+0x10>
     204:	05 90       	lpm	r0, Z+
     206:	0d 92       	st	X+, r0
     208:	a8 38       	cpi	r26, 0x88	; 136
     20a:	b1 07       	cpc	r27, r17
     20c:	d9 f7       	brne	.-10     	; 0x204 <__do_copy_data+0xc>

0000020e <__do_clear_bss>:
     20e:	26 e0       	ldi	r18, 0x06	; 6
     210:	a8 e8       	ldi	r26, 0x88	; 136
     212:	b3 e0       	ldi	r27, 0x03	; 3
     214:	01 c0       	rjmp	.+2      	; 0x218 <.do_clear_bss_start>

00000216 <.do_clear_bss_loop>:
     216:	1d 92       	st	X+, r1

00000218 <.do_clear_bss_start>:
     218:	a2 31       	cpi	r26, 0x12	; 18
     21a:	b2 07       	cpc	r27, r18
     21c:	e1 f7       	brne	.-8      	; 0x216 <.do_clear_bss_loop>

0000021e <__do_global_ctors>:
     21e:	10 e0       	ldi	r17, 0x00	; 0
     220:	c5 ef       	ldi	r28, 0xF5	; 245
     222:	d0 e0       	ldi	r29, 0x00	; 0
     224:	04 c0       	rjmp	.+8      	; 0x22e <__do_global_ctors+0x10>
     226:	21 97       	sbiw	r28, 0x01	; 1
     228:	fe 01       	movw	r30, r28
     22a:	0e 94 8f 28 	call	0x511e	; 0x511e <__tablejump2__>
     22e:	c4 3f       	cpi	r28, 0xF4	; 244
     230:	d1 07       	cpc	r29, r17
     232:	c9 f7       	brne	.-14     	; 0x226 <__do_global_ctors+0x8>
     234:	0e 94 e7 1e 	call	0x3dce	; 0x3dce <main>
     238:	0c 94 aa 2d 	jmp	0x5b54	; 0x5b54 <__do_global_dtors>

0000023c <__bad_interrupt>:
     23c:	0c 94 00 00 	jmp	0	; 0x0 <__vectors>

00000240 <month_length>:
     240:	62 30       	cpi	r22, 0x02	; 2
     242:	21 f4       	brne	.+8      	; 0x24c <month_length+0xc>
     244:	0e 94 2d 01 	call	0x25a	; 0x25a <is_leap_year>
     248:	84 5e       	subi	r24, 0xE4	; 228
     24a:	08 95       	ret
     24c:	68 30       	cpi	r22, 0x08	; 8
     24e:	08 f0       	brcs	.+2      	; 0x252 <month_length+0x12>
     250:	6f 5f       	subi	r22, 0xFF	; 255
     252:	61 70       	andi	r22, 0x01	; 1
     254:	8e e1       	ldi	r24, 0x1E	; 30
     256:	86 0f       	add	r24, r22
     258:	08 95       	ret

0000025a <is_leap_year>:
     25a:	9c 01       	movw	r18, r24
     25c:	23 70       	andi	r18, 0x03	; 3
     25e:	33 27       	eor	r19, r19
     260:	23 2b       	or	r18, r19
     262:	59 f4       	brne	.+22     	; 0x27a <is_leap_year+0x20>
     264:	64 e6       	ldi	r22, 0x64	; 100
     266:	70 e0       	ldi	r23, 0x00	; 0
     268:	0e 94 3a 28 	call	0x5074	; 0x5074 <__divmodhi4>
     26c:	89 2b       	or	r24, r25
     26e:	39 f4       	brne	.+14     	; 0x27e <is_leap_year+0x24>
     270:	63 70       	andi	r22, 0x03	; 3
     272:	77 27       	eor	r23, r23
     274:	81 e0       	ldi	r24, 0x01	; 1
     276:	67 2b       	or	r22, r23
     278:	19 f0       	breq	.+6      	; 0x280 <is_leap_year+0x26>
     27a:	80 e0       	ldi	r24, 0x00	; 0
     27c:	08 95       	ret
     27e:	81 e0       	ldi	r24, 0x01	; 1
     280:	08 95       	ret

00000282 <_Z7pinModehh>:
#include "ardooweeno.h"
#include <util/delay.h>

void pinMode(uint8_t pin, uint8_t mode)
{
	switch(pin)
     282:	90 e0       	ldi	r25, 0x00	; 0
     284:	fc 01       	movw	r30, r24
     286:	32 97       	sbiw	r30, 0x02	; 2
     288:	e2 31       	cpi	r30, 0x12	; 18
     28a:	f1 05       	cpc	r31, r1
     28c:	08 f0       	brcs	.+2      	; 0x290 <_Z7pinModehh+0xe>
     28e:	a7 c0       	rjmp	.+334    	; 0x3de <_Z7pinModehh+0x15c>
     290:	ec 5c       	subi	r30, 0xCC	; 204
     292:	ff 4f       	sbci	r31, 0xFF	; 255
     294:	0c 94 8f 28 	jmp	0x511e	; 0x511e <__tablejump2__>
	{
		case D2:
		{
			if(mode == OUTPUT)
     298:	61 30       	cpi	r22, 0x01	; 1
     29a:	11 f4       	brne	.+4      	; 0x2a0 <_Z7pinModehh+0x1e>
			{
				DDRD  |= (1 << PORTD2);
     29c:	52 9a       	sbi	0x0a, 2	; 10
     29e:	08 95       	ret
			}
			else
			{
				DDRD  &= ~(1 << PORTD2);
     2a0:	52 98       	cbi	0x0a, 2	; 10

				if(mode == INPUT_PULLUP)
     2a2:	63 30       	cpi	r22, 0x03	; 3
     2a4:	11 f4       	brne	.+4      	; 0x2aa <_Z7pinModehh+0x28>
				{
					PORTD  |= (1 << PORTD2);
     2a6:	5a 9a       	sbi	0x0b, 2	; 11
     2a8:	08 95       	ret
				}
				else
				{
					PORTD &= ~(1 << PORTD2);
     2aa:	5a 98       	cbi	0x0b, 2	; 11
     2ac:	08 95       	ret
		}
		break;

		case D3:
		{
			if(mode == OUTPUT)
     2ae:	61 30       	cpi	r22, 0x01	; 1
     2b0:	11 f4       	brne	.+4      	; 0x2b6 <_Z7pinModehh+0x34>
			{
				DDRD  |= (1 << PORTD3);
     2b2:	53 9a       	sbi	0x0a, 3	; 10
     2b4:	08 95       	ret
			}
			else
			{
				DDRD  &= ~(1 << PORTD3);
     2b6:	53 98       	cbi	0x0a, 3	; 10

				if(mode == INPUT_PULLUP)
     2b8:	63 30       	cpi	r22, 0x03	; 3
     2ba:	11 f4       	brne	.+4      	; 0x2c0 <_Z7pinModehh+0x3e>
				{
					PORTD  |= (1 << PORTD3);
     2bc:	5b 9a       	sbi	0x0b, 3	; 11
     2be:	08 95       	ret
				}
				else
				{
					PORTD &= ~(1 << PORTD3);
     2c0:	5b 98       	cbi	0x0b, 3	; 11
     2c2:	08 95       	ret
		}
		break;

		case D4:
		{
			if(mode == OUTPUT)
     2c4:	61 30       	cpi	r22, 0x01	; 1
     2c6:	11 f4       	brne	.+4      	; 0x2cc <_Z7pinModehh+0x4a>
			{
				DDRD  |= (1 << PORTD4);
     2c8:	54 9a       	sbi	0x0a, 4	; 10
     2ca:	08 95       	ret
			}
			else
			{
				DDRD  &= ~(1 << PORTD4);
     2cc:	54 98       	cbi	0x0a, 4	; 10

				if(mode == INPUT_PULLUP)
     2ce:	63 30       	cpi	r22, 0x03	; 3
     2d0:	11 f4       	brne	.+4      	; 0x2d6 <_Z7pinModehh+0x54>
				{
					PORTD  |= (1 << PORTD4);
     2d2:	5c 9a       	sbi	0x0b, 4	; 11
     2d4:	08 95       	ret
				}
				else
				{
					PORTD &= ~(1 << PORTD4);
     2d6:	5c 98       	cbi	0x0b, 4	; 11
     2d8:	08 95       	ret
		}
		break;

		case D5:
		{
			if(mode == OUTPUT)
     2da:	61 30       	cpi	r22, 0x01	; 1
     2dc:	11 f4       	brne	.+4      	; 0x2e2 <_Z7pinModehh+0x60>
			{
				DDRD  |= (1 << PORTD5);
     2de:	55 9a       	sbi	0x0a, 5	; 10
     2e0:	08 95       	ret
			}
			else
			{
				DDRD  &= ~(1 << PORTD5);
     2e2:	55 98       	cbi	0x0a, 5	; 10

				if(mode == INPUT_PULLUP)
     2e4:	63 30       	cpi	r22, 0x03	; 3
     2e6:	11 f4       	brne	.+4      	; 0x2ec <_Z7pinModehh+0x6a>
				{
					PORTD  |= (1 << PORTD5);
     2e8:	5d 9a       	sbi	0x0b, 5	; 11
     2ea:	08 95       	ret
				}
				else
				{
					PORTD &= ~(1 << PORTD5);
     2ec:	5d 98       	cbi	0x0b, 5	; 11
     2ee:	08 95       	ret
		}
		break;

		case D6:
		{
			if(mode == OUTPUT)
     2f0:	61 30       	cpi	r22, 0x01	; 1
     2f2:	11 f4       	brne	.+4      	; 0x2f8 <_Z7pinModehh+0x76>
			{
				DDRD  |= (1 << PORTD6);
     2f4:	56 9a       	sbi	0x0a, 6	; 10
     2f6:	08 95       	ret
			}
			else
			{
				DDRD  &= ~(1 << PORTD6);
     2f8:	56 98       	cbi	0x0a, 6	; 10

				if(mode == INPUT_PULLUP)
     2fa:	63 30       	cpi	r22, 0x03	; 3
     2fc:	11 f4       	brne	.+4      	; 0x302 <_Z7pinModehh+0x80>
				{
					PORTD  |= (1 << PORTD6);
     2fe:	5e 9a       	sbi	0x0b, 6	; 11
     300:	08 95       	ret
				}
				else
				{
					PORTD &= ~(1 << PORTD6);
     302:	5e 98       	cbi	0x0b, 6	; 11
     304:	08 95       	ret
		}
		break;

		case D7:
		{
			if(mode == OUTPUT)
     306:	61 30       	cpi	r22, 0x01	; 1
     308:	11 f4       	brne	.+4      	; 0x30e <_Z7pinModehh+0x8c>
			{
				DDRD  |= (1 << PORTD7);
     30a:	57 9a       	sbi	0x0a, 7	; 10
     30c:	08 95       	ret
			}
			else
			{
				DDRD  &= ~(1 << PORTD7);
     30e:	57 98       	cbi	0x0a, 7	; 10

				if(mode == INPUT_PULLUP)
     310:	63 30       	cpi	r22, 0x03	; 3
     312:	11 f4       	brne	.+4      	; 0x318 <_Z7pinModehh+0x96>
				{
					PORTD  |= (1 << PORTD7);
     314:	5f 9a       	sbi	0x0b, 7	; 11
     316:	08 95       	ret
				}
				else
				{
					PORTD &= ~(1 << PORTD7);
     318:	5f 98       	cbi	0x0b, 7	; 11
     31a:	08 95       	ret
		}
		break;

		case D9:
		{
			if(mode == OUTPUT)
     31c:	61 30       	cpi	r22, 0x01	; 1
     31e:	11 f4       	brne	.+4      	; 0x324 <_Z7pinModehh+0xa2>
			{
				DDRB  |= (1 << PORTB1);
     320:	21 9a       	sbi	0x04, 1	; 4
     322:	08 95       	ret
			}
			else
			{
				DDRB  &= ~(1 << PORTB1);
     324:	21 98       	cbi	0x04, 1	; 4

				if(mode == INPUT_PULLUP)
     326:	63 30       	cpi	r22, 0x03	; 3
     328:	11 f4       	brne	.+4      	; 0x32e <_Z7pinModehh+0xac>
				{
					PORTD  |= (1 << PORTB1);
     32a:	59 9a       	sbi	0x0b, 1	; 11
     32c:	08 95       	ret
				}
				else
				{
					PORTD &= ~(1 << PORTB1);
     32e:	59 98       	cbi	0x0b, 1	; 11
     330:	08 95       	ret
		}
		break;

		case D13:
		{
			if(mode == OUTPUT)
     332:	61 30       	cpi	r22, 0x01	; 1
     334:	11 f4       	brne	.+4      	; 0x33a <_Z7pinModehh+0xb8>
			{
				DDRB  |= (1 << PORTB5);
     336:	25 9a       	sbi	0x04, 5	; 4
     338:	08 95       	ret
			}
			else
			{
				DDRB  &= ~(1 << PORTB5);
     33a:	25 98       	cbi	0x04, 5	; 4

				if(mode == INPUT_PULLUP)
     33c:	63 30       	cpi	r22, 0x03	; 3
     33e:	11 f4       	brne	.+4      	; 0x344 <_Z7pinModehh+0xc2>
				{
					PORTD  |= (1 << PORTB5);
     340:	5d 9a       	sbi	0x0b, 5	; 11
     342:	08 95       	ret
				}
				else
				{
					PORTD &= ~(1 << PORTB5);
     344:	5d 98       	cbi	0x0b, 5	; 11
     346:	08 95       	ret
		}
		break;

		case A0:
		{
			if(mode == OUTPUT)
     348:	61 30       	cpi	r22, 0x01	; 1
     34a:	11 f4       	brne	.+4      	; 0x350 <_Z7pinModehh+0xce>
			{
				DDRC  |= (1 << PORTC0);
     34c:	38 9a       	sbi	0x07, 0	; 7
     34e:	0b c0       	rjmp	.+22     	; 0x366 <_Z7pinModehh+0xe4>
			}
			else
			{
				DDRC  &= ~(1 << PORTC0);
     350:	38 98       	cbi	0x07, 0	; 7

				if(mode == INPUT_PULLUP)
     352:	63 30       	cpi	r22, 0x03	; 3
     354:	19 f4       	brne	.+6      	; 0x35c <_Z7pinModehh+0xda>
				{
					PORTC  |= (1 << PORTC0);
     356:	40 9a       	sbi	0x08, 0	; 8
			{
				DDRC  |= (1 << PORTC1);
			}
			else
			{
				DDRC  &= ~(1 << PORTC1);
     358:	39 98       	cbi	0x07, 1	; 7
     35a:	0a c0       	rjmp	.+20     	; 0x370 <_Z7pinModehh+0xee>
				{
					PORTC  |= (1 << PORTC0);
				}
				else
				{
					PORTC &= ~(1 << PORTC0);
     35c:	40 98       	cbi	0x08, 0	; 8
			{
				DDRC  |= (1 << PORTC1);
			}
			else
			{
				DDRC  &= ~(1 << PORTC1);
     35e:	39 98       	cbi	0x07, 1	; 7
     360:	0a c0       	rjmp	.+20     	; 0x376 <_Z7pinModehh+0xf4>
			}
		}

		case A1:
		{
			if(mode == OUTPUT)
     362:	61 30       	cpi	r22, 0x01	; 1
     364:	11 f4       	brne	.+4      	; 0x36a <_Z7pinModehh+0xe8>
			{
				DDRC  |= (1 << PORTC1);
     366:	39 9a       	sbi	0x07, 1	; 7
     368:	0b c0       	rjmp	.+22     	; 0x380 <_Z7pinModehh+0xfe>
			}
			else
			{
				DDRC  &= ~(1 << PORTC1);
     36a:	39 98       	cbi	0x07, 1	; 7

				if(mode == INPUT_PULLUP)
     36c:	63 30       	cpi	r22, 0x03	; 3
     36e:	19 f4       	brne	.+6      	; 0x376 <_Z7pinModehh+0xf4>
				{
					PORTC  |= (1 << PORTC1);
     370:	41 9a       	sbi	0x08, 1	; 8
			{
				DDRC  |= (1 << PORTC2);
			}
			else
			{
				DDRC  &= ~(1 << PORTC2);
     372:	3a 98       	cbi	0x07, 2	; 7
     374:	0a c0       	rjmp	.+20     	; 0x38a <_Z7pinModehh+0x108>
				{
					PORTC  |= (1 << PORTC1);
				}
				else
				{
					PORTC &= ~(1 << PORTC1);
     376:	41 98       	cbi	0x08, 1	; 8
			{
				DDRC  |= (1 << PORTC2);
			}
			else
			{
				DDRC  &= ~(1 << PORTC2);
     378:	3a 98       	cbi	0x07, 2	; 7
     37a:	0a c0       	rjmp	.+20     	; 0x390 <_Z7pinModehh+0x10e>
			}
		}

		case A2:
		{
			if(mode == OUTPUT)
     37c:	61 30       	cpi	r22, 0x01	; 1
     37e:	11 f4       	brne	.+4      	; 0x384 <_Z7pinModehh+0x102>
			{
				DDRC  |= (1 << PORTC2);
     380:	3a 9a       	sbi	0x07, 2	; 7
     382:	0b c0       	rjmp	.+22     	; 0x39a <_Z7pinModehh+0x118>
			}
			else
			{
				DDRC  &= ~(1 << PORTC2);
     384:	3a 98       	cbi	0x07, 2	; 7

				if(mode == INPUT_PULLUP)
     386:	63 30       	cpi	r22, 0x03	; 3
     388:	19 f4       	brne	.+6      	; 0x390 <_Z7pinModehh+0x10e>
				{
					PORTC  |= (1 << PORTC2);
     38a:	42 9a       	sbi	0x08, 2	; 8
			{
				DDRC  |= (1 << PORTC3);
			}
			else
			{
				DDRC  &= ~(1 << PORTC3);
     38c:	3b 98       	cbi	0x07, 3	; 7
     38e:	0a c0       	rjmp	.+20     	; 0x3a4 <_Z7pinModehh+0x122>
				{
					PORTC  |= (1 << PORTC2);
				}
				else
				{
					PORTC &= ~(1 << PORTC2);
     390:	42 98       	cbi	0x08, 2	; 8
			{
				DDRC  |= (1 << PORTC3);
			}
			else
			{
				DDRC  &= ~(1 << PORTC3);
     392:	3b 98       	cbi	0x07, 3	; 7
     394:	0a c0       	rjmp	.+20     	; 0x3aa <_Z7pinModehh+0x128>
			}
		}

		case A3:
		{
			if(mode == OUTPUT)
     396:	61 30       	cpi	r22, 0x01	; 1
     398:	11 f4       	brne	.+4      	; 0x39e <_Z7pinModehh+0x11c>
			{
				DDRC  |= (1 << PORTC3);
     39a:	3b 9a       	sbi	0x07, 3	; 7
     39c:	0b c0       	rjmp	.+22     	; 0x3b4 <_Z7pinModehh+0x132>
			}
			else
			{
				DDRC  &= ~(1 << PORTC3);
     39e:	3b 98       	cbi	0x07, 3	; 7

				if(mode == INPUT_PULLUP)
     3a0:	63 30       	cpi	r22, 0x03	; 3
     3a2:	19 f4       	brne	.+6      	; 0x3aa <_Z7pinModehh+0x128>
				{
					PORTC  |= (1 << PORTC3);
     3a4:	43 9a       	sbi	0x08, 3	; 8
			{
				DDRC  |= (1 << PORTC4);
			}
			else
			{
				DDRC  &= ~(1 << PORTC4);
     3a6:	3c 98       	cbi	0x07, 4	; 7
     3a8:	0a c0       	rjmp	.+20     	; 0x3be <_Z7pinModehh+0x13c>
				{
					PORTC  |= (1 << PORTC3);
				}
				else
				{
					PORTC &= ~(1 << PORTC3);
     3aa:	43 98       	cbi	0x08, 3	; 8
			{
				DDRC  |= (1 << PORTC4);
			}
			else
			{
				DDRC  &= ~(1 << PORTC4);
     3ac:	3c 98       	cbi	0x07, 4	; 7
     3ae:	0a c0       	rjmp	.+20     	; 0x3c4 <_Z7pinModehh+0x142>
			}
		}

		case A4:
		{
			if(mode == OUTPUT)
     3b0:	61 30       	cpi	r22, 0x01	; 1
     3b2:	11 f4       	brne	.+4      	; 0x3b8 <_Z7pinModehh+0x136>
			{
				DDRC  |= (1 << PORTC4);
     3b4:	3c 9a       	sbi	0x07, 4	; 7
     3b6:	0b c0       	rjmp	.+22     	; 0x3ce <_Z7pinModehh+0x14c>
			}
			else
			{
				DDRC  &= ~(1 << PORTC4);
     3b8:	3c 98       	cbi	0x07, 4	; 7

				if(mode == INPUT_PULLUP)
     3ba:	63 30       	cpi	r22, 0x03	; 3
     3bc:	19 f4       	brne	.+6      	; 0x3c4 <_Z7pinModehh+0x142>
				{
					PORTC  |= (1 << PORTC4);
     3be:	44 9a       	sbi	0x08, 4	; 8
			{
				DDRC  |= (1 << PORTC5);
			}
			else
			{
				DDRC  &= ~(1 << PORTC5);
     3c0:	3d 98       	cbi	0x07, 5	; 7
     3c2:	0a c0       	rjmp	.+20     	; 0x3d8 <_Z7pinModehh+0x156>
				{
					PORTC  |= (1 << PORTC4);
				}
				else
				{
					PORTC &= ~(1 << PORTC4);
     3c4:	44 98       	cbi	0x08, 4	; 8
			{
				DDRC  |= (1 << PORTC5);
			}
			else
			{
				DDRC  &= ~(1 << PORTC5);
     3c6:	3d 98       	cbi	0x07, 5	; 7
     3c8:	09 c0       	rjmp	.+18     	; 0x3dc <_Z7pinModehh+0x15a>
			}
		}

		case A5:
		{
			if(mode == OUTPUT)
     3ca:	61 30       	cpi	r22, 0x01	; 1
     3cc:	11 f4       	brne	.+4      	; 0x3d2 <_Z7pinModehh+0x150>
			{
				DDRC  |= (1 << PORTC5);
     3ce:	3d 9a       	sbi	0x07, 5	; 7
     3d0:	08 95       	ret
			}
			else
			{
				DDRC  &= ~(1 << PORTC5);
     3d2:	3d 98       	cbi	0x07, 5	; 7

				if(mode == INPUT_PULLUP)
     3d4:	63 30       	cpi	r22, 0x03	; 3
     3d6:	11 f4       	brne	.+4      	; 0x3dc <_Z7pinModehh+0x15a>
				{
					PORTC  |= (1 << PORTC5);
     3d8:	45 9a       	sbi	0x08, 5	; 8
     3da:	08 95       	ret
				}
				else
				{
					PORTC &= ~(1 << PORTC5);
     3dc:	45 98       	cbi	0x08, 5	; 8
     3de:	08 95       	ret

000003e0 <_Z11digitalReadh>:

BOOL digitalRead(uint8_t pin)
{
	int result = 0;

	switch(pin)
     3e0:	90 e0       	ldi	r25, 0x00	; 0
     3e2:	fc 01       	movw	r30, r24
     3e4:	32 97       	sbiw	r30, 0x02	; 2
     3e6:	e0 31       	cpi	r30, 0x10	; 16
     3e8:	f1 05       	cpc	r31, r1
     3ea:	90 f5       	brcc	.+100    	; 0x450 <__EEPROM_REGION_LENGTH__+0x50>
     3ec:	ea 5b       	subi	r30, 0xBA	; 186
     3ee:	ff 4f       	sbci	r31, 0xFF	; 255
     3f0:	0c 94 8f 28 	jmp	0x511e	; 0x511e <__tablejump2__>
	{
		case D2:
		{
			result = PIND & (1 << PORTD2);
     3f4:	29 b1       	in	r18, 0x09	; 9
     3f6:	24 70       	andi	r18, 0x04	; 4
     3f8:	30 e0       	ldi	r19, 0x00	; 0
		}
		break;
     3fa:	2c c0       	rjmp	.+88     	; 0x454 <__EEPROM_REGION_LENGTH__+0x54>

		case D3:
		{
			result = PIND & (1 << PORTD3);
     3fc:	29 b1       	in	r18, 0x09	; 9
     3fe:	28 70       	andi	r18, 0x08	; 8
     400:	30 e0       	ldi	r19, 0x00	; 0
		}
		break;
     402:	28 c0       	rjmp	.+80     	; 0x454 <__EEPROM_REGION_LENGTH__+0x54>

		case D4:
		{
			result = PIND & (1 << PORTD4);
     404:	29 b1       	in	r18, 0x09	; 9
     406:	20 71       	andi	r18, 0x10	; 16
     408:	30 e0       	ldi	r19, 0x00	; 0
		}
		break;
     40a:	24 c0       	rjmp	.+72     	; 0x454 <__EEPROM_REGION_LENGTH__+0x54>

		case D5:
		{
			result = PIND & (1 << PORTD5);
     40c:	29 b1       	in	r18, 0x09	; 9
     40e:	20 72       	andi	r18, 0x20	; 32
     410:	30 e0       	ldi	r19, 0x00	; 0
		}
		break;
     412:	20 c0       	rjmp	.+64     	; 0x454 <__EEPROM_REGION_LENGTH__+0x54>

		case D6:
		{
			result = PIND & (1 << PORTD6);
     414:	29 b1       	in	r18, 0x09	; 9
     416:	20 74       	andi	r18, 0x40	; 64
     418:	30 e0       	ldi	r19, 0x00	; 0
		}
		break;
     41a:	1c c0       	rjmp	.+56     	; 0x454 <__EEPROM_REGION_LENGTH__+0x54>

		case D7:
		{
			result = PIND & (1 << PORTD7);
     41c:	29 b1       	in	r18, 0x09	; 9
     41e:	20 78       	andi	r18, 0x80	; 128
     420:	30 e0       	ldi	r19, 0x00	; 0
		}
		break;
     422:	18 c0       	rjmp	.+48     	; 0x454 <__EEPROM_REGION_LENGTH__+0x54>

		case D9:
		{
			result = PINB & (1 << PORTB1);
     424:	83 b1       	in	r24, 0x03	; 3
		}

		case D13:
		{
			result = PINB & (1 << PORTB5);
     426:	23 b1       	in	r18, 0x03	; 3
     428:	20 72       	andi	r18, 0x20	; 32
     42a:	30 e0       	ldi	r19, 0x00	; 0
		}
		break;
     42c:	13 c0       	rjmp	.+38     	; 0x454 <__EEPROM_REGION_LENGTH__+0x54>

		case A0:
		{
			result = PINC & (1 << PORTC0);
     42e:	86 b1       	in	r24, 0x06	; 6
     430:	28 2f       	mov	r18, r24
     432:	21 70       	andi	r18, 0x01	; 1
     434:	30 e0       	ldi	r19, 0x00	; 0
		}
		break;
     436:	0e c0       	rjmp	.+28     	; 0x454 <__EEPROM_REGION_LENGTH__+0x54>

		case A1:
		{
			result = PINC & (1 << PORTC1);
     438:	26 b1       	in	r18, 0x06	; 6
     43a:	22 70       	andi	r18, 0x02	; 2
     43c:	30 e0       	ldi	r19, 0x00	; 0
		}
		break;
     43e:	0a c0       	rjmp	.+20     	; 0x454 <__EEPROM_REGION_LENGTH__+0x54>

		case A2:
		{
			result = PINC & (1 << PORTC2);
     440:	26 b1       	in	r18, 0x06	; 6
     442:	24 70       	andi	r18, 0x04	; 4
     444:	30 e0       	ldi	r19, 0x00	; 0
		}
		break;
     446:	06 c0       	rjmp	.+12     	; 0x454 <__EEPROM_REGION_LENGTH__+0x54>

		case A3:
		{
			result = PINC & (1 << PORTC3);
     448:	26 b1       	in	r18, 0x06	; 6
     44a:	28 70       	andi	r18, 0x08	; 8
     44c:	30 e0       	ldi	r19, 0x00	; 0
		}
		break;
     44e:	02 c0       	rjmp	.+4      	; 0x454 <__EEPROM_REGION_LENGTH__+0x54>
	}
}

BOOL digitalRead(uint8_t pin)
{
	int result = 0;
     450:	20 e0       	ldi	r18, 0x00	; 0
     452:	30 e0       	ldi	r19, 0x00	; 0
		{
		}
		break;
	}

	return(result != 0);
     454:	81 e0       	ldi	r24, 0x01	; 1
     456:	23 2b       	or	r18, r19
     458:	09 f4       	brne	.+2      	; 0x45c <__EEPROM_REGION_LENGTH__+0x5c>
     45a:	80 e0       	ldi	r24, 0x00	; 0
}
     45c:	08 95       	ret

0000045e <_Z12digitalWritehh>:

void digitalWrite(uint8_t pin, uint8_t value)
{
	switch(pin)
     45e:	90 e0       	ldi	r25, 0x00	; 0
     460:	fc 01       	movw	r30, r24
     462:	32 97       	sbiw	r30, 0x02	; 2
     464:	e0 31       	cpi	r30, 0x10	; 16
     466:	f1 05       	cpc	r31, r1
     468:	08 f0       	brcs	.+2      	; 0x46c <_Z12digitalWritehh+0xe>
     46a:	4b c0       	rjmp	.+150    	; 0x502 <_Z12digitalWritehh+0xa4>
     46c:	ea 5a       	subi	r30, 0xAA	; 170
     46e:	ff 4f       	sbci	r31, 0xFF	; 255
     470:	0c 94 8f 28 	jmp	0x511e	; 0x511e <__tablejump2__>
	{
		case D2:
		{
			if(value)
     474:	66 23       	and	r22, r22
     476:	11 f0       	breq	.+4      	; 0x47c <_Z12digitalWritehh+0x1e>
			{
				PORTD  |= (1 << PORTD2);
     478:	5a 9a       	sbi	0x0b, 2	; 11
     47a:	08 95       	ret
			}
			else
			{
				PORTD  &= ~(1 << PORTD2);
     47c:	5a 98       	cbi	0x0b, 2	; 11
     47e:	08 95       	ret
		}
		break;

		case D3:
		{
			if(value)
     480:	66 23       	and	r22, r22
     482:	11 f0       	breq	.+4      	; 0x488 <_Z12digitalWritehh+0x2a>
			{
				PORTD  |= (1 << PORTD3);
     484:	5b 9a       	sbi	0x0b, 3	; 11
     486:	08 95       	ret
			}
			else
			{
				PORTD  &= ~(1 << PORTD3);
     488:	5b 98       	cbi	0x0b, 3	; 11
     48a:	08 95       	ret
		}
		break;

		case D4:
		{
			if(value)
     48c:	66 23       	and	r22, r22
     48e:	11 f0       	breq	.+4      	; 0x494 <_Z12digitalWritehh+0x36>
			{
				PORTD  |= (1 << PORTD4);
     490:	5c 9a       	sbi	0x0b, 4	; 11
     492:	08 95       	ret
			}
			else
			{
				PORTD  &= ~(1 << PORTD4);
     494:	5c 98       	cbi	0x0b, 4	; 11
     496:	08 95       	ret
		}
		break;

		case D5:
		{
			if(value)
     498:	66 23       	and	r22, r22
     49a:	11 f0       	breq	.+4      	; 0x4a0 <_Z12digitalWritehh+0x42>
			{
				PORTD  |= (1 << PORTD5);
     49c:	5d 9a       	sbi	0x0b, 5	; 11
     49e:	08 95       	ret
			}
			else
			{
				PORTD  &= ~(1 << PORTD5);
     4a0:	5d 98       	cbi	0x0b, 5	; 11
     4a2:	08 95       	ret
		}
		break;

		case D6:
		{
			if(value)
     4a4:	66 23       	and	r22, r22
     4a6:	11 f0       	breq	.+4      	; 0x4ac <_Z12digitalWritehh+0x4e>
			{
				PORTD  |= (1 << PORTD6);
     4a8:	5e 9a       	sbi	0x0b, 6	; 11
     4aa:	08 95       	ret
			}
			else
			{
				PORTD  &= ~(1 << PORTD6);
     4ac:	5e 98       	cbi	0x0b, 6	; 11
     4ae:	08 95       	ret
		}
		break;

		case D7:
		{
			if(value)
     4b0:	66 23       	and	r22, r22
     4b2:	11 f0       	breq	.+4      	; 0x4b8 <_Z12digitalWritehh+0x5a>
			{
				PORTD  |= (1 << PORTD7);
     4b4:	5f 9a       	sbi	0x0b, 7	; 11
     4b6:	08 95       	ret
			}
			else
			{
				PORTD  &= ~(1 << PORTD7);
     4b8:	5f 98       	cbi	0x0b, 7	; 11
     4ba:	08 95       	ret
		}
		break;

		case D9:
		{
			if(value)
     4bc:	66 23       	and	r22, r22
     4be:	11 f0       	breq	.+4      	; 0x4c4 <_Z12digitalWritehh+0x66>
			{
				PORTB  |= (1 << PORTB1);
     4c0:	29 9a       	sbi	0x05, 1	; 5
     4c2:	08 95       	ret
			}
			else
			{
				PORTB  &= ~(1 << PORTB1);
     4c4:	29 98       	cbi	0x05, 1	; 5
     4c6:	08 95       	ret
		}
		break;

		case D13:
		{
			if(value)
     4c8:	66 23       	and	r22, r22
     4ca:	11 f0       	breq	.+4      	; 0x4d0 <_Z12digitalWritehh+0x72>
			{
				PORTB  |= (1 << PORTB5);
     4cc:	2d 9a       	sbi	0x05, 5	; 5
     4ce:	08 95       	ret
			}
			else
			{
				PORTB  &= ~(1 << PORTB5);
     4d0:	2d 98       	cbi	0x05, 5	; 5
     4d2:	08 95       	ret
		}
		break;

		case A0:
		{
			if(value)
     4d4:	66 23       	and	r22, r22
     4d6:	11 f0       	breq	.+4      	; 0x4dc <_Z12digitalWritehh+0x7e>
			{
				PORTC  |= (1 << PORTC0);
     4d8:	40 9a       	sbi	0x08, 0	; 8
     4da:	08 95       	ret
			}
			else
			{
				PORTC  &= ~(1 << PORTC0);
     4dc:	40 98       	cbi	0x08, 0	; 8
     4de:	08 95       	ret
		}
		break;

		case A1:
		{
			if(value)
     4e0:	66 23       	and	r22, r22
     4e2:	11 f0       	breq	.+4      	; 0x4e8 <_Z12digitalWritehh+0x8a>
			{
				PORTC  |= (1 << PORTC1);
     4e4:	41 9a       	sbi	0x08, 1	; 8
     4e6:	08 95       	ret
			}
			else
			{
				PORTC  &= ~(1 << PORTC1);
     4e8:	41 98       	cbi	0x08, 1	; 8
     4ea:	08 95       	ret
		}
		break;

		case A2:
		{
			if(value)
     4ec:	66 23       	and	r22, r22
     4ee:	11 f0       	breq	.+4      	; 0x4f4 <_Z12digitalWritehh+0x96>
			{
				PORTC  |= (1 << PORTC2);
     4f0:	42 9a       	sbi	0x08, 2	; 8
     4f2:	08 95       	ret
			}
			else
			{
				PORTC  &= ~(1 << PORTC2);
     4f4:	42 98       	cbi	0x08, 2	; 8
     4f6:	08 95       	ret
		}
		break;

		case A3:
		{
			if(value)
     4f8:	66 23       	and	r22, r22
     4fa:	11 f0       	breq	.+4      	; 0x500 <_Z12digitalWritehh+0xa2>
			{
				PORTC  |= (1 << PORTC3);
     4fc:	43 9a       	sbi	0x08, 3	; 8
     4fe:	08 95       	ret
			}
			else
			{
				PORTC  &= ~(1 << PORTC3);
     500:	43 98       	cbi	0x08, 3	; 8
     502:	08 95       	ret

00000504 <_Z16sendEEPROMStringPc>:
char EEMEM ee_textSetStart[sizeof(TEXT_SET_START)];
char EEMEM ee_textSetFinish[sizeof(TEXT_SET_FINISH)];


void sendEEPROMString(char ee_addr[])
{
     504:	1f 93       	push	r17
     506:	cf 93       	push	r28
     508:	df 93       	push	r29
     50a:	ec 01       	movw	r28, r24
	char c = eeprom_read_byte((uint8_t*)&ee_addr[0]);
     50c:	0e 94 1d 2d 	call	0x5a3a	; 0x5a3a <eeprom_read_byte>
     510:	18 2f       	mov	r17, r24
	int i = 0;

	while(c)
     512:	88 23       	and	r24, r24
     514:	89 f0       	breq	.+34     	; 0x538 <_Z16sendEEPROMStringPc+0x34>
     516:	21 96       	adiw	r28, 0x01	; 1
     518:	03 c0       	rjmp	.+6      	; 0x520 <_Z16sendEEPROMStringPc+0x1c>
     51a:	21 96       	adiw	r28, 0x01	; 1
     51c:	11 23       	and	r17, r17
     51e:	61 f0       	breq	.+24     	; 0x538 <_Z16sendEEPROMStringPc+0x34>
	{
		lb_echo_char(c);
     520:	81 2f       	mov	r24, r17
     522:	0e 94 28 07 	call	0xe50	; 0xe50 <_Z12lb_echo_charh>
		c = eeprom_read_byte((uint8_t*)&ee_addr[++i]);
     526:	ce 01       	movw	r24, r28
     528:	0e 94 1d 2d 	call	0x5a3a	; 0x5a3a <eeprom_read_byte>
     52c:	18 2f       	mov	r17, r24

		while(linkbusTxInProgress())
     52e:	0e 94 99 06 	call	0xd32	; 0xd32 <_Z19linkbusTxInProgressv>
     532:	81 11       	cpse	r24, r1
     534:	fc cf       	rjmp	.-8      	; 0x52e <_Z16sendEEPROMStringPc+0x2a>
     536:	f1 cf       	rjmp	.-30     	; 0x51a <_Z16sendEEPROMStringPc+0x16>
		{
			;
		}
	}
}
     538:	df 91       	pop	r29
     53a:	cf 91       	pop	r28
     53c:	1f 91       	pop	r17
     53e:	08 95       	ret

00000540 <_ZN8GoertzelC1Eff>:
int _index = 0;
bool _samplesReady = false;

int* testData;

Goertzel::Goertzel(float N, float sampling_frequency)
     540:	ef 92       	push	r14
     542:	ff 92       	push	r15
     544:	0f 93       	push	r16
     546:	1f 93       	push	r17
     548:	cf 93       	push	r28
     54a:	df 93       	push	r29
     54c:	e4 2e       	mov	r14, r20
     54e:	f5 2e       	mov	r15, r21
     550:	d6 2f       	mov	r29, r22
     552:	c7 2f       	mov	r28, r23
{
	_SAMPLING_FREQUENCY = sampling_frequency;   /*on 16mhz, ~8928.57142857143, on 8mhz ~44444 */
     554:	00 93 9f 03 	sts	0x039F, r16	; 0x80039f <_SAMPLING_FREQUENCY>
     558:	10 93 a0 03 	sts	0x03A0, r17	; 0x8003a0 <_SAMPLING_FREQUENCY+0x1>
     55c:	20 93 a1 03 	sts	0x03A1, r18	; 0x8003a1 <_SAMPLING_FREQUENCY+0x2>
     560:	30 93 a2 03 	sts	0x03A2, r19	; 0x8003a2 <_SAMPLING_FREQUENCY+0x3>
	_N = CLAMP(100, N, MAXN);
     564:	20 e0       	ldi	r18, 0x00	; 0
     566:	30 e0       	ldi	r19, 0x00	; 0
     568:	41 e5       	ldi	r20, 0x51	; 81
     56a:	53 e4       	ldi	r21, 0x43	; 67
     56c:	6e 2d       	mov	r22, r14
     56e:	7f 2d       	mov	r23, r15
     570:	8d 2f       	mov	r24, r29
     572:	9c 2f       	mov	r25, r28
     574:	0e 94 1c 27 	call	0x4e38	; 0x4e38 <__gesf2>
     578:	18 16       	cp	r1, r24
     57a:	6c f0       	brlt	.+26     	; 0x596 <_ZN8GoertzelC1Eff+0x56>
     57c:	20 e0       	ldi	r18, 0x00	; 0
     57e:	30 e0       	ldi	r19, 0x00	; 0
     580:	48 ec       	ldi	r20, 0xC8	; 200
     582:	52 e4       	ldi	r21, 0x42	; 66
     584:	6e 2d       	mov	r22, r14
     586:	7f 2d       	mov	r23, r15
     588:	8d 2f       	mov	r24, r29
     58a:	9c 2f       	mov	r25, r28
     58c:	0e 94 79 25 	call	0x4af2	; 0x4af2 <__cmpsf2>
     590:	88 23       	and	r24, r24
     592:	34 f0       	brlt	.+12     	; 0x5a0 <_ZN8GoertzelC1Eff+0x60>
     594:	09 c0       	rjmp	.+18     	; 0x5a8 <_ZN8GoertzelC1Eff+0x68>
     596:	e1 2c       	mov	r14, r1
     598:	f1 2c       	mov	r15, r1
     59a:	d1 e5       	ldi	r29, 0x51	; 81
     59c:	c3 e4       	ldi	r28, 0x43	; 67
     59e:	04 c0       	rjmp	.+8      	; 0x5a8 <_ZN8GoertzelC1Eff+0x68>
     5a0:	e1 2c       	mov	r14, r1
     5a2:	f1 2c       	mov	r15, r1
     5a4:	d8 ec       	ldi	r29, 0xC8	; 200
     5a6:	c2 e4       	ldi	r28, 0x42	; 66
     5a8:	6e 2d       	mov	r22, r14
     5aa:	7f 2d       	mov	r23, r15
     5ac:	8d 2f       	mov	r24, r29
     5ae:	9c 2f       	mov	r25, r28
     5b0:	0e 94 f5 25 	call	0x4bea	; 0x4bea <__fixsfsi>
     5b4:	70 93 9a 03 	sts	0x039A, r23	; 0x80039a <_N+0x1>
     5b8:	60 93 99 03 	sts	0x0399, r22	; 0x800399 <_N>
	testData = (int*)malloc(_N * sizeof(int));
     5bc:	cb 01       	movw	r24, r22
     5be:	88 0f       	add	r24, r24
     5c0:	99 1f       	adc	r25, r25
     5c2:	0e 94 be 28 	call	0x517c	; 0x517c <malloc>
     5c6:	90 93 89 03 	sts	0x0389, r25	; 0x800389 <__data_end+0x1>
     5ca:	80 93 88 03 	sts	0x0388, r24	; 0x800388 <__data_end>
}
     5ce:	df 91       	pop	r29
     5d0:	cf 91       	pop	r28
     5d2:	1f 91       	pop	r17
     5d4:	0f 91       	pop	r16
     5d6:	ff 90       	pop	r15
     5d8:	ef 90       	pop	r14
     5da:	08 95       	ret

000005dc <_ZN8GoertzelD1Ev>:

Goertzel::~Goertzel()
{
	free(testData);
     5dc:	80 91 88 03 	lds	r24, 0x0388	; 0x800388 <__data_end>
     5e0:	90 91 89 03 	lds	r25, 0x0389	; 0x800389 <__data_end+0x1>
     5e4:	0e 94 56 29 	call	0x52ac	; 0x52ac <free>
     5e8:	08 95       	ret

000005ea <_ZN8Goertzel13ResetGoertzelEv>:
}

/* Call this routine before every "block" (size=N) of samples. */
void Goertzel::ResetGoertzel(void)
{
	Q2 = 0;
     5ea:	10 92 8d 03 	sts	0x038D, r1	; 0x80038d <Q2>
     5ee:	10 92 8e 03 	sts	0x038E, r1	; 0x80038e <Q2+0x1>
     5f2:	10 92 8f 03 	sts	0x038F, r1	; 0x80038f <Q2+0x2>
     5f6:	10 92 90 03 	sts	0x0390, r1	; 0x800390 <Q2+0x3>
	Q1 = 0;
     5fa:	10 92 91 03 	sts	0x0391, r1	; 0x800391 <Q1>
     5fe:	10 92 92 03 	sts	0x0392, r1	; 0x800392 <Q1+0x1>
     602:	10 92 93 03 	sts	0x0393, r1	; 0x800393 <Q1+0x2>
     606:	10 92 94 03 	sts	0x0394, r1	; 0x800394 <Q1+0x3>
	_samplesReady = false;
     60a:	10 92 8a 03 	sts	0x038A, r1	; 0x80038a <_samplesReady>
     60e:	08 95       	ret

00000610 <_ZN8Goertzel18SetTargetFrequencyEf>:
{
	free(testData);
}

void Goertzel::SetTargetFrequency(float target_frequency)
{
     610:	8f 92       	push	r8
     612:	9f 92       	push	r9
     614:	af 92       	push	r10
     616:	bf 92       	push	r11
     618:	cf 92       	push	r12
     61a:	df 92       	push	r13
     61c:	ef 92       	push	r14
     61e:	ff 92       	push	r15
     620:	cf 93       	push	r28
     622:	df 93       	push	r29
     624:	ec 01       	movw	r28, r24
     626:	4a 01       	movw	r8, r20
     628:	5b 01       	movw	r10, r22
	float floatN = (float)_N;
     62a:	60 91 99 03 	lds	r22, 0x0399	; 0x800399 <_N>
     62e:	70 91 9a 03 	lds	r23, 0x039A	; 0x80039a <_N+0x1>
     632:	07 2e       	mov	r0, r23
     634:	00 0c       	add	r0, r0
     636:	88 0b       	sbc	r24, r24
     638:	99 0b       	sbc	r25, r25
     63a:	0e 94 2d 26 	call	0x4c5a	; 0x4c5a <__floatsisf>
     63e:	6b 01       	movw	r12, r22
     640:	7c 01       	movw	r14, r24

	_TARGET_FREQUENCY = target_frequency;   /*should be integer of SAMPLING_RATE/N */
     642:	80 92 9b 03 	sts	0x039B, r8	; 0x80039b <_TARGET_FREQUENCY>
     646:	90 92 9c 03 	sts	0x039C, r9	; 0x80039c <_TARGET_FREQUENCY+0x1>
     64a:	a0 92 9d 03 	sts	0x039D, r10	; 0x80039d <_TARGET_FREQUENCY+0x2>
     64e:	b0 92 9e 03 	sts	0x039E, r11	; 0x80039e <_TARGET_FREQUENCY+0x3>
	int k = (int)(0.5 + ((floatN * _TARGET_FREQUENCY) / _SAMPLING_FREQUENCY));
	float w = (2.0 * PI * k) / floatN;
	g_coeff = 2.0 * cos(w);
     652:	a5 01       	movw	r20, r10
     654:	94 01       	movw	r18, r8
     656:	0e 94 21 27 	call	0x4e42	; 0x4e42 <__mulsf3>
     65a:	20 91 9f 03 	lds	r18, 0x039F	; 0x80039f <_SAMPLING_FREQUENCY>
     65e:	30 91 a0 03 	lds	r19, 0x03A0	; 0x8003a0 <_SAMPLING_FREQUENCY+0x1>
     662:	40 91 a1 03 	lds	r20, 0x03A1	; 0x8003a1 <_SAMPLING_FREQUENCY+0x2>
     666:	50 91 a2 03 	lds	r21, 0x03A2	; 0x8003a2 <_SAMPLING_FREQUENCY+0x3>
     66a:	0e 94 83 25 	call	0x4b06	; 0x4b06 <__divsf3>
     66e:	20 e0       	ldi	r18, 0x00	; 0
     670:	30 e0       	ldi	r19, 0x00	; 0
     672:	40 e0       	ldi	r20, 0x00	; 0
     674:	5f e3       	ldi	r21, 0x3F	; 63
     676:	0e 94 0d 25 	call	0x4a1a	; 0x4a1a <__addsf3>
     67a:	0e 94 f5 25 	call	0x4bea	; 0x4bea <__fixsfsi>
     67e:	07 2e       	mov	r0, r23
     680:	00 0c       	add	r0, r0
     682:	88 0b       	sbc	r24, r24
     684:	99 0b       	sbc	r25, r25
     686:	0e 94 2d 26 	call	0x4c5a	; 0x4c5a <__floatsisf>
     68a:	2b ed       	ldi	r18, 0xDB	; 219
     68c:	3f e0       	ldi	r19, 0x0F	; 15
     68e:	49 ec       	ldi	r20, 0xC9	; 201
     690:	50 e4       	ldi	r21, 0x40	; 64
     692:	0e 94 21 27 	call	0x4e42	; 0x4e42 <__mulsf3>
     696:	a7 01       	movw	r20, r14
     698:	96 01       	movw	r18, r12
     69a:	0e 94 83 25 	call	0x4b06	; 0x4b06 <__divsf3>
     69e:	0e 94 7e 25 	call	0x4afc	; 0x4afc <cos>
     6a2:	9b 01       	movw	r18, r22
     6a4:	ac 01       	movw	r20, r24
     6a6:	0e 94 0d 25 	call	0x4a1a	; 0x4a1a <__addsf3>
     6aa:	60 93 95 03 	sts	0x0395, r22	; 0x800395 <g_coeff>
     6ae:	70 93 96 03 	sts	0x0396, r23	; 0x800396 <g_coeff+0x1>
     6b2:	80 93 97 03 	sts	0x0397, r24	; 0x800397 <g_coeff+0x2>
     6b6:	90 93 98 03 	sts	0x0398, r25	; 0x800398 <g_coeff+0x3>
	ResetGoertzel();
     6ba:	ce 01       	movw	r24, r28
     6bc:	0e 94 f5 02 	call	0x5ea	; 0x5ea <_ZN8Goertzel13ResetGoertzelEv>
}
     6c0:	df 91       	pop	r29
     6c2:	cf 91       	pop	r28
     6c4:	ff 90       	pop	r15
     6c6:	ef 90       	pop	r14
     6c8:	df 90       	pop	r13
     6ca:	cf 90       	pop	r12
     6cc:	bf 90       	pop	r11
     6ce:	af 90       	pop	r10
     6d0:	9f 90       	pop	r9
     6d2:	8f 90       	pop	r8
     6d4:	08 95       	ret

000006d6 <_ZN8Goertzel13ProcessSampleEi>:
	_samplesReady = false;
}

/* Call this routine for every sample. */
void Goertzel::ProcessSample(int sample)
{
     6d6:	8f 92       	push	r8
     6d8:	9f 92       	push	r9
     6da:	af 92       	push	r10
     6dc:	bf 92       	push	r11
     6de:	cf 92       	push	r12
     6e0:	df 92       	push	r13
     6e2:	ef 92       	push	r14
     6e4:	ff 92       	push	r15
     6e6:	cf 93       	push	r28
     6e8:	df 93       	push	r29
     6ea:	eb 01       	movw	r28, r22
	float Q0 = g_coeff * Q1 - Q2 + (float)(sample - ADCCENTER);
     6ec:	c0 90 91 03 	lds	r12, 0x0391	; 0x800391 <Q1>
     6f0:	d0 90 92 03 	lds	r13, 0x0392	; 0x800392 <Q1+0x1>
     6f4:	e0 90 93 03 	lds	r14, 0x0393	; 0x800393 <Q1+0x2>
     6f8:	f0 90 94 03 	lds	r15, 0x0394	; 0x800394 <Q1+0x3>
     6fc:	20 91 95 03 	lds	r18, 0x0395	; 0x800395 <g_coeff>
     700:	30 91 96 03 	lds	r19, 0x0396	; 0x800396 <g_coeff+0x1>
     704:	40 91 97 03 	lds	r20, 0x0397	; 0x800397 <g_coeff+0x2>
     708:	50 91 98 03 	lds	r21, 0x0398	; 0x800398 <g_coeff+0x3>
     70c:	c7 01       	movw	r24, r14
     70e:	b6 01       	movw	r22, r12
     710:	0e 94 21 27 	call	0x4e42	; 0x4e42 <__mulsf3>
     714:	20 91 8d 03 	lds	r18, 0x038D	; 0x80038d <Q2>
     718:	30 91 8e 03 	lds	r19, 0x038E	; 0x80038e <Q2+0x1>
     71c:	40 91 8f 03 	lds	r20, 0x038F	; 0x80038f <Q2+0x2>
     720:	50 91 90 03 	lds	r21, 0x0390	; 0x800390 <Q2+0x3>
     724:	0e 94 0c 25 	call	0x4a18	; 0x4a18 <__subsf3>
     728:	4b 01       	movw	r8, r22
     72a:	5c 01       	movw	r10, r24
     72c:	be 01       	movw	r22, r28
     72e:	72 50       	subi	r23, 0x02	; 2
     730:	07 2e       	mov	r0, r23
     732:	00 0c       	add	r0, r0
     734:	88 0b       	sbc	r24, r24
     736:	99 0b       	sbc	r25, r25
     738:	0e 94 2d 26 	call	0x4c5a	; 0x4c5a <__floatsisf>
     73c:	9b 01       	movw	r18, r22
     73e:	ac 01       	movw	r20, r24
     740:	c5 01       	movw	r24, r10
     742:	b4 01       	movw	r22, r8
     744:	0e 94 0d 25 	call	0x4a1a	; 0x4a1a <__addsf3>

	Q2 = Q1;
     748:	c0 92 8d 03 	sts	0x038D, r12	; 0x80038d <Q2>
     74c:	d0 92 8e 03 	sts	0x038E, r13	; 0x80038e <Q2+0x1>
     750:	e0 92 8f 03 	sts	0x038F, r14	; 0x80038f <Q2+0x2>
     754:	f0 92 90 03 	sts	0x0390, r15	; 0x800390 <Q2+0x3>
	Q1 = Q0;
     758:	60 93 91 03 	sts	0x0391, r22	; 0x800391 <Q1>
     75c:	70 93 92 03 	sts	0x0392, r23	; 0x800392 <Q1+0x1>
     760:	80 93 93 03 	sts	0x0393, r24	; 0x800393 <Q1+0x2>
     764:	90 93 94 03 	sts	0x0394, r25	; 0x800394 <Q1+0x3>
}
     768:	df 91       	pop	r29
     76a:	cf 91       	pop	r28
     76c:	ff 90       	pop	r15
     76e:	ef 90       	pop	r14
     770:	df 90       	pop	r13
     772:	cf 90       	pop	r12
     774:	bf 90       	pop	r11
     776:	af 90       	pop	r10
     778:	9f 90       	pop	r9
     77a:	8f 90       	pop	r8
     77c:	08 95       	ret

0000077e <_ZN8Goertzel9DataPointEi>:

bool Goertzel::DataPoint(int data)
{
	if(_samplesReady)
     77e:	80 91 8a 03 	lds	r24, 0x038A	; 0x80038a <_samplesReady>
     782:	81 11       	cpse	r24, r1
     784:	27 c0       	rjmp	.+78     	; 0x7d4 <_ZN8Goertzel9DataPointEi+0x56>
	{
		return(_samplesReady);
	}

	testData[_index] = data;
     786:	e0 91 8b 03 	lds	r30, 0x038B	; 0x80038b <_index>
     78a:	f0 91 8c 03 	lds	r31, 0x038C	; 0x80038c <_index+0x1>
     78e:	ee 0f       	add	r30, r30
     790:	ff 1f       	adc	r31, r31
     792:	80 91 88 03 	lds	r24, 0x0388	; 0x800388 <__data_end>
     796:	90 91 89 03 	lds	r25, 0x0389	; 0x800389 <__data_end+0x1>
     79a:	e8 0f       	add	r30, r24
     79c:	f9 1f       	adc	r31, r25
     79e:	71 83       	std	Z+1, r23	; 0x01
     7a0:	60 83       	st	Z, r22
	_index++;
     7a2:	80 91 8b 03 	lds	r24, 0x038B	; 0x80038b <_index>
     7a6:	90 91 8c 03 	lds	r25, 0x038C	; 0x80038c <_index+0x1>
     7aa:	01 96       	adiw	r24, 0x01	; 1
     7ac:	90 93 8c 03 	sts	0x038C, r25	; 0x80038c <_index+0x1>
     7b0:	80 93 8b 03 	sts	0x038B, r24	; 0x80038b <_index>
	if(_index >= _N)
     7b4:	20 91 99 03 	lds	r18, 0x0399	; 0x800399 <_N>
     7b8:	30 91 9a 03 	lds	r19, 0x039A	; 0x80039a <_N+0x1>
     7bc:	82 17       	cp	r24, r18
     7be:	93 07       	cpc	r25, r19
     7c0:	3c f0       	brlt	.+14     	; 0x7d0 <_ZN8Goertzel9DataPointEi+0x52>
	{
		_index = 0;
     7c2:	10 92 8c 03 	sts	0x038C, r1	; 0x80038c <_index+0x1>
     7c6:	10 92 8b 03 	sts	0x038B, r1	; 0x80038b <_index>
		_samplesReady = true;
     7ca:	81 e0       	ldi	r24, 0x01	; 1
     7cc:	80 93 8a 03 	sts	0x038A, r24	; 0x80038a <_samplesReady>
	}

	return(_samplesReady);
     7d0:	80 91 8a 03 	lds	r24, 0x038A	; 0x80038a <_samplesReady>
}
     7d4:	08 95       	ret

000007d6 <_ZN8Goertzel12SamplesReadyEv>:

bool Goertzel::SamplesReady(void)
{
	return(_samplesReady);
}
     7d6:	80 91 8a 03 	lds	r24, 0x038A	; 0x80038a <_samplesReady>
     7da:	08 95       	ret

000007dc <_ZN8Goertzel10Magnitude2Ev>:

float Goertzel::Magnitude2()
{
     7dc:	4f 92       	push	r4
     7de:	5f 92       	push	r5
     7e0:	6f 92       	push	r6
     7e2:	7f 92       	push	r7
     7e4:	8f 92       	push	r8
     7e6:	9f 92       	push	r9
     7e8:	af 92       	push	r10
     7ea:	bf 92       	push	r11
     7ec:	cf 92       	push	r12
     7ee:	df 92       	push	r13
     7f0:	ef 92       	push	r14
     7f2:	ff 92       	push	r15
     7f4:	0f 93       	push	r16
     7f6:	1f 93       	push	r17
     7f8:	cf 93       	push	r28
     7fa:	df 93       	push	r29
     7fc:	8c 01       	movw	r16, r24
	float magnitude2;

	/* Process the samples. */
	for(int index = 0; index < _N; index++)
     7fe:	80 91 99 03 	lds	r24, 0x0399	; 0x800399 <_N>
     802:	90 91 9a 03 	lds	r25, 0x039A	; 0x80039a <_N+0x1>
     806:	18 16       	cp	r1, r24
     808:	19 06       	cpc	r1, r25
     80a:	c4 f4       	brge	.+48     	; 0x83c <__DATA_REGION_LENGTH__+0x3c>
     80c:	c0 e0       	ldi	r28, 0x00	; 0
     80e:	d0 e0       	ldi	r29, 0x00	; 0
	{
		ProcessSample(testData[index]);
     810:	ce 01       	movw	r24, r28
     812:	88 0f       	add	r24, r24
     814:	99 1f       	adc	r25, r25
     816:	e0 91 88 03 	lds	r30, 0x0388	; 0x800388 <__data_end>
     81a:	f0 91 89 03 	lds	r31, 0x0389	; 0x800389 <__data_end+0x1>
     81e:	e8 0f       	add	r30, r24
     820:	f9 1f       	adc	r31, r25
     822:	60 81       	ld	r22, Z
     824:	71 81       	ldd	r23, Z+1	; 0x01
     826:	c8 01       	movw	r24, r16
     828:	0e 94 6b 03 	call	0x6d6	; 0x6d6 <_ZN8Goertzel13ProcessSampleEi>
float Goertzel::Magnitude2()
{
	float magnitude2;

	/* Process the samples. */
	for(int index = 0; index < _N; index++)
     82c:	21 96       	adiw	r28, 0x01	; 1
     82e:	80 91 99 03 	lds	r24, 0x0399	; 0x800399 <_N>
     832:	90 91 9a 03 	lds	r25, 0x039A	; 0x80039a <_N+0x1>
     836:	c8 17       	cp	r28, r24
     838:	d9 07       	cpc	r29, r25
     83a:	54 f3       	brlt	.-44     	; 0x810 <__DATA_REGION_LENGTH__+0x10>
	{
		ProcessSample(testData[index]);
	}

	magnitude2 = Q1 * Q1 + Q2 * Q2 - g_coeff * Q1 * Q2;
     83c:	80 90 91 03 	lds	r8, 0x0391	; 0x800391 <Q1>
     840:	90 90 92 03 	lds	r9, 0x0392	; 0x800392 <Q1+0x1>
     844:	a0 90 93 03 	lds	r10, 0x0393	; 0x800393 <Q1+0x2>
     848:	b0 90 94 03 	lds	r11, 0x0394	; 0x800394 <Q1+0x3>
     84c:	c0 90 8d 03 	lds	r12, 0x038D	; 0x80038d <Q2>
     850:	d0 90 8e 03 	lds	r13, 0x038E	; 0x80038e <Q2+0x1>
     854:	e0 90 8f 03 	lds	r14, 0x038F	; 0x80038f <Q2+0x2>
     858:	f0 90 90 03 	lds	r15, 0x0390	; 0x800390 <Q2+0x3>
     85c:	a5 01       	movw	r20, r10
     85e:	94 01       	movw	r18, r8
     860:	c5 01       	movw	r24, r10
     862:	b4 01       	movw	r22, r8
     864:	0e 94 21 27 	call	0x4e42	; 0x4e42 <__mulsf3>
     868:	2b 01       	movw	r4, r22
     86a:	3c 01       	movw	r6, r24
     86c:	a7 01       	movw	r20, r14
     86e:	96 01       	movw	r18, r12
     870:	c7 01       	movw	r24, r14
     872:	b6 01       	movw	r22, r12
     874:	0e 94 21 27 	call	0x4e42	; 0x4e42 <__mulsf3>
     878:	9b 01       	movw	r18, r22
     87a:	ac 01       	movw	r20, r24
     87c:	c3 01       	movw	r24, r6
     87e:	b2 01       	movw	r22, r4
     880:	0e 94 0d 25 	call	0x4a1a	; 0x4a1a <__addsf3>
     884:	2b 01       	movw	r4, r22
     886:	3c 01       	movw	r6, r24
     888:	20 91 95 03 	lds	r18, 0x0395	; 0x800395 <g_coeff>
     88c:	30 91 96 03 	lds	r19, 0x0396	; 0x800396 <g_coeff+0x1>
     890:	40 91 97 03 	lds	r20, 0x0397	; 0x800397 <g_coeff+0x2>
     894:	50 91 98 03 	lds	r21, 0x0398	; 0x800398 <g_coeff+0x3>
     898:	c5 01       	movw	r24, r10
     89a:	b4 01       	movw	r22, r8
     89c:	0e 94 21 27 	call	0x4e42	; 0x4e42 <__mulsf3>
     8a0:	a7 01       	movw	r20, r14
     8a2:	96 01       	movw	r18, r12
     8a4:	0e 94 21 27 	call	0x4e42	; 0x4e42 <__mulsf3>
     8a8:	9b 01       	movw	r18, r22
     8aa:	ac 01       	movw	r20, r24
     8ac:	c3 01       	movw	r24, r6
     8ae:	b2 01       	movw	r22, r4
     8b0:	0e 94 0c 25 	call	0x4a18	; 0x4a18 <__subsf3>
     8b4:	6b 01       	movw	r12, r22
     8b6:	7c 01       	movw	r14, r24

	ResetGoertzel();
     8b8:	c8 01       	movw	r24, r16
     8ba:	0e 94 f5 02 	call	0x5ea	; 0x5ea <_ZN8Goertzel13ResetGoertzelEv>
	return( magnitude2);
}
     8be:	c7 01       	movw	r24, r14
     8c0:	b6 01       	movw	r22, r12
     8c2:	df 91       	pop	r29
     8c4:	cf 91       	pop	r28
     8c6:	1f 91       	pop	r17
     8c8:	0f 91       	pop	r16
     8ca:	ff 90       	pop	r15
     8cc:	ef 90       	pop	r14
     8ce:	df 90       	pop	r13
     8d0:	cf 90       	pop	r12
     8d2:	bf 90       	pop	r11
     8d4:	af 90       	pop	r10
     8d6:	9f 90       	pop	r9
     8d8:	8f 90       	pop	r8
     8da:	7f 90       	pop	r7
     8dc:	6f 90       	pop	r6
     8de:	5f 90       	pop	r5
     8e0:	4f 90       	pop	r4
     8e2:	08 95       	ret

000008e4 <_Z8i2c_initv>:
	}
#endif /* SUPPORT_I2C_CLEARBUS_FUNCTION */

void i2c_init(void)
{
	power_twi_enable();
     8e4:	e4 e6       	ldi	r30, 0x64	; 100
     8e6:	f0 e0       	ldi	r31, 0x00	; 0
     8e8:	80 81       	ld	r24, Z
     8ea:	8f 77       	andi	r24, 0x7F	; 127
     8ec:	80 83       	st	Z, r24

	/* set SCL to ~100 kHz for 8 MHz CPU clock */
	TWSR = 0;   /* Prescale /1 */
     8ee:	10 92 b9 00 	sts	0x00B9, r1	; 0x8000b9 <__TEXT_REGION_LENGTH__+0x7f80b9>
	TWBR = 0x25;
     8f2:	85 e2       	ldi	r24, 0x25	; 37
     8f4:	80 93 b8 00 	sts	0x00B8, r24	; 0x8000b8 <__TEXT_REGION_LENGTH__+0x7f80b8>

	/* enable I2C */
	TWCR = _BV(TWEN);
     8f8:	84 e0       	ldi	r24, 0x04	; 4
     8fa:	80 93 bc 00 	sts	0x00BC, r24	; 0x8000bc <__TEXT_REGION_LENGTH__+0x7f80bc>
	g_i2c_not_timed_out = TRUE;
     8fe:	81 e0       	ldi	r24, 0x01	; 1
     900:	80 93 06 01 	sts	0x0106, r24	; 0x800106 <g_i2c_not_timed_out>
     904:	08 95       	ret

00000906 <_Z9i2c_startv>:
#else
	void i2c_start(void)
#endif
{
#ifdef I2C_TIMEOUT_SUPPORT
		TWCR = _BV(TWINT) | _BV(TWSTA) | _BV(TWEN);
     906:	84 ea       	ldi	r24, 0xA4	; 164
     908:	80 93 bc 00 	sts	0x00BC, r24	; 0x8000bc <__TEXT_REGION_LENGTH__+0x7f80bc>
		while(!(TWCR & _BV(TWINT)) && g_i2c_not_timed_out)
     90c:	ec eb       	ldi	r30, 0xBC	; 188
     90e:	f0 e0       	ldi	r31, 0x00	; 0
     910:	80 81       	ld	r24, Z
     912:	88 23       	and	r24, r24
     914:	64 f0       	brlt	.+24     	; 0x92e <_Z9i2c_startv+0x28>
     916:	80 91 06 01 	lds	r24, 0x0106	; 0x800106 <g_i2c_not_timed_out>
     91a:	81 11       	cpse	r24, r1
     91c:	f9 cf       	rjmp	.-14     	; 0x910 <_Z9i2c_startv+0xa>
     91e:	07 c0       	rjmp	.+14     	; 0x92e <_Z9i2c_startv+0x28>
			;
		}

		if(!g_i2c_not_timed_out)    /* if timed out, reset the bus */
		{
			TWCR = (1 << TWINT) | (1 << TWSTO);
     920:	80 e9       	ldi	r24, 0x90	; 144
     922:	80 93 bc 00 	sts	0x00BC, r24	; 0x8000bc <__TEXT_REGION_LENGTH__+0x7f80bc>
			g_i2c_not_timed_out = TRUE;
     926:	81 e0       	ldi	r24, 0x01	; 1
     928:	80 93 06 01 	sts	0x0106, r24	; 0x800106 <g_i2c_not_timed_out>
			return( TRUE);
     92c:	08 95       	ret
		while(!(TWCR & _BV(TWINT)) && g_i2c_not_timed_out)
		{
			;
		}

		if(!g_i2c_not_timed_out)    /* if timed out, reset the bus */
     92e:	80 91 06 01 	lds	r24, 0x0106	; 0x800106 <g_i2c_not_timed_out>
     932:	88 23       	and	r24, r24
     934:	a9 f3       	breq	.-22     	; 0x920 <_Z9i2c_startv+0x1a>
			TWCR = (1 << TWINT) | (1 << TWSTO);
			g_i2c_not_timed_out = TRUE;
			return( TRUE);
		}

		return( FALSE);
     936:	80 e0       	ldi	r24, 0x00	; 0
		while(!(TWCR & _BV(TWINT)))
		{
			;
		}
#endif
}
     938:	08 95       	ret

0000093a <_Z8i2c_stopv>:

void i2c_stop(void)
{
	TWCR = _BV(TWINT) | _BV(TWSTO) | _BV(TWEN);
     93a:	84 e9       	ldi	r24, 0x94	; 148
     93c:	80 93 bc 00 	sts	0x00BC, r24	; 0x8000bc <__TEXT_REGION_LENGTH__+0x7f80bc>
     940:	08 95       	ret

00000942 <_Z17i2c_write_successhh>:
}

BOOL i2c_write_success(uint8_t data, uint8_t success)
{
#ifdef I2C_TIMEOUT_SUPPORT
		TWDR = data;
     942:	80 93 bb 00 	sts	0x00BB, r24	; 0x8000bb <__TEXT_REGION_LENGTH__+0x7f80bb>
		TWCR = _BV(TWINT) | _BV(TWEN);
     946:	84 e8       	ldi	r24, 0x84	; 132
     948:	80 93 bc 00 	sts	0x00BC, r24	; 0x8000bc <__TEXT_REGION_LENGTH__+0x7f80bc>
		while(!(TWCR & _BV(TWINT)) && g_i2c_not_timed_out)
     94c:	ec eb       	ldi	r30, 0xBC	; 188
     94e:	f0 e0       	ldi	r31, 0x00	; 0
     950:	80 81       	ld	r24, Z
     952:	88 23       	and	r24, r24
     954:	64 f0       	brlt	.+24     	; 0x96e <_Z17i2c_write_successhh+0x2c>
     956:	80 91 06 01 	lds	r24, 0x0106	; 0x800106 <g_i2c_not_timed_out>
     95a:	81 11       	cpse	r24, r1
     95c:	f9 cf       	rjmp	.-14     	; 0x950 <_Z17i2c_write_successhh+0xe>
     95e:	07 c0       	rjmp	.+14     	; 0x96e <_Z17i2c_write_successhh+0x2c>
		uint8_t stat = TW_STATUS;

		/* ignore timeout condition to ensure i2c_stop() gets sent */
		if(stat != success)
		{
			TWCR = _BV(TWINT) | _BV(TWSTO) | _BV(TWEN);
     960:	84 e9       	ldi	r24, 0x94	; 148
     962:	80 93 bc 00 	sts	0x00BC, r24	; 0x8000bc <__TEXT_REGION_LENGTH__+0x7f80bc>
			g_i2c_not_timed_out = TRUE;
     966:	81 e0       	ldi	r24, 0x01	; 1
     968:	80 93 06 01 	sts	0x0106, r24	; 0x800106 <g_i2c_not_timed_out>
			return(TRUE);
     96c:	08 95       	ret
		while(!(TWCR & _BV(TWINT)) && g_i2c_not_timed_out)
		{
			;
		}

		uint8_t stat = TW_STATUS;
     96e:	80 91 b9 00 	lds	r24, 0x00B9	; 0x8000b9 <__TEXT_REGION_LENGTH__+0x7f80b9>

		/* ignore timeout condition to ensure i2c_stop() gets sent */
		if(stat != success)
     972:	88 7f       	andi	r24, 0xF8	; 248
     974:	86 13       	cpse	r24, r22
     976:	f4 cf       	rjmp	.-24     	; 0x960 <_Z17i2c_write_successhh+0x1e>
			TWCR = _BV(TWINT) | _BV(TWSTO) | _BV(TWEN);
			g_i2c_not_timed_out = TRUE;
			return(TRUE);
		}

		return( FALSE);
     978:	80 e0       	ldi	r24, 0x00	; 0
			return(TRUE);
		}

		return(FALSE);
#endif
}
     97a:	08 95       	ret

0000097c <_Z12i2c_read_ackv>:

uint8_t i2c_read_ack(void)
{
#ifdef I2C_TIMEOUT_SUPPORT
		TWCR = _BV(TWINT) | _BV(TWEN) | _BV(TWEA);
     97c:	84 ec       	ldi	r24, 0xC4	; 196
     97e:	80 93 bc 00 	sts	0x00BC, r24	; 0x8000bc <__TEXT_REGION_LENGTH__+0x7f80bc>
		while(!(TWCR & _BV(TWINT)) && g_i2c_not_timed_out)
     982:	ec eb       	ldi	r30, 0xBC	; 188
     984:	f0 e0       	ldi	r31, 0x00	; 0
     986:	80 81       	ld	r24, Z
     988:	88 23       	and	r24, r24
     98a:	24 f0       	brlt	.+8      	; 0x994 <_Z12i2c_read_ackv+0x18>
     98c:	80 91 06 01 	lds	r24, 0x0106	; 0x800106 <g_i2c_not_timed_out>
     990:	81 11       	cpse	r24, r1
     992:	f9 cf       	rjmp	.-14     	; 0x986 <_Z12i2c_read_ackv+0xa>
		{
			;
		}

		return(TWDR);
     994:	80 91 bb 00 	lds	r24, 0x00BB	; 0x8000bb <__TEXT_REGION_LENGTH__+0x7f80bb>
			;
		}

		return( TWDR);
#endif
}
     998:	08 95       	ret

0000099a <_Z13i2c_read_nackv>:

uint8_t i2c_read_nack(void)
{
#ifdef I2C_TIMEOUT_SUPPORT
		TWCR = _BV(TWINT) | _BV(TWEN);
     99a:	84 e8       	ldi	r24, 0x84	; 132
     99c:	80 93 bc 00 	sts	0x00BC, r24	; 0x8000bc <__TEXT_REGION_LENGTH__+0x7f80bc>
		while(!(TWCR & _BV(TWINT)) && g_i2c_not_timed_out)
     9a0:	ec eb       	ldi	r30, 0xBC	; 188
     9a2:	f0 e0       	ldi	r31, 0x00	; 0
     9a4:	80 81       	ld	r24, Z
     9a6:	88 23       	and	r24, r24
     9a8:	24 f0       	brlt	.+8      	; 0x9b2 <_Z13i2c_read_nackv+0x18>
     9aa:	80 91 06 01 	lds	r24, 0x0106	; 0x800106 <g_i2c_not_timed_out>
     9ae:	81 11       	cpse	r24, r1
     9b0:	f9 cf       	rjmp	.-14     	; 0x9a4 <_Z13i2c_read_nackv+0xa>
		{
			;
		}

		return( TWDR);
     9b2:	80 91 bb 00 	lds	r24, 0x00BB	; 0x8000bb <__TEXT_REGION_LENGTH__+0x7f80bb>
			;
		}

		return( TWDR);
#endif
}
     9b6:	08 95       	ret

000009b8 <_Z10i2c_statush>:

BOOL i2c_status(uint8_t status)
{
	if(TW_STATUS != status)
     9b8:	20 91 b9 00 	lds	r18, 0x00B9	; 0x8000b9 <__TEXT_REGION_LENGTH__+0x7f80b9>
     9bc:	28 7f       	andi	r18, 0xF8	; 248
     9be:	30 e0       	ldi	r19, 0x00	; 0
     9c0:	90 e0       	ldi	r25, 0x00	; 0
     9c2:	28 17       	cp	r18, r24
     9c4:	39 07       	cpc	r19, r25
     9c6:	29 f0       	breq	.+10     	; 0x9d2 <_Z10i2c_statush+0x1a>
	{
		TWCR = _BV(TWINT) | _BV(TWSTO) | _BV(TWEN);
     9c8:	84 e9       	ldi	r24, 0x94	; 148
     9ca:	80 93 bc 00 	sts	0x00BC, r24	; 0x8000bc <__TEXT_REGION_LENGTH__+0x7f80bc>
		return(TRUE);
     9ce:	81 e0       	ldi	r24, 0x01	; 1
     9d0:	08 95       	ret
	}

	return(FALSE);
     9d2:	80 e0       	ldi	r24, 0x00	; 0
}
     9d4:	08 95       	ret

000009d6 <_Z16i2c_device_writehhPhh>:
#ifdef SELECTIVELY_DISABLE_OPTIMIZATION
	BOOL __attribute__((optimize("O0"))) i2c_device_write(uint8_t slaveAddr, uint8_t addr, uint8_t data[], uint8_t bytes2write)
#else
	BOOL i2c_device_write(uint8_t slaveAddr, uint8_t addr, uint8_t data[], uint8_t bytes2write)
#endif
{
     9d6:	cf 93       	push	r28
     9d8:	df 93       	push	r29
     9da:	00 d0       	rcall	.+0      	; 0x9dc <_Z16i2c_device_writehhPhh+0x6>
     9dc:	00 d0       	rcall	.+0      	; 0x9de <_Z16i2c_device_writehhPhh+0x8>
     9de:	00 d0       	rcall	.+0      	; 0x9e0 <_Z16i2c_device_writehhPhh+0xa>
     9e0:	cd b7       	in	r28, 0x3d	; 61
     9e2:	de b7       	in	r29, 0x3e	; 62
     9e4:	8a 83       	std	Y+2, r24	; 0x02
     9e6:	6b 83       	std	Y+3, r22	; 0x03
     9e8:	5d 83       	std	Y+5, r21	; 0x05
     9ea:	4c 83       	std	Y+4, r20	; 0x04
     9ec:	2e 83       	std	Y+6, r18	; 0x06
		#ifndef DEBUG_WITHOUT_I2C
		uint8_t index = 0;
     9ee:	19 82       	std	Y+1, r1	; 0x01

		i2c_start();
     9f0:	0e 94 83 04 	call	0x906	; 0x906 <_Z9i2c_startv>
		if(i2c_status(TW_START))
     9f4:	88 e0       	ldi	r24, 0x08	; 8
     9f6:	0e 94 dc 04 	call	0x9b8	; 0x9b8 <_Z10i2c_statush>
     9fa:	98 2f       	mov	r25, r24
     9fc:	81 e0       	ldi	r24, 0x01	; 1
     9fe:	99 23       	and	r25, r25
     a00:	09 f4       	brne	.+2      	; 0xa04 <_Z16i2c_device_writehhPhh+0x2e>
     a02:	80 e0       	ldi	r24, 0x00	; 0
     a04:	88 23       	and	r24, r24
     a06:	11 f0       	breq	.+4      	; 0xa0c <_Z16i2c_device_writehhPhh+0x36>
		{
			return(TRUE);
     a08:	81 e0       	ldi	r24, 0x01	; 1
     a0a:	3f c0       	rjmp	.+126    	; 0xa8a <_Z16i2c_device_writehhPhh+0xb4>
		}

		if(i2c_write_success(slaveAddr, TW_MT_SLA_ACK))
     a0c:	68 e1       	ldi	r22, 0x18	; 24
     a0e:	8a 81       	ldd	r24, Y+2	; 0x02
     a10:	0e 94 a1 04 	call	0x942	; 0x942 <_Z17i2c_write_successhh>
     a14:	98 2f       	mov	r25, r24
     a16:	81 e0       	ldi	r24, 0x01	; 1
     a18:	99 23       	and	r25, r25
     a1a:	09 f4       	brne	.+2      	; 0xa1e <_Z16i2c_device_writehhPhh+0x48>
     a1c:	80 e0       	ldi	r24, 0x00	; 0
     a1e:	88 23       	and	r24, r24
     a20:	11 f0       	breq	.+4      	; 0xa26 <_Z16i2c_device_writehhPhh+0x50>
		{
			return(TRUE);
     a22:	81 e0       	ldi	r24, 0x01	; 1
     a24:	32 c0       	rjmp	.+100    	; 0xa8a <_Z16i2c_device_writehhPhh+0xb4>
		}

		if(i2c_write_success(addr, TW_MT_DATA_ACK))
     a26:	68 e2       	ldi	r22, 0x28	; 40
     a28:	8b 81       	ldd	r24, Y+3	; 0x03
     a2a:	0e 94 a1 04 	call	0x942	; 0x942 <_Z17i2c_write_successhh>
     a2e:	98 2f       	mov	r25, r24
     a30:	81 e0       	ldi	r24, 0x01	; 1
     a32:	99 23       	and	r25, r25
     a34:	09 f4       	brne	.+2      	; 0xa38 <_Z16i2c_device_writehhPhh+0x62>
     a36:	80 e0       	ldi	r24, 0x00	; 0
     a38:	88 23       	and	r24, r24
     a3a:	11 f0       	breq	.+4      	; 0xa40 <_Z16i2c_device_writehhPhh+0x6a>
		{
			return(TRUE);
     a3c:	81 e0       	ldi	r24, 0x01	; 1
     a3e:	25 c0       	rjmp	.+74     	; 0xa8a <_Z16i2c_device_writehhPhh+0xb4>
		}

		while(bytes2write--)
     a40:	8e 81       	ldd	r24, Y+6	; 0x06
     a42:	9f ef       	ldi	r25, 0xFF	; 255
     a44:	98 0f       	add	r25, r24
     a46:	9e 83       	std	Y+6, r25	; 0x06
     a48:	91 e0       	ldi	r25, 0x01	; 1
     a4a:	88 23       	and	r24, r24
     a4c:	09 f4       	brne	.+2      	; 0xa50 <_Z16i2c_device_writehhPhh+0x7a>
     a4e:	90 e0       	ldi	r25, 0x00	; 0
     a50:	99 23       	and	r25, r25
     a52:	c1 f0       	breq	.+48     	; 0xa84 <_Z16i2c_device_writehhPhh+0xae>
		{
			if(i2c_write_success(data[index++], TW_MT_DATA_ACK))
     a54:	89 81       	ldd	r24, Y+1	; 0x01
     a56:	91 e0       	ldi	r25, 0x01	; 1
     a58:	98 0f       	add	r25, r24
     a5a:	99 83       	std	Y+1, r25	; 0x01
     a5c:	88 2f       	mov	r24, r24
     a5e:	90 e0       	ldi	r25, 0x00	; 0
     a60:	2c 81       	ldd	r18, Y+4	; 0x04
     a62:	3d 81       	ldd	r19, Y+5	; 0x05
     a64:	82 0f       	add	r24, r18
     a66:	93 1f       	adc	r25, r19
     a68:	fc 01       	movw	r30, r24
     a6a:	80 81       	ld	r24, Z
     a6c:	68 e2       	ldi	r22, 0x28	; 40
     a6e:	0e 94 a1 04 	call	0x942	; 0x942 <_Z17i2c_write_successhh>
     a72:	98 2f       	mov	r25, r24
     a74:	81 e0       	ldi	r24, 0x01	; 1
     a76:	99 23       	and	r25, r25
     a78:	09 f4       	brne	.+2      	; 0xa7c <_Z16i2c_device_writehhPhh+0xa6>
     a7a:	80 e0       	ldi	r24, 0x00	; 0
     a7c:	88 23       	and	r24, r24
     a7e:	01 f3       	breq	.-64     	; 0xa40 <_Z16i2c_device_writehhPhh+0x6a>
			{
				return(TRUE);
     a80:	81 e0       	ldi	r24, 0x01	; 1
     a82:	03 c0       	rjmp	.+6      	; 0xa8a <_Z16i2c_device_writehhPhh+0xb4>
			}
		}

		i2c_stop();
     a84:	0e 94 9d 04 	call	0x93a	; 0x93a <_Z8i2c_stopv>

		#endif  /* #ifndef DEBUG_WITHOUT_I2C */

	return(FALSE);
     a88:	80 e0       	ldi	r24, 0x00	; 0
}
     a8a:	26 96       	adiw	r28, 0x06	; 6
     a8c:	0f b6       	in	r0, 0x3f	; 63
     a8e:	f8 94       	cli
     a90:	de bf       	out	0x3e, r29	; 62
     a92:	0f be       	out	0x3f, r0	; 63
     a94:	cd bf       	out	0x3d, r28	; 61
     a96:	df 91       	pop	r29
     a98:	cf 91       	pop	r28
     a9a:	08 95       	ret

00000a9c <_Z15i2c_device_readhhPhh>:
#ifdef SELECTIVELY_DISABLE_OPTIMIZATION
	BOOL __attribute__((optimize("O0"))) i2c_device_read(uint8_t slaveAddr, uint8_t addr, uint8_t data[], uint8_t bytes2read)
#else
	BOOL i2c_device_read(uint8_t slaveAddr, uint8_t addr, uint8_t data[], uint8_t bytes2read)
#endif
{
     a9c:	0f 93       	push	r16
     a9e:	1f 93       	push	r17
     aa0:	cf 93       	push	r28
     aa2:	df 93       	push	r29
     aa4:	00 d0       	rcall	.+0      	; 0xaa6 <_Z15i2c_device_readhhPhh+0xa>
     aa6:	00 d0       	rcall	.+0      	; 0xaa8 <_Z15i2c_device_readhhPhh+0xc>
     aa8:	00 d0       	rcall	.+0      	; 0xaaa <_Z15i2c_device_readhhPhh+0xe>
     aaa:	cd b7       	in	r28, 0x3d	; 61
     aac:	de b7       	in	r29, 0x3e	; 62
     aae:	8a 83       	std	Y+2, r24	; 0x02
     ab0:	6b 83       	std	Y+3, r22	; 0x03
     ab2:	5d 83       	std	Y+5, r21	; 0x05
     ab4:	4c 83       	std	Y+4, r20	; 0x04
     ab6:	2e 83       	std	Y+6, r18	; 0x06
		#ifndef DEBUG_WITHOUT_I2C
		uint8_t index = 0;
     ab8:	19 82       	std	Y+1, r1	; 0x01

		i2c_start();
     aba:	0e 94 83 04 	call	0x906	; 0x906 <_Z9i2c_startv>
		if(i2c_status(TW_START))
     abe:	88 e0       	ldi	r24, 0x08	; 8
     ac0:	0e 94 dc 04 	call	0x9b8	; 0x9b8 <_Z10i2c_statush>
     ac4:	98 2f       	mov	r25, r24
     ac6:	81 e0       	ldi	r24, 0x01	; 1
     ac8:	99 23       	and	r25, r25
     aca:	09 f4       	brne	.+2      	; 0xace <_Z15i2c_device_readhhPhh+0x32>
     acc:	80 e0       	ldi	r24, 0x00	; 0
     ace:	88 23       	and	r24, r24
     ad0:	11 f0       	breq	.+4      	; 0xad6 <_Z15i2c_device_readhhPhh+0x3a>
		{
			return(TRUE);
     ad2:	81 e0       	ldi	r24, 0x01	; 1
     ad4:	79 c0       	rjmp	.+242    	; 0xbc8 <_Z15i2c_device_readhhPhh+0x12c>
		}

		if(i2c_write_success(slaveAddr, TW_MT_SLA_ACK))
     ad6:	68 e1       	ldi	r22, 0x18	; 24
     ad8:	8a 81       	ldd	r24, Y+2	; 0x02
     ada:	0e 94 a1 04 	call	0x942	; 0x942 <_Z17i2c_write_successhh>
     ade:	98 2f       	mov	r25, r24
     ae0:	81 e0       	ldi	r24, 0x01	; 1
     ae2:	99 23       	and	r25, r25
     ae4:	09 f4       	brne	.+2      	; 0xae8 <_Z15i2c_device_readhhPhh+0x4c>
     ae6:	80 e0       	ldi	r24, 0x00	; 0
     ae8:	88 23       	and	r24, r24
     aea:	11 f0       	breq	.+4      	; 0xaf0 <_Z15i2c_device_readhhPhh+0x54>
		{
			return(TRUE);
     aec:	81 e0       	ldi	r24, 0x01	; 1
     aee:	6c c0       	rjmp	.+216    	; 0xbc8 <_Z15i2c_device_readhhPhh+0x12c>
		}

		if(i2c_write_success(addr, TW_MT_DATA_ACK))
     af0:	68 e2       	ldi	r22, 0x28	; 40
     af2:	8b 81       	ldd	r24, Y+3	; 0x03
     af4:	0e 94 a1 04 	call	0x942	; 0x942 <_Z17i2c_write_successhh>
     af8:	98 2f       	mov	r25, r24
     afa:	81 e0       	ldi	r24, 0x01	; 1
     afc:	99 23       	and	r25, r25
     afe:	09 f4       	brne	.+2      	; 0xb02 <_Z15i2c_device_readhhPhh+0x66>
     b00:	80 e0       	ldi	r24, 0x00	; 0
     b02:	88 23       	and	r24, r24
     b04:	11 f0       	breq	.+4      	; 0xb0a <_Z15i2c_device_readhhPhh+0x6e>
		{
			return(TRUE);
     b06:	81 e0       	ldi	r24, 0x01	; 1
     b08:	5f c0       	rjmp	.+190    	; 0xbc8 <_Z15i2c_device_readhhPhh+0x12c>
		}

		i2c_start();
     b0a:	0e 94 83 04 	call	0x906	; 0x906 <_Z9i2c_startv>
		if(i2c_status(TW_REP_START))
     b0e:	80 e1       	ldi	r24, 0x10	; 16
     b10:	0e 94 dc 04 	call	0x9b8	; 0x9b8 <_Z10i2c_statush>
     b14:	98 2f       	mov	r25, r24
     b16:	81 e0       	ldi	r24, 0x01	; 1
     b18:	99 23       	and	r25, r25
     b1a:	09 f4       	brne	.+2      	; 0xb1e <_Z15i2c_device_readhhPhh+0x82>
     b1c:	80 e0       	ldi	r24, 0x00	; 0
     b1e:	88 23       	and	r24, r24
     b20:	11 f0       	breq	.+4      	; 0xb26 <_Z15i2c_device_readhhPhh+0x8a>
		{
			return(TRUE);
     b22:	81 e0       	ldi	r24, 0x01	; 1
     b24:	51 c0       	rjmp	.+162    	; 0xbc8 <_Z15i2c_device_readhhPhh+0x12c>
		}

		if(i2c_write_success((slaveAddr | TW_READ), TW_MR_SLA_ACK))
     b26:	8a 81       	ldd	r24, Y+2	; 0x02
     b28:	81 60       	ori	r24, 0x01	; 1
     b2a:	60 e4       	ldi	r22, 0x40	; 64
     b2c:	0e 94 a1 04 	call	0x942	; 0x942 <_Z17i2c_write_successhh>
     b30:	98 2f       	mov	r25, r24
     b32:	81 e0       	ldi	r24, 0x01	; 1
     b34:	99 23       	and	r25, r25
     b36:	09 f4       	brne	.+2      	; 0xb3a <_Z15i2c_device_readhhPhh+0x9e>
     b38:	80 e0       	ldi	r24, 0x00	; 0
     b3a:	88 23       	and	r24, r24
     b3c:	11 f0       	breq	.+4      	; 0xb42 <_Z15i2c_device_readhhPhh+0xa6>
		{
			return(TRUE);
     b3e:	81 e0       	ldi	r24, 0x01	; 1
     b40:	43 c0       	rjmp	.+134    	; 0xbc8 <_Z15i2c_device_readhhPhh+0x12c>
		}

		while(bytes2read--)
     b42:	8e 81       	ldd	r24, Y+6	; 0x06
     b44:	9f ef       	ldi	r25, 0xFF	; 255
     b46:	98 0f       	add	r25, r24
     b48:	9e 83       	std	Y+6, r25	; 0x06
     b4a:	91 e0       	ldi	r25, 0x01	; 1
     b4c:	88 23       	and	r24, r24
     b4e:	09 f4       	brne	.+2      	; 0xb52 <_Z15i2c_device_readhhPhh+0xb6>
     b50:	90 e0       	ldi	r25, 0x00	; 0
     b52:	99 23       	and	r25, r25
     b54:	b1 f1       	breq	.+108    	; 0xbc2 <_Z15i2c_device_readhhPhh+0x126>
		{
			if(bytes2read)
     b56:	8e 81       	ldd	r24, Y+6	; 0x06
     b58:	88 23       	and	r24, r24
     b5a:	d9 f0       	breq	.+54     	; 0xb92 <_Z15i2c_device_readhhPhh+0xf6>
			{
				data[index++] = i2c_read_ack();
     b5c:	89 81       	ldd	r24, Y+1	; 0x01
     b5e:	91 e0       	ldi	r25, 0x01	; 1
     b60:	98 0f       	add	r25, r24
     b62:	99 83       	std	Y+1, r25	; 0x01
     b64:	88 2f       	mov	r24, r24
     b66:	90 e0       	ldi	r25, 0x00	; 0
     b68:	2c 81       	ldd	r18, Y+4	; 0x04
     b6a:	3d 81       	ldd	r19, Y+5	; 0x05
     b6c:	89 01       	movw	r16, r18
     b6e:	08 0f       	add	r16, r24
     b70:	19 1f       	adc	r17, r25
     b72:	0e 94 be 04 	call	0x97c	; 0x97c <_Z12i2c_read_ackv>
     b76:	f8 01       	movw	r30, r16
     b78:	80 83       	st	Z, r24
				if(i2c_status(TW_MR_DATA_ACK))
     b7a:	80 e5       	ldi	r24, 0x50	; 80
     b7c:	0e 94 dc 04 	call	0x9b8	; 0x9b8 <_Z10i2c_statush>
     b80:	98 2f       	mov	r25, r24
     b82:	81 e0       	ldi	r24, 0x01	; 1
     b84:	99 23       	and	r25, r25
     b86:	09 f4       	brne	.+2      	; 0xb8a <_Z15i2c_device_readhhPhh+0xee>
     b88:	80 e0       	ldi	r24, 0x00	; 0
     b8a:	88 23       	and	r24, r24
     b8c:	d1 f2       	breq	.-76     	; 0xb42 <_Z15i2c_device_readhhPhh+0xa6>
				{
					return(TRUE);
     b8e:	81 e0       	ldi	r24, 0x01	; 1
     b90:	1b c0       	rjmp	.+54     	; 0xbc8 <_Z15i2c_device_readhhPhh+0x12c>
				}
			}
			else
			{
				data[index] = i2c_read_nack();
     b92:	89 81       	ldd	r24, Y+1	; 0x01
     b94:	88 2f       	mov	r24, r24
     b96:	90 e0       	ldi	r25, 0x00	; 0
     b98:	2c 81       	ldd	r18, Y+4	; 0x04
     b9a:	3d 81       	ldd	r19, Y+5	; 0x05
     b9c:	89 01       	movw	r16, r18
     b9e:	08 0f       	add	r16, r24
     ba0:	19 1f       	adc	r17, r25
     ba2:	0e 94 cd 04 	call	0x99a	; 0x99a <_Z13i2c_read_nackv>
     ba6:	f8 01       	movw	r30, r16
     ba8:	80 83       	st	Z, r24
				if(i2c_status(TW_MR_DATA_NACK))
     baa:	88 e5       	ldi	r24, 0x58	; 88
     bac:	0e 94 dc 04 	call	0x9b8	; 0x9b8 <_Z10i2c_statush>
     bb0:	98 2f       	mov	r25, r24
     bb2:	81 e0       	ldi	r24, 0x01	; 1
     bb4:	99 23       	and	r25, r25
     bb6:	09 f4       	brne	.+2      	; 0xbba <_Z15i2c_device_readhhPhh+0x11e>
     bb8:	80 e0       	ldi	r24, 0x00	; 0
     bba:	88 23       	and	r24, r24
     bbc:	11 f2       	breq	.-124    	; 0xb42 <_Z15i2c_device_readhhPhh+0xa6>
				{
					return(TRUE);
     bbe:	81 e0       	ldi	r24, 0x01	; 1
     bc0:	03 c0       	rjmp	.+6      	; 0xbc8 <_Z15i2c_device_readhhPhh+0x12c>
				}
			}
		}

		i2c_stop();
     bc2:	0e 94 9d 04 	call	0x93a	; 0x93a <_Z8i2c_stopv>

		#endif  /* #ifndef DEBUG_WITHOUT_I2C */

	return(FALSE);
     bc6:	80 e0       	ldi	r24, 0x00	; 0
}
     bc8:	26 96       	adiw	r28, 0x06	; 6
     bca:	0f b6       	in	r0, 0x3f	; 63
     bcc:	f8 94       	cli
     bce:	de bf       	out	0x3e, r29	; 62
     bd0:	0f be       	out	0x3f, r0	; 63
     bd2:	cd bf       	out	0x3d, r28	; 61
     bd4:	df 91       	pop	r29
     bd6:	cf 91       	pop	r28
     bd8:	1f 91       	pop	r17
     bda:	0f 91       	pop	r16
     bdc:	08 95       	ret

00000bde <_Z16nextFullTxBufferv>:

void lb_send_value(uint16_t value, char* label)
{
	sprintf(g_tempMsgBuff, "> %s=%d%s", label, value, lineTerm);
	linkbus_send_text(g_tempMsgBuff);
}
     bde:	80 91 a6 03 	lds	r24, 0x03A6	; 0x8003a6 <_ZZ16nextFullTxBuffervE11bufferIndex>
     be2:	94 e0       	ldi	r25, 0x04	; 4
     be4:	59 e2       	ldi	r21, 0x29	; 41
     be6:	28 2f       	mov	r18, r24
     be8:	30 e0       	ldi	r19, 0x00	; 0
     bea:	52 9f       	mul	r21, r18
     bec:	f0 01       	movw	r30, r0
     bee:	53 9f       	mul	r21, r19
     bf0:	f0 0d       	add	r31, r0
     bf2:	11 24       	eor	r1, r1
     bf4:	eb 5d       	subi	r30, 0xDB	; 219
     bf6:	fb 4f       	sbci	r31, 0xFB	; 251
     bf8:	40 81       	ld	r20, Z
     bfa:	41 11       	cpse	r20, r1
     bfc:	0c c0       	rjmp	.+24     	; 0xc16 <_Z16nextFullTxBufferv+0x38>
     bfe:	91 50       	subi	r25, 0x01	; 1
     c00:	29 f0       	breq	.+10     	; 0xc0c <_Z16nextFullTxBufferv+0x2e>
     c02:	8f 5f       	subi	r24, 0xFF	; 255
     c04:	84 30       	cpi	r24, 0x04	; 4
     c06:	78 f3       	brcs	.-34     	; 0xbe6 <_Z16nextFullTxBufferv+0x8>
     c08:	80 e0       	ldi	r24, 0x00	; 0
     c0a:	ed cf       	rjmp	.-38     	; 0xbe6 <_Z16nextFullTxBufferv+0x8>
     c0c:	80 93 a6 03 	sts	0x03A6, r24	; 0x8003a6 <_ZZ16nextFullTxBuffervE11bufferIndex>
     c10:	80 e0       	ldi	r24, 0x00	; 0
     c12:	90 e0       	ldi	r25, 0x00	; 0
     c14:	08 95       	ret
     c16:	80 93 a6 03 	sts	0x03A6, r24	; 0x8003a6 <_ZZ16nextFullTxBuffervE11bufferIndex>
     c1a:	49 e2       	ldi	r20, 0x29	; 41
     c1c:	42 9f       	mul	r20, r18
     c1e:	c0 01       	movw	r24, r0
     c20:	43 9f       	mul	r20, r19
     c22:	90 0d       	add	r25, r0
     c24:	11 24       	eor	r1, r1
     c26:	8b 5d       	subi	r24, 0xDB	; 219
     c28:	9b 4f       	sbci	r25, 0xFB	; 251
     c2a:	08 95       	ret

00000c2c <_Z17nextEmptyTxBufferv>:
     c2c:	80 91 a5 03 	lds	r24, 0x03A5	; 0x8003a5 <_ZZ17nextEmptyTxBuffervE11bufferIndex>
     c30:	94 e0       	ldi	r25, 0x04	; 4
     c32:	59 e2       	ldi	r21, 0x29	; 41
     c34:	28 2f       	mov	r18, r24
     c36:	30 e0       	ldi	r19, 0x00	; 0
     c38:	52 9f       	mul	r21, r18
     c3a:	f0 01       	movw	r30, r0
     c3c:	53 9f       	mul	r21, r19
     c3e:	f0 0d       	add	r31, r0
     c40:	11 24       	eor	r1, r1
     c42:	eb 5d       	subi	r30, 0xDB	; 219
     c44:	fb 4f       	sbci	r31, 0xFB	; 251
     c46:	40 81       	ld	r20, Z
     c48:	44 23       	and	r20, r20
     c4a:	61 f0       	breq	.+24     	; 0xc64 <_Z17nextEmptyTxBufferv+0x38>
     c4c:	91 50       	subi	r25, 0x01	; 1
     c4e:	29 f0       	breq	.+10     	; 0xc5a <_Z17nextEmptyTxBufferv+0x2e>
     c50:	8f 5f       	subi	r24, 0xFF	; 255
     c52:	84 30       	cpi	r24, 0x04	; 4
     c54:	78 f3       	brcs	.-34     	; 0xc34 <_Z17nextEmptyTxBufferv+0x8>
     c56:	80 e0       	ldi	r24, 0x00	; 0
     c58:	ed cf       	rjmp	.-38     	; 0xc34 <_Z17nextEmptyTxBufferv+0x8>
     c5a:	80 93 a5 03 	sts	0x03A5, r24	; 0x8003a5 <_ZZ17nextEmptyTxBuffervE11bufferIndex>
     c5e:	80 e0       	ldi	r24, 0x00	; 0
     c60:	90 e0       	ldi	r25, 0x00	; 0
     c62:	08 95       	ret
     c64:	80 93 a5 03 	sts	0x03A5, r24	; 0x8003a5 <_ZZ17nextEmptyTxBuffervE11bufferIndex>
     c68:	49 e2       	ldi	r20, 0x29	; 41
     c6a:	42 9f       	mul	r20, r18
     c6c:	c0 01       	movw	r24, r0
     c6e:	43 9f       	mul	r20, r19
     c70:	90 0d       	add	r25, r0
     c72:	11 24       	eor	r1, r1
     c74:	8b 5d       	subi	r24, 0xDB	; 219
     c76:	9b 4f       	sbci	r25, 0xFB	; 251
     c78:	08 95       	ret

00000c7a <_Z17nextEmptyRxBufferv>:
     c7a:	80 91 a4 03 	lds	r24, 0x03A4	; 0x8003a4 <_ZZ17nextEmptyRxBuffervE11bufferIndex>
     c7e:	28 2f       	mov	r18, r24
     c80:	30 e0       	ldi	r19, 0x00	; 0
     c82:	9f e3       	ldi	r25, 0x3F	; 63
     c84:	89 9f       	mul	r24, r25
     c86:	f0 01       	movw	r30, r0
     c88:	11 24       	eor	r1, r1
     c8a:	e9 55       	subi	r30, 0x59	; 89
     c8c:	fc 4f       	sbci	r31, 0xFC	; 252
     c8e:	41 81       	ldd	r20, Z+1	; 0x01
     c90:	52 81       	ldd	r21, Z+2	; 0x02
     c92:	45 2b       	or	r20, r21
     c94:	a9 f0       	breq	.+42     	; 0xcc0 <_Z17nextEmptyRxBufferv+0x46>
     c96:	8f 5f       	subi	r24, 0xFF	; 255
     c98:	82 30       	cpi	r24, 0x02	; 2
     c9a:	08 f0       	brcs	.+2      	; 0xc9e <_Z17nextEmptyRxBufferv+0x24>
     c9c:	80 e0       	ldi	r24, 0x00	; 0
     c9e:	28 2f       	mov	r18, r24
     ca0:	30 e0       	ldi	r19, 0x00	; 0
     ca2:	9f e3       	ldi	r25, 0x3F	; 63
     ca4:	89 9f       	mul	r24, r25
     ca6:	f0 01       	movw	r30, r0
     ca8:	11 24       	eor	r1, r1
     caa:	e9 55       	subi	r30, 0x59	; 89
     cac:	fc 4f       	sbci	r31, 0xFC	; 252
     cae:	41 81       	ldd	r20, Z+1	; 0x01
     cb0:	52 81       	ldd	r21, Z+2	; 0x02
     cb2:	45 2b       	or	r20, r21
     cb4:	29 f0       	breq	.+10     	; 0xcc0 <_Z17nextEmptyRxBufferv+0x46>
     cb6:	80 93 a4 03 	sts	0x03A4, r24	; 0x8003a4 <_ZZ17nextEmptyRxBuffervE11bufferIndex>
     cba:	80 e0       	ldi	r24, 0x00	; 0
     cbc:	90 e0       	ldi	r25, 0x00	; 0
     cbe:	08 95       	ret
     cc0:	80 93 a4 03 	sts	0x03A4, r24	; 0x8003a4 <_ZZ17nextEmptyRxBuffervE11bufferIndex>
     cc4:	4f e3       	ldi	r20, 0x3F	; 63
     cc6:	42 9f       	mul	r20, r18
     cc8:	c0 01       	movw	r24, r0
     cca:	43 9f       	mul	r20, r19
     ccc:	90 0d       	add	r25, r0
     cce:	11 24       	eor	r1, r1
     cd0:	89 55       	subi	r24, 0x59	; 89
     cd2:	9c 4f       	sbci	r25, 0xFC	; 252
     cd4:	08 95       	ret

00000cd6 <_Z16nextFullRxBufferv>:
     cd6:	80 91 a3 03 	lds	r24, 0x03A3	; 0x8003a3 <_ZZ16nextFullRxBuffervE11bufferIndex>
     cda:	28 2f       	mov	r18, r24
     cdc:	30 e0       	ldi	r19, 0x00	; 0
     cde:	9f e3       	ldi	r25, 0x3F	; 63
     ce0:	89 9f       	mul	r24, r25
     ce2:	f0 01       	movw	r30, r0
     ce4:	11 24       	eor	r1, r1
     ce6:	e9 55       	subi	r30, 0x59	; 89
     ce8:	fc 4f       	sbci	r31, 0xFC	; 252
     cea:	41 81       	ldd	r20, Z+1	; 0x01
     cec:	52 81       	ldd	r21, Z+2	; 0x02
     cee:	45 2b       	or	r20, r21
     cf0:	a9 f4       	brne	.+42     	; 0xd1c <_Z16nextFullRxBufferv+0x46>
     cf2:	8f 5f       	subi	r24, 0xFF	; 255
     cf4:	82 30       	cpi	r24, 0x02	; 2
     cf6:	08 f0       	brcs	.+2      	; 0xcfa <_Z16nextFullRxBufferv+0x24>
     cf8:	80 e0       	ldi	r24, 0x00	; 0
     cfa:	28 2f       	mov	r18, r24
     cfc:	30 e0       	ldi	r19, 0x00	; 0
     cfe:	9f e3       	ldi	r25, 0x3F	; 63
     d00:	89 9f       	mul	r24, r25
     d02:	f0 01       	movw	r30, r0
     d04:	11 24       	eor	r1, r1
     d06:	e9 55       	subi	r30, 0x59	; 89
     d08:	fc 4f       	sbci	r31, 0xFC	; 252
     d0a:	41 81       	ldd	r20, Z+1	; 0x01
     d0c:	52 81       	ldd	r21, Z+2	; 0x02
     d0e:	45 2b       	or	r20, r21
     d10:	29 f4       	brne	.+10     	; 0xd1c <_Z16nextFullRxBufferv+0x46>
     d12:	80 93 a3 03 	sts	0x03A3, r24	; 0x8003a3 <_ZZ16nextFullRxBuffervE11bufferIndex>
     d16:	80 e0       	ldi	r24, 0x00	; 0
     d18:	90 e0       	ldi	r25, 0x00	; 0
     d1a:	08 95       	ret
     d1c:	80 93 a3 03 	sts	0x03A3, r24	; 0x8003a3 <_ZZ16nextFullRxBuffervE11bufferIndex>
     d20:	4f e3       	ldi	r20, 0x3F	; 63
     d22:	42 9f       	mul	r20, r18
     d24:	c0 01       	movw	r24, r0
     d26:	43 9f       	mul	r20, r19
     d28:	90 0d       	add	r25, r0
     d2a:	11 24       	eor	r1, r1
     d2c:	89 55       	subi	r24, 0x59	; 89
     d2e:	9c 4f       	sbci	r25, 0xFC	; 252
     d30:	08 95       	ret

00000d32 <_Z19linkbusTxInProgressv>:
     d32:	80 91 c9 04 	lds	r24, 0x04C9	; 0x8004c9 <_ZL17linkbus_tx_active>
     d36:	08 95       	ret

00000d38 <_Z16linkbus_start_txv>:
     d38:	90 91 c9 04 	lds	r25, 0x04C9	; 0x8004c9 <_ZL17linkbus_tx_active>
     d3c:	81 e0       	ldi	r24, 0x01	; 1
     d3e:	91 11       	cpse	r25, r1
     d40:	80 e0       	ldi	r24, 0x00	; 0
     d42:	91 11       	cpse	r25, r1
     d44:	08 c0       	rjmp	.+16     	; 0xd56 <_Z16linkbus_start_txv+0x1e>
     d46:	91 e0       	ldi	r25, 0x01	; 1
     d48:	90 93 c9 04 	sts	0x04C9, r25	; 0x8004c9 <_ZL17linkbus_tx_active>
     d4c:	e1 ec       	ldi	r30, 0xC1	; 193
     d4e:	f0 e0       	ldi	r31, 0x00	; 0
     d50:	90 81       	ld	r25, Z
     d52:	90 62       	ori	r25, 0x20	; 32
     d54:	90 83       	st	Z, r25
     d56:	08 95       	ret

00000d58 <_Z14linkbus_end_txv>:
     d58:	80 91 c9 04 	lds	r24, 0x04C9	; 0x8004c9 <_ZL17linkbus_tx_active>
     d5c:	88 23       	and	r24, r24
     d5e:	39 f0       	breq	.+14     	; 0xd6e <_Z14linkbus_end_txv+0x16>
     d60:	e1 ec       	ldi	r30, 0xC1	; 193
     d62:	f0 e0       	ldi	r31, 0x00	; 0
     d64:	80 81       	ld	r24, Z
     d66:	8f 7d       	andi	r24, 0xDF	; 223
     d68:	80 83       	st	Z, r24
     d6a:	10 92 c9 04 	sts	0x04C9, r1	; 0x8004c9 <_ZL17linkbus_tx_active>
     d6e:	08 95       	ret

00000d70 <_Z12linkbus_initm>:
     d70:	9b 01       	movw	r18, r22
     d72:	ac 01       	movw	r20, r24
     d74:	8e e7       	ldi	r24, 0x7E	; 126
     d76:	e7 ea       	ldi	r30, 0xA7	; 167
     d78:	f3 e0       	ldi	r31, 0x03	; 3
     d7a:	df 01       	movw	r26, r30
     d7c:	1d 92       	st	X+, r1
     d7e:	8a 95       	dec	r24
     d80:	e9 f7       	brne	.-6      	; 0xd7c <_Z12linkbus_initm+0xc>
     d82:	e5 e2       	ldi	r30, 0x25	; 37
     d84:	f4 e0       	ldi	r31, 0x04	; 4
     d86:	10 82       	st	Z, r1
     d88:	11 a6       	std	Z+41, r1	; 0x29
     d8a:	10 92 77 04 	sts	0x0477, r1	; 0x800477 <_ZL9tx_buffer+0x52>
     d8e:	10 92 a0 04 	sts	0x04A0, r1	; 0x8004a0 <_ZL9tx_buffer+0x7b>
     d92:	60 e4       	ldi	r22, 0x40	; 64
     d94:	72 e4       	ldi	r23, 0x42	; 66
     d96:	8f e0       	ldi	r24, 0x0F	; 15
     d98:	90 e0       	ldi	r25, 0x00	; 0
     d9a:	0e 94 4e 28 	call	0x509c	; 0x509c <__udivmodsi4>
     d9e:	21 50       	subi	r18, 0x01	; 1
     da0:	31 09       	sbc	r19, r1
     da2:	30 93 c5 00 	sts	0x00C5, r19	; 0x8000c5 <__TEXT_REGION_LENGTH__+0x7f80c5>
     da6:	20 93 c4 00 	sts	0x00C4, r18	; 0x8000c4 <__TEXT_REGION_LENGTH__+0x7f80c4>
     daa:	88 e9       	ldi	r24, 0x98	; 152
     dac:	80 93 c1 00 	sts	0x00C1, r24	; 0x8000c1 <__TEXT_REGION_LENGTH__+0x7f80c1>
     db0:	8e e0       	ldi	r24, 0x0E	; 14
     db2:	80 93 c2 00 	sts	0x00C2, r24	; 0x8000c2 <__TEXT_REGION_LENGTH__+0x7f80c2>
     db6:	10 92 07 01 	sts	0x0107, r1	; 0x800107 <_ZL14g_bus_disabled>
     dba:	08 95       	ret

00000dbc <_Z17linkbus_send_textPc>:
     dbc:	0f 93       	push	r16
     dbe:	1f 93       	push	r17
     dc0:	cf 93       	push	r28
     dc2:	df 93       	push	r29
     dc4:	20 91 07 01 	lds	r18, 0x0107	; 0x800107 <_ZL14g_bus_disabled>
     dc8:	21 11       	cpse	r18, r1
     dca:	14 c0       	rjmp	.+40     	; 0xdf4 <_Z17linkbus_send_textPc+0x38>
     dcc:	00 97       	sbiw	r24, 0x00	; 0
     dce:	a1 f0       	breq	.+40     	; 0xdf8 <_Z17linkbus_send_textPc+0x3c>
     dd0:	8c 01       	movw	r16, r24
     dd2:	0e 94 16 06 	call	0xc2c	; 0xc2c <_Z17nextEmptyTxBufferv>
     dd6:	00 97       	sbiw	r24, 0x00	; 0
     dd8:	b9 f4       	brne	.+46     	; 0xe08 <_Z17linkbus_send_textPc+0x4c>
     dda:	c8 ec       	ldi	r28, 0xC8	; 200
     ddc:	d0 e0       	ldi	r29, 0x00	; 0
     dde:	02 c0       	rjmp	.+4      	; 0xde4 <_Z17linkbus_send_textPc+0x28>
     de0:	20 97       	sbiw	r28, 0x00	; 0
     de2:	61 f0       	breq	.+24     	; 0xdfc <_Z17linkbus_send_textPc+0x40>
     de4:	90 91 c9 04 	lds	r25, 0x04C9	; 0x8004c9 <_ZL17linkbus_tx_active>
     de8:	99 23       	and	r25, r25
     dea:	51 f0       	breq	.+20     	; 0xe00 <_Z17linkbus_send_textPc+0x44>
     dec:	20 97       	sbiw	r28, 0x00	; 0
     dee:	d1 f0       	breq	.+52     	; 0xe24 <_Z17linkbus_send_textPc+0x68>
     df0:	21 97       	sbiw	r28, 0x01	; 1
     df2:	f8 cf       	rjmp	.-16     	; 0xde4 <_Z17linkbus_send_textPc+0x28>
     df4:	81 e0       	ldi	r24, 0x01	; 1
     df6:	1b c0       	rjmp	.+54     	; 0xe2e <_Z17linkbus_send_textPc+0x72>
     df8:	81 e0       	ldi	r24, 0x01	; 1
     dfa:	19 c0       	rjmp	.+50     	; 0xe2e <_Z17linkbus_send_textPc+0x72>
     dfc:	81 e0       	ldi	r24, 0x01	; 1
     dfe:	17 c0       	rjmp	.+46     	; 0xe2e <_Z17linkbus_send_textPc+0x72>
     e00:	0e 94 16 06 	call	0xc2c	; 0xc2c <_Z17nextEmptyTxBufferv>
     e04:	00 97       	sbiw	r24, 0x00	; 0
     e06:	61 f3       	breq	.-40     	; 0xde0 <_Z17linkbus_send_textPc+0x24>
     e08:	1f 93       	push	r17
     e0a:	0f 93       	push	r16
     e0c:	9f 93       	push	r25
     e0e:	8f 93       	push	r24
     e10:	0e 94 6a 2a 	call	0x54d4	; 0x54d4 <sprintf>
     e14:	0e 94 9c 06 	call	0xd38	; 0xd38 <_Z16linkbus_start_txv>
     e18:	0f 90       	pop	r0
     e1a:	0f 90       	pop	r0
     e1c:	0f 90       	pop	r0
     e1e:	0f 90       	pop	r0
     e20:	80 e0       	ldi	r24, 0x00	; 0
     e22:	05 c0       	rjmp	.+10     	; 0xe2e <_Z17linkbus_send_textPc+0x72>
     e24:	0e 94 16 06 	call	0xc2c	; 0xc2c <_Z17nextEmptyTxBufferv>
     e28:	00 97       	sbiw	r24, 0x00	; 0
     e2a:	71 f7       	brne	.-36     	; 0xe08 <_Z17linkbus_send_textPc+0x4c>
     e2c:	81 e0       	ldi	r24, 0x01	; 1
     e2e:	df 91       	pop	r29
     e30:	cf 91       	pop	r28
     e32:	1f 91       	pop	r17
     e34:	0f 91       	pop	r16
     e36:	08 95       	ret

00000e38 <_Z17lb_send_NewPromptv>:
     e38:	83 e2       	ldi	r24, 0x23	; 35
     e3a:	91 e0       	ldi	r25, 0x01	; 1
     e3c:	0e 94 de 06 	call	0xdbc	; 0xdbc <_Z17linkbus_send_textPc>
     e40:	81 11       	cpse	r24, r1
     e42:	fa cf       	rjmp	.-12     	; 0xe38 <_Z17lb_send_NewPromptv>
     e44:	08 95       	ret

00000e46 <_Z15lb_send_NewLinev>:
     e46:	86 e2       	ldi	r24, 0x26	; 38
     e48:	91 e0       	ldi	r25, 0x01	; 1
     e4a:	0e 94 de 06 	call	0xdbc	; 0xdbc <_Z17linkbus_send_textPc>
     e4e:	08 95       	ret

00000e50 <_Z12lb_echo_charh>:
     e50:	ea ec       	ldi	r30, 0xCA	; 202
     e52:	f4 e0       	ldi	r31, 0x04	; 4
     e54:	80 83       	st	Z, r24
     e56:	11 82       	std	Z+1, r1	; 0x01
     e58:	cf 01       	movw	r24, r30
     e5a:	0e 94 de 06 	call	0xdbc	; 0xdbc <_Z17linkbus_send_textPc>
     e5e:	08 95       	ret

00000e60 <_Z14lb_send_stringPch>:
     e60:	cf 93       	push	r28
     e62:	00 97       	sbiw	r24, 0x00	; 0
     e64:	19 f1       	breq	.+70     	; 0xeac <_Z14lb_send_stringPch+0x4c>
     e66:	fc 01       	movw	r30, r24
     e68:	01 90       	ld	r0, Z+
     e6a:	00 20       	and	r0, r0
     e6c:	e9 f7       	brne	.-6      	; 0xe68 <_Z14lb_send_stringPch+0x8>
     e6e:	31 97       	sbiw	r30, 0x01	; 1
     e70:	e8 1b       	sub	r30, r24
     e72:	f9 0b       	sbc	r31, r25
     e74:	ba 97       	sbiw	r30, 0x2a	; 42
     e76:	e0 f4       	brcc	.+56     	; 0xeb0 <_Z14lb_send_stringPch+0x50>
     e78:	c6 2f       	mov	r28, r22
     e7a:	bc 01       	movw	r22, r24
     e7c:	49 e2       	ldi	r20, 0x29	; 41
     e7e:	50 e0       	ldi	r21, 0x00	; 0
     e80:	8a ec       	ldi	r24, 0xCA	; 202
     e82:	94 e0       	ldi	r25, 0x04	; 4
     e84:	0e 94 3e 2a 	call	0x547c	; 0x547c <strncpy>
     e88:	cc 23       	and	r28, r28
     e8a:	59 f0       	breq	.+22     	; 0xea2 <_Z14lb_send_stringPch+0x42>
     e8c:	8a ec       	ldi	r24, 0xCA	; 202
     e8e:	94 e0       	ldi	r25, 0x04	; 4
     e90:	0e 94 de 06 	call	0xdbc	; 0xdbc <_Z17linkbus_send_textPc>
     e94:	81 11       	cpse	r24, r1
     e96:	fa cf       	rjmp	.-12     	; 0xe8c <_Z14lb_send_stringPch+0x2c>
     e98:	80 91 c9 04 	lds	r24, 0x04C9	; 0x8004c9 <_ZL17linkbus_tx_active>
     e9c:	81 11       	cpse	r24, r1
     e9e:	fc cf       	rjmp	.-8      	; 0xe98 <_Z14lb_send_stringPch+0x38>
     ea0:	08 c0       	rjmp	.+16     	; 0xeb2 <_Z14lb_send_stringPch+0x52>
     ea2:	8a ec       	ldi	r24, 0xCA	; 202
     ea4:	94 e0       	ldi	r25, 0x04	; 4
     ea6:	0e 94 de 06 	call	0xdbc	; 0xdbc <_Z17linkbus_send_textPc>
     eaa:	03 c0       	rjmp	.+6      	; 0xeb2 <_Z14lb_send_stringPch+0x52>
     eac:	81 e0       	ldi	r24, 0x01	; 1
     eae:	01 c0       	rjmp	.+2      	; 0xeb2 <_Z14lb_send_stringPch+0x52>
     eb0:	81 e0       	ldi	r24, 0x01	; 1
     eb2:	cf 91       	pop	r28
     eb4:	08 95       	ret

00000eb6 <_Z12lb_send_Helpv>:
/***********************************************************************
 * lb_send_Help(void)
 ************************************************************************/
void lb_send_Help(void)
{
	if(g_bus_disabled)
     eb6:	80 91 07 01 	lds	r24, 0x0107	; 0x800107 <_ZL14g_bus_disabled>
     eba:	81 11       	cpse	r24, r1
     ebc:	10 c0       	rjmp	.+32     	; 0xede <_Z12lb_send_Helpv+0x28>
	{
		return;
	}

	lb_send_NewLine();
     ebe:	0e 94 23 07 	call	0xe46	; 0xe46 <_Z15lb_send_NewLinev>
	sendEEPROMString(&ee_textVersion[0]);
     ec2:	80 e7       	ldi	r24, 0x70	; 112
     ec4:	91 e0       	ldi	r25, 0x01	; 1
     ec6:	0e 94 82 02 	call	0x504	; 0x504 <_Z16sendEEPROMStringPc>
	lb_send_NewLine();
     eca:	0e 94 23 07 	call	0xe46	; 0xe46 <_Z15lb_send_NewLinev>
	sendEEPROMString(&ee_textHelp[0]);
     ece:	85 e7       	ldi	r24, 0x75	; 117
     ed0:	90 e0       	ldi	r25, 0x00	; 0
     ed2:	0e 94 82 02 	call	0x504	; 0x504 <_Z16sendEEPROMStringPc>
	lb_send_NewLine();
     ed6:	0e 94 23 07 	call	0xe46	; 0xe46 <_Z15lb_send_NewLinev>
	lb_send_NewLine();
     eda:	0e 94 23 07 	call	0xe46	; 0xe46 <_Z15lb_send_NewLinev>
     ede:	08 95       	ret

00000ee0 <__vector_21>:
		g_audio_tone_state = ON;
	}
	else
	{
		OCR0A = DEFAULT_TONE_FREQUENCY;
		g_audio_tone_state = OFF;
     ee0:	1f 92       	push	r1
     ee2:	0f 92       	push	r0
     ee4:	0f b6       	in	r0, 0x3f	; 63
     ee6:	0f 92       	push	r0
     ee8:	11 24       	eor	r1, r1
     eea:	2f 93       	push	r18
     eec:	3f 93       	push	r19
     eee:	4f 93       	push	r20
     ef0:	5f 93       	push	r21
     ef2:	6f 93       	push	r22
     ef4:	7f 93       	push	r23
     ef6:	8f 93       	push	r24
     ef8:	9f 93       	push	r25
     efa:	af 93       	push	r26
     efc:	bf 93       	push	r27
     efe:	ef 93       	push	r30
     f00:	ff 93       	push	r31
     f02:	61 e0       	ldi	r22, 0x01	; 1
     f04:	8b e0       	ldi	r24, 0x0B	; 11
     f06:	0e 94 2f 02 	call	0x45e	; 0x45e <_Z12digitalWritehh>
     f0a:	60 91 79 00 	lds	r22, 0x0079	; 0x800079 <__TEXT_REGION_LENGTH__+0x7f8079>
     f0e:	70 e0       	ldi	r23, 0x00	; 0
     f10:	8a e9       	ldi	r24, 0x9A	; 154
     f12:	95 e0       	ldi	r25, 0x05	; 5
     f14:	0e 94 bf 03 	call	0x77e	; 0x77e <_ZN8Goertzel9DataPointEi>
     f18:	88 23       	and	r24, r24
     f1a:	29 f0       	breq	.+10     	; 0xf26 <__vector_21+0x46>
     f1c:	ea e7       	ldi	r30, 0x7A	; 122
     f1e:	f0 e0       	ldi	r31, 0x00	; 0
     f20:	80 81       	ld	r24, Z
     f22:	87 7f       	andi	r24, 0xF7	; 247
     f24:	80 83       	st	Z, r24
     f26:	60 e0       	ldi	r22, 0x00	; 0
     f28:	8b e0       	ldi	r24, 0x0B	; 11
     f2a:	0e 94 2f 02 	call	0x45e	; 0x45e <_Z12digitalWritehh>
     f2e:	ff 91       	pop	r31
     f30:	ef 91       	pop	r30
     f32:	bf 91       	pop	r27
     f34:	af 91       	pop	r26
     f36:	9f 91       	pop	r25
     f38:	8f 91       	pop	r24
     f3a:	7f 91       	pop	r23
     f3c:	6f 91       	pop	r22
     f3e:	5f 91       	pop	r21
     f40:	4f 91       	pop	r20
     f42:	3f 91       	pop	r19
     f44:	2f 91       	pop	r18
     f46:	0f 90       	pop	r0
     f48:	0f be       	out	0x3f, r0	; 63
     f4a:	0f 90       	pop	r0
     f4c:	1f 90       	pop	r1
     f4e:	18 95       	reti

00000f50 <__vector_18>:
     f50:	1f 92       	push	r1
     f52:	0f 92       	push	r0
     f54:	0f b6       	in	r0, 0x3f	; 63
     f56:	0f 92       	push	r0
     f58:	11 24       	eor	r1, r1
     f5a:	1f 93       	push	r17
     f5c:	2f 93       	push	r18
     f5e:	3f 93       	push	r19
     f60:	4f 93       	push	r20
     f62:	5f 93       	push	r21
     f64:	6f 93       	push	r22
     f66:	7f 93       	push	r23
     f68:	8f 93       	push	r24
     f6a:	9f 93       	push	r25
     f6c:	af 93       	push	r26
     f6e:	bf 93       	push	r27
     f70:	cf 93       	push	r28
     f72:	df 93       	push	r29
     f74:	ef 93       	push	r30
     f76:	ff 93       	push	r31
     f78:	10 91 c6 00 	lds	r17, 0x00C6	; 0x8000c6 <__TEXT_REGION_LENGTH__+0x7f80c6>
     f7c:	c0 91 6f 05 	lds	r28, 0x056F	; 0x80056f <_ZZ11__vector_18E4buff>
     f80:	d0 91 70 05 	lds	r29, 0x0570	; 0x800570 <_ZZ11__vector_18E4buff+0x1>
     f84:	20 97       	sbiw	r28, 0x00	; 0
     f86:	51 f4       	brne	.+20     	; 0xf9c <__vector_18+0x4c>
     f88:	0e 94 3d 06 	call	0xc7a	; 0xc7a <_Z17nextEmptyRxBufferv>
     f8c:	ec 01       	movw	r28, r24
     f8e:	90 93 70 05 	sts	0x0570, r25	; 0x800570 <_ZZ11__vector_18E4buff+0x1>
     f92:	80 93 6f 05 	sts	0x056F, r24	; 0x80056f <_ZZ11__vector_18E4buff>
     f96:	89 2b       	or	r24, r25
     f98:	09 f4       	brne	.+2      	; 0xf9c <__vector_18+0x4c>
     f9a:	62 c1       	rjmp	.+708    	; 0x1260 <__vector_18+0x310>
     f9c:	81 2f       	mov	r24, r17
     f9e:	90 e0       	ldi	r25, 0x00	; 0
     fa0:	0e 94 24 2a 	call	0x5448	; 0x5448 <toupper>
     fa4:	9c 01       	movw	r18, r24
     fa6:	80 91 6e 05 	lds	r24, 0x056E	; 0x80056e <_ZZ11__vector_18E11ignoreCount>
     faa:	88 23       	and	r24, r24
     fac:	21 f0       	breq	.+8      	; 0xfb6 <__vector_18+0x66>
     fae:	81 50       	subi	r24, 0x01	; 1
     fb0:	80 93 6e 05 	sts	0x056E, r24	; 0x80056e <_ZZ11__vector_18E11ignoreCount>
     fb4:	55 c1       	rjmp	.+682    	; 0x1260 <__vector_18+0x310>
     fb6:	2b 31       	cpi	r18, 0x1B	; 27
     fb8:	21 f4       	brne	.+8      	; 0xfc2 <__vector_18+0x72>
     fba:	82 e0       	ldi	r24, 0x02	; 2
     fbc:	80 93 6e 05 	sts	0x056E, r24	; 0x80056e <_ZZ11__vector_18E11ignoreCount>
     fc0:	4f c1       	rjmp	.+670    	; 0x1260 <__vector_18+0x310>
     fc2:	2d 30       	cpi	r18, 0x0D	; 13
     fc4:	09 f0       	breq	.+2      	; 0xfc8 <__vector_18+0x78>
     fc6:	3f c0       	rjmp	.+126    	; 0x1046 <__vector_18+0xf6>
     fc8:	80 91 2d 05 	lds	r24, 0x052D	; 0x80052d <_ZZ11__vector_18E13receiving_msg>
     fcc:	88 23       	and	r24, r24
     fce:	31 f1       	breq	.+76     	; 0x101c <__vector_18+0xcc>
     fd0:	e0 91 6d 05 	lds	r30, 0x056D	; 0x80056d <_ZZ11__vector_18E9charIndex>
     fd4:	ee 23       	and	r30, r30
     fd6:	f9 f0       	breq	.+62     	; 0x1016 <__vector_18+0xc6>
     fd8:	82 e0       	ldi	r24, 0x02	; 2
     fda:	88 83       	st	Y, r24
     fdc:	80 91 2b 05 	lds	r24, 0x052B	; 0x80052b <_ZZ11__vector_18E6msg_ID>
     fe0:	90 91 2c 05 	lds	r25, 0x052C	; 0x80052c <_ZZ11__vector_18E6msg_ID+0x1>
     fe4:	9a 83       	std	Y+2, r25	; 0x02
     fe6:	89 83       	std	Y+1, r24	; 0x01
     fe8:	80 91 2a 05 	lds	r24, 0x052A	; 0x80052a <_ZZ11__vector_18E11field_index>
     fec:	88 23       	and	r24, r24
     fee:	79 f0       	breq	.+30     	; 0x100e <__vector_18+0xbe>
     ff0:	90 e0       	ldi	r25, 0x00	; 0
     ff2:	01 97       	sbiw	r24, 0x01	; 1
     ff4:	40 91 29 05 	lds	r20, 0x0529	; 0x800529 <_ZZ11__vector_18E9field_len>
     ff8:	54 e1       	ldi	r21, 0x14	; 20
     ffa:	58 9f       	mul	r21, r24
     ffc:	90 01       	movw	r18, r0
     ffe:	59 9f       	mul	r21, r25
    1000:	30 0d       	add	r19, r0
    1002:	11 24       	eor	r1, r1
    1004:	c2 0f       	add	r28, r18
    1006:	d3 1f       	adc	r29, r19
    1008:	c4 0f       	add	r28, r20
    100a:	d1 1d       	adc	r29, r1
    100c:	1b 82       	std	Y+3, r1	; 0x03
    100e:	f0 e0       	ldi	r31, 0x00	; 0
    1010:	e2 5d       	subi	r30, 0xD2	; 210
    1012:	fa 4f       	sbci	r31, 0xFA	; 250
    1014:	10 82       	st	Z, r1
    1016:	0e 94 23 07 	call	0xe46	; 0xe46 <_Z15lb_send_NewLinev>
    101a:	04 c0       	rjmp	.+8      	; 0x1024 <__vector_18+0xd4>
    101c:	8f ef       	ldi	r24, 0xFF	; 255
    101e:	9f e7       	ldi	r25, 0x7F	; 127
    1020:	9a 83       	std	Y+2, r25	; 0x02
    1022:	89 83       	std	Y+1, r24	; 0x01
    1024:	10 92 6d 05 	sts	0x056D, r1	; 0x80056d <_ZZ11__vector_18E9charIndex>
    1028:	10 92 29 05 	sts	0x0529, r1	; 0x800529 <_ZZ11__vector_18E9field_len>
    102c:	10 92 2c 05 	sts	0x052C, r1	; 0x80052c <_ZZ11__vector_18E6msg_ID+0x1>
    1030:	10 92 2b 05 	sts	0x052B, r1	; 0x80052b <_ZZ11__vector_18E6msg_ID>
    1034:	10 92 2a 05 	sts	0x052A, r1	; 0x80052a <_ZZ11__vector_18E11field_index>
    1038:	10 92 70 05 	sts	0x0570, r1	; 0x800570 <_ZZ11__vector_18E4buff+0x1>
    103c:	10 92 6f 05 	sts	0x056F, r1	; 0x80056f <_ZZ11__vector_18E4buff>
    1040:	10 92 2d 05 	sts	0x052D, r1	; 0x80052d <_ZZ11__vector_18E13receiving_msg>
    1044:	0d c1       	rjmp	.+538    	; 0x1260 <__vector_18+0x310>
    1046:	22 23       	and	r18, r18
    1048:	09 f4       	brne	.+2      	; 0x104c <__vector_18+0xfc>
    104a:	0a c1       	rjmp	.+532    	; 0x1260 <__vector_18+0x310>
    104c:	e0 91 6d 05 	lds	r30, 0x056D	; 0x80056d <_ZZ11__vector_18E9charIndex>
    1050:	4e 2f       	mov	r20, r30
    1052:	50 e0       	ldi	r21, 0x00	; 0
    1054:	da 01       	movw	r26, r20
    1056:	a2 5d       	subi	r26, 0xD2	; 210
    1058:	ba 4f       	sbci	r27, 0xFA	; 250
    105a:	2c 93       	st	X, r18
    105c:	ee 23       	and	r30, r30
    105e:	09 f4       	brne	.+2      	; 0x1062 <__vector_18+0x112>
    1060:	d6 c0       	rjmp	.+428    	; 0x120e <__vector_18+0x2be>
    1062:	2f 37       	cpi	r18, 0x7F	; 127
    1064:	09 f0       	breq	.+2      	; 0x1068 <__vector_18+0x118>
    1066:	5f c0       	rjmp	.+190    	; 0x1126 <__vector_18+0x1d6>
    1068:	e1 50       	subi	r30, 0x01	; 1
    106a:	e0 93 6d 05 	sts	0x056D, r30	; 0x80056d <_ZZ11__vector_18E9charIndex>
    106e:	80 91 2a 05 	lds	r24, 0x052A	; 0x80052a <_ZZ11__vector_18E11field_index>
    1072:	81 11       	cpse	r24, r1
    1074:	13 c0       	rjmp	.+38     	; 0x109c <__vector_18+0x14c>
    1076:	f0 e0       	ldi	r31, 0x00	; 0
    1078:	e2 5d       	subi	r30, 0xD2	; 210
    107a:	fa 4f       	sbci	r31, 0xFA	; 250
    107c:	40 81       	ld	r20, Z
    107e:	80 91 2b 05 	lds	r24, 0x052B	; 0x80052b <_ZZ11__vector_18E6msg_ID>
    1082:	90 91 2c 05 	lds	r25, 0x052C	; 0x80052c <_ZZ11__vector_18E6msg_ID+0x1>
    1086:	84 1b       	sub	r24, r20
    1088:	91 09       	sbc	r25, r1
    108a:	6a e0       	ldi	r22, 0x0A	; 10
    108c:	70 e0       	ldi	r23, 0x00	; 0
    108e:	0e 94 3a 28 	call	0x5074	; 0x5074 <__divmodhi4>
    1092:	70 93 2c 05 	sts	0x052C, r23	; 0x80052c <_ZZ11__vector_18E6msg_ID+0x1>
    1096:	60 93 2b 05 	sts	0x052B, r22	; 0x80052b <_ZZ11__vector_18E6msg_ID>
    109a:	39 c0       	rjmp	.+114    	; 0x110e <__vector_18+0x1be>
    109c:	90 91 29 05 	lds	r25, 0x0529	; 0x800529 <_ZZ11__vector_18E9field_len>
    10a0:	99 23       	and	r25, r25
    10a2:	91 f0       	breq	.+36     	; 0x10c8 <__vector_18+0x178>
    10a4:	4f ef       	ldi	r20, 0xFF	; 255
    10a6:	49 0f       	add	r20, r25
    10a8:	40 93 29 05 	sts	0x0529, r20	; 0x800529 <_ZZ11__vector_18E9field_len>
    10ac:	90 e0       	ldi	r25, 0x00	; 0
    10ae:	01 97       	sbiw	r24, 0x01	; 1
    10b0:	54 e1       	ldi	r21, 0x14	; 20
    10b2:	58 9f       	mul	r21, r24
    10b4:	b0 01       	movw	r22, r0
    10b6:	59 9f       	mul	r21, r25
    10b8:	70 0d       	add	r23, r0
    10ba:	11 24       	eor	r1, r1
    10bc:	c6 0f       	add	r28, r22
    10be:	d7 1f       	adc	r29, r23
    10c0:	c4 0f       	add	r28, r20
    10c2:	d1 1d       	adc	r29, r1
    10c4:	1b 82       	std	Y+3, r1	; 0x03
    10c6:	23 c0       	rjmp	.+70     	; 0x110e <__vector_18+0x1be>
    10c8:	f0 e0       	ldi	r31, 0x00	; 0
    10ca:	e2 5d       	subi	r30, 0xD2	; 210
    10cc:	fa 4f       	sbci	r31, 0xFA	; 250
    10ce:	90 81       	ld	r25, Z
    10d0:	90 32       	cpi	r25, 0x20	; 32
    10d2:	a1 f4       	brne	.+40     	; 0x10fc <__vector_18+0x1ac>
    10d4:	81 50       	subi	r24, 0x01	; 1
    10d6:	80 93 2a 05 	sts	0x052A, r24	; 0x80052a <_ZZ11__vector_18E11field_index>
    10da:	de 01       	movw	r26, r28
    10dc:	94 e1       	ldi	r25, 0x14	; 20
    10de:	89 9f       	mul	r24, r25
    10e0:	a0 0d       	add	r26, r0
    10e2:	b1 1d       	adc	r27, r1
    10e4:	11 24       	eor	r1, r1
    10e6:	13 96       	adiw	r26, 0x03	; 3
    10e8:	fd 01       	movw	r30, r26
    10ea:	01 90       	ld	r0, Z+
    10ec:	00 20       	and	r0, r0
    10ee:	e9 f7       	brne	.-6      	; 0x10ea <__vector_18+0x19a>
    10f0:	31 97       	sbiw	r30, 0x01	; 1
    10f2:	ea 1b       	sub	r30, r26
    10f4:	fb 0b       	sbc	r31, r27
    10f6:	e0 93 29 05 	sts	0x0529, r30	; 0x800529 <_ZZ11__vector_18E9field_len>
    10fa:	09 c0       	rjmp	.+18     	; 0x110e <__vector_18+0x1be>
    10fc:	94 e1       	ldi	r25, 0x14	; 20
    10fe:	89 9f       	mul	r24, r25
    1100:	c0 0d       	add	r28, r0
    1102:	d1 1d       	adc	r29, r1
    1104:	11 24       	eor	r1, r1
    1106:	1b 82       	std	Y+3, r1	; 0x03
    1108:	81 50       	subi	r24, 0x01	; 1
    110a:	80 93 2a 05 	sts	0x052A, r24	; 0x80052a <_ZZ11__vector_18E11field_index>
    110e:	80 91 6d 05 	lds	r24, 0x056D	; 0x80056d <_ZZ11__vector_18E9charIndex>
    1112:	e8 2f       	mov	r30, r24
    1114:	f0 e0       	ldi	r31, 0x00	; 0
    1116:	e2 5d       	subi	r30, 0xD2	; 210
    1118:	fa 4f       	sbci	r31, 0xFA	; 250
    111a:	10 82       	st	Z, r1
    111c:	81 11       	cpse	r24, r1
    111e:	93 c0       	rjmp	.+294    	; 0x1246 <__vector_18+0x2f6>
    1120:	10 92 2d 05 	sts	0x052D, r1	; 0x80052d <_ZZ11__vector_18E13receiving_msg>
    1124:	90 c0       	rjmp	.+288    	; 0x1246 <__vector_18+0x2f6>
    1126:	20 32       	cpi	r18, 0x20	; 32
    1128:	79 f5       	brne	.+94     	; 0x1188 <__vector_18+0x238>
    112a:	fa 01       	movw	r30, r20
    112c:	e3 5d       	subi	r30, 0xD3	; 211
    112e:	fa 4f       	sbci	r31, 0xFA	; 250
    1130:	80 81       	ld	r24, Z
    1132:	80 32       	cpi	r24, 0x20	; 32
    1134:	09 f4       	brne	.+2      	; 0x1138 <__vector_18+0x1e8>
    1136:	94 c0       	rjmp	.+296    	; 0x1260 <__vector_18+0x310>
    1138:	80 91 2a 05 	lds	r24, 0x052A	; 0x80052a <_ZZ11__vector_18E11field_index>
    113c:	68 2f       	mov	r22, r24
    113e:	70 e0       	ldi	r23, 0x00	; 0
    1140:	fb 01       	movw	r30, r22
    1142:	31 96       	adiw	r30, 0x01	; 1
    1144:	33 97       	sbiw	r30, 0x03	; 3
    1146:	0c f0       	brlt	.+2      	; 0x114a <__vector_18+0x1fa>
    1148:	8b c0       	rjmp	.+278    	; 0x1260 <__vector_18+0x310>
    114a:	88 23       	and	r24, r24
    114c:	79 f0       	breq	.+30     	; 0x116c <__vector_18+0x21c>
    114e:	61 50       	subi	r22, 0x01	; 1
    1150:	71 09       	sbc	r23, r1
    1152:	90 91 29 05 	lds	r25, 0x0529	; 0x800529 <_ZZ11__vector_18E9field_len>
    1156:	a4 e1       	ldi	r26, 0x14	; 20
    1158:	a6 9f       	mul	r26, r22
    115a:	f0 01       	movw	r30, r0
    115c:	a7 9f       	mul	r26, r23
    115e:	f0 0d       	add	r31, r0
    1160:	11 24       	eor	r1, r1
    1162:	ce 0f       	add	r28, r30
    1164:	df 1f       	adc	r29, r31
    1166:	c9 0f       	add	r28, r25
    1168:	d1 1d       	adc	r29, r1
    116a:	1b 82       	std	Y+3, r1	; 0x03
    116c:	8f 5f       	subi	r24, 0xFF	; 255
    116e:	80 93 2a 05 	sts	0x052A, r24	; 0x80052a <_ZZ11__vector_18E11field_index>
    1172:	10 92 29 05 	sts	0x0529, r1	; 0x800529 <_ZZ11__vector_18E9field_len>
    1176:	4f 5f       	subi	r20, 0xFF	; 255
    1178:	5f 4f       	sbci	r21, 0xFF	; 255
    117a:	4e 33       	cpi	r20, 0x3E	; 62
    117c:	51 05       	cpc	r21, r1
    117e:	0c f0       	brlt	.+2      	; 0x1182 <__vector_18+0x232>
    1180:	4e e3       	ldi	r20, 0x3E	; 62
    1182:	40 93 6d 05 	sts	0x056D, r20	; 0x80056d <_ZZ11__vector_18E9charIndex>
    1186:	5f c0       	rjmp	.+190    	; 0x1246 <__vector_18+0x2f6>
    1188:	80 91 29 05 	lds	r24, 0x0529	; 0x800529 <_ZZ11__vector_18E9field_len>
    118c:	84 31       	cpi	r24, 0x14	; 20
    118e:	08 f0       	brcs	.+2      	; 0x1192 <__vector_18+0x242>
    1190:	67 c0       	rjmp	.+206    	; 0x1260 <__vector_18+0x310>
    1192:	40 91 2a 05 	lds	r20, 0x052A	; 0x80052a <_ZZ11__vector_18E11field_index>
    1196:	41 11       	cpse	r20, r1
    1198:	19 c0       	rjmp	.+50     	; 0x11cc <__vector_18+0x27c>
    119a:	40 91 2b 05 	lds	r20, 0x052B	; 0x80052b <_ZZ11__vector_18E6msg_ID>
    119e:	50 91 2c 05 	lds	r21, 0x052C	; 0x80052c <_ZZ11__vector_18E6msg_ID+0x1>
    11a2:	ba 01       	movw	r22, r20
    11a4:	66 0f       	add	r22, r22
    11a6:	77 1f       	adc	r23, r23
    11a8:	44 0f       	add	r20, r20
    11aa:	55 1f       	adc	r21, r21
    11ac:	44 0f       	add	r20, r20
    11ae:	55 1f       	adc	r21, r21
    11b0:	44 0f       	add	r20, r20
    11b2:	55 1f       	adc	r21, r21
    11b4:	46 0f       	add	r20, r22
    11b6:	57 1f       	adc	r21, r23
    11b8:	42 0f       	add	r20, r18
    11ba:	51 1d       	adc	r21, r1
    11bc:	50 93 2c 05 	sts	0x052C, r21	; 0x80052c <_ZZ11__vector_18E6msg_ID+0x1>
    11c0:	40 93 2b 05 	sts	0x052B, r20	; 0x80052b <_ZZ11__vector_18E6msg_ID>
    11c4:	8f 5f       	subi	r24, 0xFF	; 255
    11c6:	80 93 29 05 	sts	0x0529, r24	; 0x800529 <_ZZ11__vector_18E9field_len>
    11ca:	16 c0       	rjmp	.+44     	; 0x11f8 <__vector_18+0x2a8>
    11cc:	50 e0       	ldi	r21, 0x00	; 0
    11ce:	41 50       	subi	r20, 0x01	; 1
    11d0:	51 09       	sbc	r21, r1
    11d2:	91 e0       	ldi	r25, 0x01	; 1
    11d4:	98 0f       	add	r25, r24
    11d6:	90 93 29 05 	sts	0x0529, r25	; 0x800529 <_ZZ11__vector_18E9field_len>
    11da:	e4 e1       	ldi	r30, 0x14	; 20
    11dc:	e4 9f       	mul	r30, r20
    11de:	b0 01       	movw	r22, r0
    11e0:	e5 9f       	mul	r30, r21
    11e2:	70 0d       	add	r23, r0
    11e4:	11 24       	eor	r1, r1
    11e6:	c6 0f       	add	r28, r22
    11e8:	d7 1f       	adc	r29, r23
    11ea:	fe 01       	movw	r30, r28
    11ec:	e8 0f       	add	r30, r24
    11ee:	f1 1d       	adc	r31, r1
    11f0:	23 83       	std	Z+3, r18	; 0x03
    11f2:	c9 0f       	add	r28, r25
    11f4:	d1 1d       	adc	r29, r1
    11f6:	1b 82       	std	Y+3, r1	; 0x03
    11f8:	80 91 6d 05 	lds	r24, 0x056D	; 0x80056d <_ZZ11__vector_18E9charIndex>
    11fc:	90 e0       	ldi	r25, 0x00	; 0
    11fe:	01 96       	adiw	r24, 0x01	; 1
    1200:	8e 33       	cpi	r24, 0x3E	; 62
    1202:	91 05       	cpc	r25, r1
    1204:	0c f0       	brlt	.+2      	; 0x1208 <__vector_18+0x2b8>
    1206:	8e e3       	ldi	r24, 0x3E	; 62
    1208:	80 93 6d 05 	sts	0x056D, r24	; 0x80056d <_ZZ11__vector_18E9charIndex>
    120c:	1c c0       	rjmp	.+56     	; 0x1246 <__vector_18+0x2f6>
    120e:	2f 37       	cpi	r18, 0x7F	; 127
    1210:	41 f4       	brne	.+16     	; 0x1222 <__vector_18+0x2d2>
    1212:	80 91 2b 05 	lds	r24, 0x052B	; 0x80052b <_ZZ11__vector_18E6msg_ID>
    1216:	90 91 2c 05 	lds	r25, 0x052C	; 0x80052c <_ZZ11__vector_18E6msg_ID+0x1>
    121a:	18 16       	cp	r1, r24
    121c:	19 06       	cpc	r1, r25
    121e:	bc f0       	brlt	.+46     	; 0x124e <__vector_18+0x2fe>
    1220:	1b c0       	rjmp	.+54     	; 0x1258 <__vector_18+0x308>
    1222:	20 32       	cpi	r18, 0x20	; 32
    1224:	e9 f0       	breq	.+58     	; 0x1260 <__vector_18+0x310>
    1226:	10 92 2a 05 	sts	0x052A, r1	; 0x80052a <_ZZ11__vector_18E11field_index>
    122a:	c9 01       	movw	r24, r18
    122c:	99 27       	eor	r25, r25
    122e:	90 93 2c 05 	sts	0x052C, r25	; 0x80052c <_ZZ11__vector_18E6msg_ID+0x1>
    1232:	80 93 2b 05 	sts	0x052B, r24	; 0x80052b <_ZZ11__vector_18E6msg_ID>
    1236:	1b 82       	std	Y+3, r1	; 0x03
    1238:	1f 8a       	std	Y+23, r1	; 0x17
    123a:	1b a6       	std	Y+43, r1	; 0x2b
    123c:	81 e0       	ldi	r24, 0x01	; 1
    123e:	80 93 2d 05 	sts	0x052D, r24	; 0x80052d <_ZZ11__vector_18E13receiving_msg>
    1242:	80 93 6d 05 	sts	0x056D, r24	; 0x80056d <_ZZ11__vector_18E9charIndex>
    1246:	82 2f       	mov	r24, r18
    1248:	0e 94 28 07 	call	0xe50	; 0xe50 <_Z12lb_echo_charh>
    124c:	09 c0       	rjmp	.+18     	; 0x1260 <__vector_18+0x310>
    124e:	10 92 2c 05 	sts	0x052C, r1	; 0x80052c <_ZZ11__vector_18E6msg_ID+0x1>
    1252:	10 92 2b 05 	sts	0x052B, r1	; 0x80052b <_ZZ11__vector_18E6msg_ID>
    1256:	f7 cf       	rjmp	.-18     	; 0x1246 <__vector_18+0x2f6>
    1258:	10 92 2c 05 	sts	0x052C, r1	; 0x80052c <_ZZ11__vector_18E6msg_ID+0x1>
    125c:	10 92 2b 05 	sts	0x052B, r1	; 0x80052b <_ZZ11__vector_18E6msg_ID>
    1260:	ff 91       	pop	r31
    1262:	ef 91       	pop	r30
    1264:	df 91       	pop	r29
    1266:	cf 91       	pop	r28
    1268:	bf 91       	pop	r27
    126a:	af 91       	pop	r26
    126c:	9f 91       	pop	r25
    126e:	8f 91       	pop	r24
    1270:	7f 91       	pop	r23
    1272:	6f 91       	pop	r22
    1274:	5f 91       	pop	r21
    1276:	4f 91       	pop	r20
    1278:	3f 91       	pop	r19
    127a:	2f 91       	pop	r18
    127c:	1f 91       	pop	r17
    127e:	0f 90       	pop	r0
    1280:	0f be       	out	0x3f, r0	; 63
    1282:	0f 90       	pop	r0
    1284:	1f 90       	pop	r1
    1286:	18 95       	reti

00001288 <__vector_19>:
    1288:	1f 92       	push	r1
    128a:	0f 92       	push	r0
    128c:	0f b6       	in	r0, 0x3f	; 63
    128e:	0f 92       	push	r0
    1290:	11 24       	eor	r1, r1
    1292:	2f 93       	push	r18
    1294:	3f 93       	push	r19
    1296:	4f 93       	push	r20
    1298:	5f 93       	push	r21
    129a:	6f 93       	push	r22
    129c:	7f 93       	push	r23
    129e:	8f 93       	push	r24
    12a0:	9f 93       	push	r25
    12a2:	af 93       	push	r26
    12a4:	bf 93       	push	r27
    12a6:	ef 93       	push	r30
    12a8:	ff 93       	push	r31
    12aa:	80 91 27 05 	lds	r24, 0x0527	; 0x800527 <_ZZ11__vector_19E4buff>
    12ae:	90 91 28 05 	lds	r25, 0x0528	; 0x800528 <_ZZ11__vector_19E4buff+0x1>
    12b2:	89 2b       	or	r24, r25
    12b4:	31 f4       	brne	.+12     	; 0x12c2 <__vector_19+0x3a>
    12b6:	0e 94 ef 05 	call	0xbde	; 0xbde <_Z16nextFullTxBufferv>
    12ba:	90 93 28 05 	sts	0x0528, r25	; 0x800528 <_ZZ11__vector_19E4buff+0x1>
    12be:	80 93 27 05 	sts	0x0527, r24	; 0x800527 <_ZZ11__vector_19E4buff>
    12c2:	e0 91 27 05 	lds	r30, 0x0527	; 0x800527 <_ZZ11__vector_19E4buff>
    12c6:	f0 91 28 05 	lds	r31, 0x0528	; 0x800528 <_ZZ11__vector_19E4buff+0x1>
    12ca:	80 91 26 05 	lds	r24, 0x0526	; 0x800526 <_ZZ11__vector_19E9charIndex>
    12ce:	df 01       	movw	r26, r30
    12d0:	a8 0f       	add	r26, r24
    12d2:	b1 1d       	adc	r27, r1
    12d4:	9c 91       	ld	r25, X
    12d6:	99 23       	and	r25, r25
    12d8:	31 f0       	breq	.+12     	; 0x12e6 <__vector_19+0x5e>
    12da:	8f 5f       	subi	r24, 0xFF	; 255
    12dc:	80 93 26 05 	sts	0x0526, r24	; 0x800526 <_ZZ11__vector_19E9charIndex>
    12e0:	90 93 c6 00 	sts	0x00C6, r25	; 0x8000c6 <__TEXT_REGION_LENGTH__+0x7f80c6>
    12e4:	0d c0       	rjmp	.+26     	; 0x1300 <__vector_19+0x78>
    12e6:	10 92 26 05 	sts	0x0526, r1	; 0x800526 <_ZZ11__vector_19E9charIndex>
    12ea:	10 82       	st	Z, r1
    12ec:	0e 94 ef 05 	call	0xbde	; 0xbde <_Z16nextFullTxBufferv>
    12f0:	90 93 28 05 	sts	0x0528, r25	; 0x800528 <_ZZ11__vector_19E4buff+0x1>
    12f4:	80 93 27 05 	sts	0x0527, r24	; 0x800527 <_ZZ11__vector_19E4buff>
    12f8:	89 2b       	or	r24, r25
    12fa:	11 f4       	brne	.+4      	; 0x1300 <__vector_19+0x78>
    12fc:	0e 94 ac 06 	call	0xd58	; 0xd58 <_Z14linkbus_end_txv>
    1300:	ff 91       	pop	r31
    1302:	ef 91       	pop	r30
    1304:	bf 91       	pop	r27
    1306:	af 91       	pop	r26
    1308:	9f 91       	pop	r25
    130a:	8f 91       	pop	r24
    130c:	7f 91       	pop	r23
    130e:	6f 91       	pop	r22
    1310:	5f 91       	pop	r21
    1312:	4f 91       	pop	r20
    1314:	3f 91       	pop	r19
    1316:	2f 91       	pop	r18
    1318:	0f 90       	pop	r0
    131a:	0f be       	out	0x3f, r0	; 63
    131c:	0f 90       	pop	r0
    131e:	1f 90       	pop	r1
    1320:	18 95       	reti

00001322 <__vector_14>:
    1322:	1f 92       	push	r1
    1324:	0f 92       	push	r0
    1326:	0f b6       	in	r0, 0x3f	; 63
    1328:	0f 92       	push	r0
    132a:	11 24       	eor	r1, r1
    132c:	2f 93       	push	r18
    132e:	3f 93       	push	r19
    1330:	4f 93       	push	r20
    1332:	5f 93       	push	r21
    1334:	6f 93       	push	r22
    1336:	7f 93       	push	r23
    1338:	8f 93       	push	r24
    133a:	9f 93       	push	r25
    133c:	af 93       	push	r26
    133e:	bf 93       	push	r27
    1340:	ef 93       	push	r30
    1342:	ff 93       	push	r31
    1344:	80 91 1b 05 	lds	r24, 0x051B	; 0x80051b <_ZZ11__vector_14E6toggle>
    1348:	91 e0       	ldi	r25, 0x01	; 1
    134a:	81 11       	cpse	r24, r1
    134c:	90 e0       	ldi	r25, 0x00	; 0
    134e:	90 93 1b 05 	sts	0x051B, r25	; 0x80051b <_ZZ11__vector_14E6toggle>
    1352:	90 91 dd 05 	lds	r25, 0x05DD	; 0x8005dd <g_audio_tone_state>
    1356:	99 23       	and	r25, r25
    1358:	61 f0       	breq	.+24     	; 0x1372 <__vector_14+0x50>
    135a:	81 11       	cpse	r24, r1
    135c:	05 c0       	rjmp	.+10     	; 0x1368 <__vector_14+0x46>
    135e:	61 e0       	ldi	r22, 0x01	; 1
    1360:	89 e0       	ldi	r24, 0x09	; 9
    1362:	0e 94 2f 02 	call	0x45e	; 0x45e <_Z12digitalWritehh>
    1366:	09 c0       	rjmp	.+18     	; 0x137a <__vector_14+0x58>
    1368:	60 e0       	ldi	r22, 0x00	; 0
    136a:	89 e0       	ldi	r24, 0x09	; 9
    136c:	0e 94 2f 02 	call	0x45e	; 0x45e <_Z12digitalWritehh>
    1370:	04 c0       	rjmp	.+8      	; 0x137a <__vector_14+0x58>
    1372:	60 e0       	ldi	r22, 0x00	; 0
    1374:	89 e0       	ldi	r24, 0x09	; 9
    1376:	0e 94 2f 02 	call	0x45e	; 0x45e <_Z12digitalWritehh>
    137a:	ff 91       	pop	r31
    137c:	ef 91       	pop	r30
    137e:	bf 91       	pop	r27
    1380:	af 91       	pop	r26
    1382:	9f 91       	pop	r25
    1384:	8f 91       	pop	r24
    1386:	7f 91       	pop	r23
    1388:	6f 91       	pop	r22
    138a:	5f 91       	pop	r21
    138c:	4f 91       	pop	r20
    138e:	3f 91       	pop	r19
    1390:	2f 91       	pop	r18
    1392:	0f 90       	pop	r0
    1394:	0f be       	out	0x3f, r0	; 63
    1396:	0f 90       	pop	r0
    1398:	1f 90       	pop	r1
    139a:	18 95       	reti

0000139c <_Z23clockConfigurationErrorv>:
    139c:	0f 93       	push	r16
    139e:	1f 93       	push	r17
    13a0:	80 91 20 01 	lds	r24, 0x0120	; 0x800120 <g_transmissions_disabled>
    13a4:	88 23       	and	r24, r24
    13a6:	09 f4       	brne	.+2      	; 0x13aa <_Z23clockConfigurationErrorv+0xe>
    13a8:	61 c0       	rjmp	.+194    	; 0x146c <_Z23clockConfigurationErrorv+0xd0>
    13aa:	80 91 ea 05 	lds	r24, 0x05EA	; 0x8005ea <g_event_finish_epoch>
    13ae:	90 91 eb 05 	lds	r25, 0x05EB	; 0x8005eb <g_event_finish_epoch+0x1>
    13b2:	a0 91 ec 05 	lds	r26, 0x05EC	; 0x8005ec <g_event_finish_epoch+0x2>
    13b6:	b0 91 ed 05 	lds	r27, 0x05ED	; 0x8005ed <g_event_finish_epoch+0x3>
    13ba:	89 2b       	or	r24, r25
    13bc:	8a 2b       	or	r24, r26
    13be:	8b 2b       	or	r24, r27
    13c0:	09 f4       	brne	.+2      	; 0x13c4 <_Z23clockConfigurationErrorv+0x28>
    13c2:	4d c0       	rjmp	.+154    	; 0x145e <_Z23clockConfigurationErrorv+0xc2>
    13c4:	80 91 ea 05 	lds	r24, 0x05EA	; 0x8005ea <g_event_finish_epoch>
    13c8:	90 91 eb 05 	lds	r25, 0x05EB	; 0x8005eb <g_event_finish_epoch+0x1>
    13cc:	a0 91 ec 05 	lds	r26, 0x05EC	; 0x8005ec <g_event_finish_epoch+0x2>
    13d0:	b0 91 ed 05 	lds	r27, 0x05ED	; 0x8005ed <g_event_finish_epoch+0x3>
    13d4:	89 2b       	or	r24, r25
    13d6:	8a 2b       	or	r24, r26
    13d8:	8b 2b       	or	r24, r27
    13da:	09 f4       	brne	.+2      	; 0x13de <_Z23clockConfigurationErrorv+0x42>
    13dc:	42 c0       	rjmp	.+132    	; 0x1462 <_Z23clockConfigurationErrorv+0xc6>
    13de:	80 91 f2 05 	lds	r24, 0x05F2	; 0x8005f2 <g_current_epoch>
    13e2:	90 91 f3 05 	lds	r25, 0x05F3	; 0x8005f3 <g_current_epoch+0x1>
    13e6:	a0 91 f4 05 	lds	r26, 0x05F4	; 0x8005f4 <g_current_epoch+0x2>
    13ea:	b0 91 f5 05 	lds	r27, 0x05F5	; 0x8005f5 <g_current_epoch+0x3>
    13ee:	81 15       	cp	r24, r1
    13f0:	96 46       	sbci	r25, 0x66	; 102
    13f2:	ae 4e       	sbci	r26, 0xEE	; 238
    13f4:	bf 45       	sbci	r27, 0x5F	; 95
    13f6:	b8 f1       	brcs	.+110    	; 0x1466 <_Z23clockConfigurationErrorv+0xca>
    13f8:	40 91 ea 05 	lds	r20, 0x05EA	; 0x8005ea <g_event_finish_epoch>
    13fc:	50 91 eb 05 	lds	r21, 0x05EB	; 0x8005eb <g_event_finish_epoch+0x1>
    1400:	60 91 ec 05 	lds	r22, 0x05EC	; 0x8005ec <g_event_finish_epoch+0x2>
    1404:	70 91 ed 05 	lds	r23, 0x05ED	; 0x8005ed <g_event_finish_epoch+0x3>
    1408:	80 91 ee 05 	lds	r24, 0x05EE	; 0x8005ee <g_event_start_epoch>
    140c:	90 91 ef 05 	lds	r25, 0x05EF	; 0x8005ef <g_event_start_epoch+0x1>
    1410:	a0 91 f0 05 	lds	r26, 0x05F0	; 0x8005f0 <g_event_start_epoch+0x2>
    1414:	b0 91 f1 05 	lds	r27, 0x05F1	; 0x8005f1 <g_event_start_epoch+0x3>
    1418:	84 17       	cp	r24, r20
    141a:	95 07       	cpc	r25, r21
    141c:	a6 07       	cpc	r26, r22
    141e:	b7 07       	cpc	r27, r23
    1420:	20 f5       	brcc	.+72     	; 0x146a <_Z23clockConfigurationErrorv+0xce>
    1422:	80 91 20 01 	lds	r24, 0x0120	; 0x800120 <g_transmissions_disabled>
    1426:	88 23       	and	r24, r24
    1428:	c1 f0       	breq	.+48     	; 0x145a <_Z23clockConfigurationErrorv+0xbe>
    142a:	00 91 f2 05 	lds	r16, 0x05F2	; 0x8005f2 <g_current_epoch>
    142e:	10 91 f3 05 	lds	r17, 0x05F3	; 0x8005f3 <g_current_epoch+0x1>
    1432:	20 91 f4 05 	lds	r18, 0x05F4	; 0x8005f4 <g_current_epoch+0x2>
    1436:	30 91 f5 05 	lds	r19, 0x05F5	; 0x8005f5 <g_current_epoch+0x3>
    143a:	40 91 ea 05 	lds	r20, 0x05EA	; 0x8005ea <g_event_finish_epoch>
    143e:	50 91 eb 05 	lds	r21, 0x05EB	; 0x8005eb <g_event_finish_epoch+0x1>
    1442:	60 91 ec 05 	lds	r22, 0x05EC	; 0x8005ec <g_event_finish_epoch+0x2>
    1446:	70 91 ed 05 	lds	r23, 0x05ED	; 0x8005ed <g_event_finish_epoch+0x3>
    144a:	81 e0       	ldi	r24, 0x01	; 1
    144c:	40 17       	cp	r20, r16
    144e:	51 07       	cpc	r21, r17
    1450:	62 07       	cpc	r22, r18
    1452:	73 07       	cpc	r23, r19
    1454:	58 f0       	brcs	.+22     	; 0x146c <_Z23clockConfigurationErrorv+0xd0>
    1456:	80 e0       	ldi	r24, 0x00	; 0
    1458:	09 c0       	rjmp	.+18     	; 0x146c <_Z23clockConfigurationErrorv+0xd0>
    145a:	80 e0       	ldi	r24, 0x00	; 0
    145c:	07 c0       	rjmp	.+14     	; 0x146c <_Z23clockConfigurationErrorv+0xd0>
    145e:	81 e0       	ldi	r24, 0x01	; 1
    1460:	05 c0       	rjmp	.+10     	; 0x146c <_Z23clockConfigurationErrorv+0xd0>
    1462:	81 e0       	ldi	r24, 0x01	; 1
    1464:	03 c0       	rjmp	.+6      	; 0x146c <_Z23clockConfigurationErrorv+0xd0>
    1466:	81 e0       	ldi	r24, 0x01	; 1
    1468:	01 c0       	rjmp	.+2      	; 0x146c <_Z23clockConfigurationErrorv+0xd0>
    146a:	81 e0       	ldi	r24, 0x01	; 1
    146c:	1f 91       	pop	r17
    146e:	0f 91       	pop	r16
    1470:	08 95       	ret

00001472 <_Z13sendMorseToneh>:
    1472:	90 91 dc 05 	lds	r25, 0x05DC	; 0x8005dc <g_lastSeconds>
    1476:	91 11       	cpse	r25, r1
    1478:	0a c0       	rjmp	.+20     	; 0x148e <_Z13sendMorseToneh+0x1c>
    147a:	20 91 1a 01 	lds	r18, 0x011A	; 0x80011a <g_fox_tone_offset>
    147e:	30 91 1b 01 	lds	r19, 0x011B	; 0x80011b <g_fox_tone_offset+0x1>
    1482:	9f e2       	ldi	r25, 0x2F	; 47
    1484:	92 1b       	sub	r25, r18
    1486:	97 bd       	out	0x27, r25	; 39
    1488:	80 93 dd 05 	sts	0x05DD, r24	; 0x8005dd <g_audio_tone_state>
    148c:	08 95       	ret
    148e:	8f e2       	ldi	r24, 0x2F	; 47
    1490:	87 bd       	out	0x27, r24	; 39
    1492:	10 92 dd 05 	sts	0x05DD, r1	; 0x8005dd <g_audio_tone_state>
    1496:	08 95       	ret

00001498 <__vector_8>:
    1498:	1f 92       	push	r1
    149a:	0f 92       	push	r0
    149c:	0f b6       	in	r0, 0x3f	; 63
    149e:	0f 92       	push	r0
    14a0:	11 24       	eor	r1, r1
    14a2:	2f 93       	push	r18
    14a4:	3f 93       	push	r19
    14a6:	4f 93       	push	r20
    14a8:	5f 93       	push	r21
    14aa:	6f 93       	push	r22
    14ac:	7f 93       	push	r23
    14ae:	8f 93       	push	r24
    14b0:	9f 93       	push	r25
    14b2:	af 93       	push	r26
    14b4:	bf 93       	push	r27
    14b6:	ef 93       	push	r30
    14b8:	ff 93       	push	r31
    14ba:	cf 93       	push	r28
    14bc:	df 93       	push	r29
    14be:	00 d0       	rcall	.+0      	; 0x14c0 <__vector_8+0x28>
    14c0:	cd b7       	in	r28, 0x3d	; 61
    14c2:	de b7       	in	r29, 0x3e	; 62
    14c4:	80 91 9b 05 	lds	r24, 0x059B	; 0x80059b <g_tick_count>
    14c8:	90 91 9c 05 	lds	r25, 0x059C	; 0x80059c <g_tick_count+0x1>
    14cc:	a0 91 9d 05 	lds	r26, 0x059D	; 0x80059d <g_tick_count+0x2>
    14d0:	b0 91 9e 05 	lds	r27, 0x059E	; 0x80059e <g_tick_count+0x3>
    14d4:	01 96       	adiw	r24, 0x01	; 1
    14d6:	a1 1d       	adc	r26, r1
    14d8:	b1 1d       	adc	r27, r1
    14da:	80 93 9b 05 	sts	0x059B, r24	; 0x80059b <g_tick_count>
    14de:	90 93 9c 05 	sts	0x059C, r25	; 0x80059c <g_tick_count+0x1>
    14e2:	a0 93 9d 05 	sts	0x059D, r26	; 0x80059d <g_tick_count+0x2>
    14e6:	b0 93 9e 05 	sts	0x059E, r27	; 0x80059e <g_tick_count+0x3>
    14ea:	81 e0       	ldi	r24, 0x01	; 1
    14ec:	89 83       	std	Y+1, r24	; 0x01
    14ee:	1a 82       	std	Y+2, r1	; 0x02
    14f0:	80 91 19 01 	lds	r24, 0x0119	; 0x800119 <g_sync_enabled>
    14f4:	88 23       	and	r24, r24
    14f6:	19 f1       	breq	.+70     	; 0x153e <__vector_8+0xa6>
    14f8:	84 e0       	ldi	r24, 0x04	; 4
    14fa:	0e 94 f0 01 	call	0x3e0	; 0x3e0 <_Z11digitalReadh>
    14fe:	81 11       	cpse	r24, r1
    1500:	1e c0       	rjmp	.+60     	; 0x153e <__vector_8+0xa6>
    1502:	80 91 da 05 	lds	r24, 0x05DA	; 0x8005da <g_sync_pin_timer>
    1506:	90 91 db 05 	lds	r25, 0x05DB	; 0x8005db <g_sync_pin_timer+0x1>
    150a:	8b 3b       	cpi	r24, 0xBB	; 187
    150c:	90 41       	sbci	r25, 0x10	; 16
    150e:	4c f4       	brge	.+18     	; 0x1522 <__vector_8+0x8a>
    1510:	80 91 da 05 	lds	r24, 0x05DA	; 0x8005da <g_sync_pin_timer>
    1514:	90 91 db 05 	lds	r25, 0x05DB	; 0x8005db <g_sync_pin_timer+0x1>
    1518:	01 96       	adiw	r24, 0x01	; 1
    151a:	90 93 db 05 	sts	0x05DB, r25	; 0x8005db <g_sync_pin_timer+0x1>
    151e:	80 93 da 05 	sts	0x05DA, r24	; 0x8005da <g_sync_pin_timer>
    1522:	80 91 da 05 	lds	r24, 0x05DA	; 0x8005da <g_sync_pin_timer>
    1526:	90 91 db 05 	lds	r25, 0x05DB	; 0x8005db <g_sync_pin_timer+0x1>
    152a:	85 39       	cpi	r24, 0x95	; 149
    152c:	95 40       	sbci	r25, 0x05	; 5
    152e:	3c f0       	brlt	.+14     	; 0x153e <__vector_8+0xa6>
    1530:	81 e0       	ldi	r24, 0x01	; 1
    1532:	80 93 d9 05 	sts	0x05D9, r24	; 0x8005d9 <g_sync_pin_stable>
    1536:	61 e0       	ldi	r22, 0x01	; 1
    1538:	87 e0       	ldi	r24, 0x07	; 7
    153a:	0e 94 2f 02 	call	0x45e	; 0x45e <_Z12digitalWritehh>
    153e:	80 91 d8 05 	lds	r24, 0x05D8	; 0x8005d8 <g_dtmf_detected>
    1542:	81 11       	cpse	r24, r1
    1544:	04 c0       	rjmp	.+8      	; 0x154e <__vector_8+0xb6>
    1546:	80 91 d6 05 	lds	r24, 0x05D6	; 0x8005d6 <g_config_error>
    154a:	88 23       	and	r24, r24
    154c:	c1 f0       	breq	.+48     	; 0x157e <__vector_8+0xe6>
    154e:	20 91 12 01 	lds	r18, 0x0112	; 0x800112 <_ZZ10__vector_8E13blink_counter>
    1552:	30 91 13 01 	lds	r19, 0x0113	; 0x800113 <_ZZ10__vector_8E13blink_counter+0x1>
    1556:	22 3e       	cpi	r18, 0xE2	; 226
    1558:	8f ef       	ldi	r24, 0xFF	; 255
    155a:	38 07       	cpc	r19, r24
    155c:	34 f4       	brge	.+12     	; 0x156a <__vector_8+0xd2>
    155e:	81 e0       	ldi	r24, 0x01	; 1
    1560:	90 e0       	ldi	r25, 0x00	; 0
    1562:	90 93 11 01 	sts	0x0111, r25	; 0x800111 <_ZZ10__vector_8E21blink_count_direction+0x1>
    1566:	80 93 10 01 	sts	0x0110, r24	; 0x800110 <_ZZ10__vector_8E21blink_count_direction>
    156a:	2f 31       	cpi	r18, 0x1F	; 31
    156c:	31 05       	cpc	r19, r1
    156e:	a4 f0       	brlt	.+40     	; 0x1598 <__vector_8+0x100>
    1570:	8f ef       	ldi	r24, 0xFF	; 255
    1572:	9f ef       	ldi	r25, 0xFF	; 255
    1574:	90 93 11 01 	sts	0x0111, r25	; 0x800111 <_ZZ10__vector_8E21blink_count_direction+0x1>
    1578:	80 93 10 01 	sts	0x0110, r24	; 0x800110 <_ZZ10__vector_8E21blink_count_direction>
    157c:	0d c0       	rjmp	.+26     	; 0x1598 <__vector_8+0x100>
    157e:	81 e0       	ldi	r24, 0x01	; 1
    1580:	90 e0       	ldi	r25, 0x00	; 0
    1582:	90 93 11 01 	sts	0x0111, r25	; 0x800111 <_ZZ10__vector_8E21blink_count_direction+0x1>
    1586:	80 93 10 01 	sts	0x0110, r24	; 0x800110 <_ZZ10__vector_8E21blink_count_direction>
    158a:	8f e1       	ldi	r24, 0x1F	; 31
    158c:	90 e0       	ldi	r25, 0x00	; 0
    158e:	90 93 13 01 	sts	0x0113, r25	; 0x800113 <_ZZ10__vector_8E13blink_counter+0x1>
    1592:	80 93 12 01 	sts	0x0112, r24	; 0x800112 <_ZZ10__vector_8E13blink_counter>
    1596:	10 c0       	rjmp	.+32     	; 0x15b8 <__vector_8+0x120>
    1598:	80 91 10 01 	lds	r24, 0x0110	; 0x800110 <_ZZ10__vector_8E21blink_count_direction>
    159c:	90 91 11 01 	lds	r25, 0x0111	; 0x800111 <_ZZ10__vector_8E21blink_count_direction+0x1>
    15a0:	82 0f       	add	r24, r18
    15a2:	93 1f       	adc	r25, r19
    15a4:	90 93 13 01 	sts	0x0113, r25	; 0x800113 <_ZZ10__vector_8E13blink_counter+0x1>
    15a8:	80 93 12 01 	sts	0x0112, r24	; 0x800112 <_ZZ10__vector_8E13blink_counter>
    15ac:	99 23       	and	r25, r25
    15ae:	24 f4       	brge	.+8      	; 0x15b8 <__vector_8+0x120>
    15b0:	81 e0       	ldi	r24, 0x01	; 1
    15b2:	80 93 f6 05 	sts	0x05F6, r24	; 0x8005f6 <g_blinky_time>
    15b6:	02 c0       	rjmp	.+4      	; 0x15bc <__vector_8+0x124>
    15b8:	10 92 f6 05 	sts	0x05F6, r1	; 0x8005f6 <g_blinky_time>
    15bc:	80 91 71 05 	lds	r24, 0x0571	; 0x800571 <_ZL16g_LEDs_Timed_Out>
    15c0:	81 11       	cpse	r24, r1
    15c2:	24 c0       	rjmp	.+72     	; 0x160c <__vector_8+0x174>
    15c4:	80 91 d9 05 	lds	r24, 0x05D9	; 0x8005d9 <g_sync_pin_stable>
    15c8:	88 23       	and	r24, r24
    15ca:	09 f4       	brne	.+2      	; 0x15ce <__vector_8+0x136>
    15cc:	05 c1       	rjmp	.+522    	; 0x17d8 <__vector_8+0x340>
    15ce:	1e c0       	rjmp	.+60     	; 0x160c <__vector_8+0x174>
    15d0:	80 91 f6 05 	lds	r24, 0x05F6	; 0x8005f6 <g_blinky_time>
    15d4:	88 23       	and	r24, r24
    15d6:	29 f0       	breq	.+10     	; 0x15e2 <__vector_8+0x14a>
    15d8:	60 e0       	ldi	r22, 0x00	; 0
    15da:	8d e0       	ldi	r24, 0x0D	; 13
    15dc:	0e 94 2f 02 	call	0x45e	; 0x45e <_Z12digitalWritehh>
    15e0:	04 c0       	rjmp	.+8      	; 0x15ea <__vector_8+0x152>
    15e2:	61 e0       	ldi	r22, 0x01	; 1
    15e4:	8d e0       	ldi	r24, 0x0D	; 13
    15e6:	0e 94 2f 02 	call	0x45e	; 0x45e <_Z12digitalWritehh>
    15ea:	80 91 d6 05 	lds	r24, 0x05D6	; 0x8005d6 <g_config_error>
    15ee:	88 23       	and	r24, r24
    15f0:	69 f0       	breq	.+26     	; 0x160c <__vector_8+0x174>
    15f2:	80 91 f6 05 	lds	r24, 0x05F6	; 0x8005f6 <g_blinky_time>
    15f6:	88 23       	and	r24, r24
    15f8:	29 f0       	breq	.+10     	; 0x1604 <__vector_8+0x16c>
    15fa:	60 e0       	ldi	r22, 0x00	; 0
    15fc:	87 e0       	ldi	r24, 0x07	; 7
    15fe:	0e 94 2f 02 	call	0x45e	; 0x45e <_Z12digitalWritehh>
    1602:	04 c0       	rjmp	.+8      	; 0x160c <__vector_8+0x174>
    1604:	61 e0       	ldi	r22, 0x01	; 1
    1606:	87 e0       	ldi	r24, 0x07	; 7
    1608:	0e 94 2f 02 	call	0x45e	; 0x45e <_Z12digitalWritehh>
    160c:	80 91 a7 05 	lds	r24, 0x05A7	; 0x8005a7 <_ZL20g_enable_start_timer>
    1610:	88 23       	and	r24, r24
    1612:	09 f4       	brne	.+2      	; 0x1616 <__vector_8+0x17e>
    1614:	58 c0       	rjmp	.+176    	; 0x16c6 <__vector_8+0x22e>
    1616:	80 91 dc 05 	lds	r24, 0x05DC	; 0x8005dc <g_lastSeconds>
    161a:	90 91 25 05 	lds	r25, 0x0525	; 0x800525 <_ZZ10__vector_8E14hold_last10sec>
    161e:	98 17       	cp	r25, r24
    1620:	b1 f0       	breq	.+44     	; 0x164e <__vector_8+0x1b6>
    1622:	80 91 dc 05 	lds	r24, 0x05DC	; 0x8005dc <g_lastSeconds>
    1626:	80 93 25 05 	sts	0x0525, r24	; 0x800525 <_ZZ10__vector_8E14hold_last10sec>
    162a:	88 23       	and	r24, r24
    162c:	49 f0       	breq	.+18     	; 0x1640 <__vector_8+0x1a8>
    162e:	10 92 0f 01 	sts	0x010F, r1	; 0x80010f <_ZZ10__vector_8E9playMorse>
    1632:	83 e6       	ldi	r24, 0x63	; 99
    1634:	90 e0       	ldi	r25, 0x00	; 0
    1636:	90 93 24 05 	sts	0x0524, r25	; 0x800524 <_ZZ10__vector_8E13starting_blip+0x1>
    163a:	80 93 23 05 	sts	0x0523, r24	; 0x800523 <_ZZ10__vector_8E13starting_blip>
    163e:	14 c0       	rjmp	.+40     	; 0x1668 <__vector_8+0x1d0>
    1640:	10 92 24 05 	sts	0x0524, r1	; 0x800524 <_ZZ10__vector_8E13starting_blip+0x1>
    1644:	10 92 23 05 	sts	0x0523, r1	; 0x800523 <_ZZ10__vector_8E13starting_blip>
    1648:	87 e2       	ldi	r24, 0x27	; 39
    164a:	9b e0       	ldi	r25, 0x0B	; 11
    164c:	28 c0       	rjmp	.+80     	; 0x169e <__vector_8+0x206>
    164e:	80 91 23 05 	lds	r24, 0x0523	; 0x800523 <_ZZ10__vector_8E13starting_blip>
    1652:	90 91 24 05 	lds	r25, 0x0524	; 0x800524 <_ZZ10__vector_8E13starting_blip+0x1>
    1656:	00 97       	sbiw	r24, 0x00	; 0
    1658:	e1 f0       	breq	.+56     	; 0x1692 <__vector_8+0x1fa>
    165a:	01 97       	sbiw	r24, 0x01	; 1
    165c:	90 93 24 05 	sts	0x0524, r25	; 0x800524 <_ZZ10__vector_8E13starting_blip+0x1>
    1660:	80 93 23 05 	sts	0x0523, r24	; 0x800523 <_ZZ10__vector_8E13starting_blip>
    1664:	89 2b       	or	r24, r25
    1666:	81 f0       	breq	.+32     	; 0x1688 <__vector_8+0x1f0>
    1668:	80 91 dc 05 	lds	r24, 0x05DC	; 0x8005dc <g_lastSeconds>
    166c:	86 30       	cpi	r24, 0x06	; 6
    166e:	30 f0       	brcs	.+12     	; 0x167c <__vector_8+0x1e4>
    1670:	8f e3       	ldi	r24, 0x3F	; 63
    1672:	87 bd       	out	0x27, r24	; 39
    1674:	81 e0       	ldi	r24, 0x01	; 1
    1676:	80 93 dd 05 	sts	0x05DD, r24	; 0x8005dd <g_audio_tone_state>
    167a:	25 c0       	rjmp	.+74     	; 0x16c6 <__vector_8+0x22e>
    167c:	8f e1       	ldi	r24, 0x1F	; 31
    167e:	87 bd       	out	0x27, r24	; 39
    1680:	81 e0       	ldi	r24, 0x01	; 1
    1682:	80 93 dd 05 	sts	0x05DD, r24	; 0x8005dd <g_audio_tone_state>
    1686:	1f c0       	rjmp	.+62     	; 0x16c6 <__vector_8+0x22e>
    1688:	8f e2       	ldi	r24, 0x2F	; 47
    168a:	87 bd       	out	0x27, r24	; 39
    168c:	10 92 dd 05 	sts	0x05DD, r1	; 0x8005dd <g_audio_tone_state>
    1690:	1a c0       	rjmp	.+52     	; 0x16c6 <__vector_8+0x22e>
    1692:	80 91 21 05 	lds	r24, 0x0521	; 0x800521 <_ZZ10__vector_8E13starting_boop>
    1696:	90 91 22 05 	lds	r25, 0x0522	; 0x800522 <_ZZ10__vector_8E13starting_boop+0x1>
    169a:	00 97       	sbiw	r24, 0x00	; 0
    169c:	a1 f0       	breq	.+40     	; 0x16c6 <__vector_8+0x22e>
    169e:	01 97       	sbiw	r24, 0x01	; 1
    16a0:	90 93 22 05 	sts	0x0522, r25	; 0x800522 <_ZZ10__vector_8E13starting_boop+0x1>
    16a4:	80 93 21 05 	sts	0x0521, r24	; 0x800521 <_ZZ10__vector_8E13starting_boop>
    16a8:	89 2b       	or	r24, r25
    16aa:	41 f4       	brne	.+16     	; 0x16bc <__vector_8+0x224>
    16ac:	8f e2       	ldi	r24, 0x2F	; 47
    16ae:	87 bd       	out	0x27, r24	; 39
    16b0:	10 92 dd 05 	sts	0x05DD, r1	; 0x8005dd <g_audio_tone_state>
    16b4:	81 e0       	ldi	r24, 0x01	; 1
    16b6:	80 93 0f 01 	sts	0x010F, r24	; 0x80010f <_ZZ10__vector_8E9playMorse>
    16ba:	05 c0       	rjmp	.+10     	; 0x16c6 <__vector_8+0x22e>
    16bc:	8f e4       	ldi	r24, 0x4F	; 79
    16be:	87 bd       	out	0x27, r24	; 39
    16c0:	81 e0       	ldi	r24, 0x01	; 1
    16c2:	80 93 dd 05 	sts	0x05DD, r24	; 0x8005dd <g_audio_tone_state>
    16c6:	80 91 20 01 	lds	r24, 0x0120	; 0x800120 <g_transmissions_disabled>
    16ca:	81 11       	cpse	r24, r1
    16cc:	92 c0       	rjmp	.+292    	; 0x17f2 <__vector_8+0x35a>
    16ce:	80 91 fa 05 	lds	r24, 0x05FA	; 0x8005fa <g_on_the_air>
    16d2:	90 91 fb 05 	lds	r25, 0x05FB	; 0x8005fb <g_on_the_air+0x1>
    16d6:	89 2b       	or	r24, r25
    16d8:	09 f0       	breq	.+2      	; 0x16dc <__vector_8+0x244>
    16da:	83 c0       	rjmp	.+262    	; 0x17e2 <__vector_8+0x34a>
    16dc:	8a c0       	rjmp	.+276    	; 0x17f2 <__vector_8+0x35a>
    16de:	01 97       	sbiw	r24, 0x01	; 1
    16e0:	90 93 20 05 	sts	0x0520, r25	; 0x800520 <_ZZ10__vector_8E7codeInc+0x1>
    16e4:	80 93 1f 05 	sts	0x051F, r24	; 0x80051f <_ZZ10__vector_8E7codeInc>
    16e8:	89 2b       	or	r24, r25
    16ea:	09 f0       	breq	.+2      	; 0x16ee <__vector_8+0x256>
    16ec:	8d c0       	rjmp	.+282    	; 0x1808 <__vector_8+0x370>
    16ee:	ae 01       	movw	r20, r28
    16f0:	4e 5f       	subi	r20, 0xFE	; 254
    16f2:	5f 4f       	sbci	r21, 0xFF	; 255
    16f4:	be 01       	movw	r22, r28
    16f6:	6f 5f       	subi	r22, 0xFF	; 255
    16f8:	7f 4f       	sbci	r23, 0xFF	; 255
    16fa:	80 e0       	ldi	r24, 0x00	; 0
    16fc:	90 e0       	ldi	r25, 0x00	; 0
    16fe:	0e 94 0c 21 	call	0x4218	; 0x4218 <_Z9makeMorsePcPhS0_>
    1702:	80 93 1e 05 	sts	0x051E, r24	; 0x80051e <_ZZ10__vector_8E3key>
    1706:	99 81       	ldd	r25, Y+1	; 0x01
    1708:	91 11       	cpse	r25, r1
    170a:	11 c0       	rjmp	.+34     	; 0x172e <__vector_8+0x296>
    170c:	9a 81       	ldd	r25, Y+2	; 0x02
    170e:	99 23       	and	r25, r25
    1710:	71 f0       	breq	.+28     	; 0x172e <__vector_8+0x296>
    1712:	10 92 1e 05 	sts	0x051E, r1	; 0x80051e <_ZZ10__vector_8E3key>
    1716:	81 e0       	ldi	r24, 0x01	; 1
    1718:	80 93 f7 05 	sts	0x05F7, r24	; 0x8005f7 <g_callsign_sent>
    171c:	80 91 0f 01 	lds	r24, 0x010F	; 0x80010f <_ZZ10__vector_8E9playMorse>
    1720:	88 23       	and	r24, r24
    1722:	09 f4       	brne	.+2      	; 0x1726 <__vector_8+0x28e>
    1724:	71 c0       	rjmp	.+226    	; 0x1808 <__vector_8+0x370>
    1726:	80 e0       	ldi	r24, 0x00	; 0
    1728:	0e 94 39 0a 	call	0x1472	; 0x1472 <_Z13sendMorseToneh>
    172c:	17 c0       	rjmp	.+46     	; 0x175c <__vector_8+0x2c4>
    172e:	88 23       	and	r24, r24
    1730:	81 f0       	breq	.+32     	; 0x1752 <__vector_8+0x2ba>
    1732:	80 91 71 05 	lds	r24, 0x0571	; 0x800571 <_ZL16g_LEDs_Timed_Out>
    1736:	81 11       	cpse	r24, r1
    1738:	04 c0       	rjmp	.+8      	; 0x1742 <__vector_8+0x2aa>
    173a:	61 e0       	ldi	r22, 0x01	; 1
    173c:	87 e0       	ldi	r24, 0x07	; 7
    173e:	0e 94 2f 02 	call	0x45e	; 0x45e <_Z12digitalWritehh>
    1742:	80 91 a6 05 	lds	r24, 0x05A6	; 0x8005a6 <_ZL20g_enable_transmitter>
    1746:	88 23       	and	r24, r24
    1748:	21 f0       	breq	.+8      	; 0x1752 <__vector_8+0x2ba>
    174a:	61 e0       	ldi	r22, 0x01	; 1
    174c:	8a e0       	ldi	r24, 0x0A	; 10
    174e:	0e 94 2f 02 	call	0x45e	; 0x45e <_Z12digitalWritehh>
    1752:	80 91 0f 01 	lds	r24, 0x010F	; 0x80010f <_ZZ10__vector_8E9playMorse>
    1756:	88 23       	and	r24, r24
    1758:	09 f4       	brne	.+2      	; 0x175c <__vector_8+0x2c4>
    175a:	56 c0       	rjmp	.+172    	; 0x1808 <__vector_8+0x370>
    175c:	80 91 1e 05 	lds	r24, 0x051E	; 0x80051e <_ZZ10__vector_8E3key>
    1760:	0e 94 39 0a 	call	0x1472	; 0x1472 <_Z13sendMorseToneh>
    1764:	51 c0       	rjmp	.+162    	; 0x1808 <__vector_8+0x370>
    1766:	80 91 71 05 	lds	r24, 0x0571	; 0x800571 <_ZL16g_LEDs_Timed_Out>
    176a:	81 11       	cpse	r24, r1
    176c:	05 c0       	rjmp	.+10     	; 0x1778 <__vector_8+0x2e0>
    176e:	80 91 d9 05 	lds	r24, 0x05D9	; 0x8005d9 <g_sync_pin_stable>
    1772:	88 23       	and	r24, r24
    1774:	09 f4       	brne	.+2      	; 0x1778 <__vector_8+0x2e0>
    1776:	42 c0       	rjmp	.+132    	; 0x17fc <__vector_8+0x364>
    1778:	80 91 a6 05 	lds	r24, 0x05A6	; 0x8005a6 <_ZL20g_enable_transmitter>
    177c:	88 23       	and	r24, r24
    177e:	29 f0       	breq	.+10     	; 0x178a <__vector_8+0x2f2>
    1780:	60 91 1e 05 	lds	r22, 0x051E	; 0x80051e <_ZZ10__vector_8E3key>
    1784:	8a e0       	ldi	r24, 0x0A	; 10
    1786:	0e 94 2f 02 	call	0x45e	; 0x45e <_Z12digitalWritehh>
    178a:	80 91 f8 05 	lds	r24, 0x05F8	; 0x8005f8 <g_code_throttle>
    178e:	90 91 f9 05 	lds	r25, 0x05F9	; 0x8005f9 <g_code_throttle+0x1>
    1792:	90 93 20 05 	sts	0x0520, r25	; 0x800520 <_ZZ10__vector_8E7codeInc+0x1>
    1796:	80 93 1f 05 	sts	0x051F, r24	; 0x80051f <_ZZ10__vector_8E7codeInc>
    179a:	80 91 0f 01 	lds	r24, 0x010F	; 0x80010f <_ZZ10__vector_8E9playMorse>
    179e:	88 23       	and	r24, r24
    17a0:	99 f1       	breq	.+102    	; 0x1808 <__vector_8+0x370>
    17a2:	80 91 1e 05 	lds	r24, 0x051E	; 0x80051e <_ZZ10__vector_8E3key>
    17a6:	0e 94 39 0a 	call	0x1472	; 0x1472 <_Z13sendMorseToneh>
    17aa:	2e c0       	rjmp	.+92     	; 0x1808 <__vector_8+0x370>
    17ac:	10 92 1e 05 	sts	0x051E, r1	; 0x80051e <_ZZ10__vector_8E3key>
    17b0:	80 91 d9 05 	lds	r24, 0x05D9	; 0x8005d9 <g_sync_pin_stable>
    17b4:	81 11       	cpse	r24, r1
    17b6:	04 c0       	rjmp	.+8      	; 0x17c0 <__vector_8+0x328>
    17b8:	60 e0       	ldi	r22, 0x00	; 0
    17ba:	87 e0       	ldi	r24, 0x07	; 7
    17bc:	0e 94 2f 02 	call	0x45e	; 0x45e <_Z12digitalWritehh>
    17c0:	60 e0       	ldi	r22, 0x00	; 0
    17c2:	8a e0       	ldi	r24, 0x0A	; 10
    17c4:	0e 94 2f 02 	call	0x45e	; 0x45e <_Z12digitalWritehh>
    17c8:	80 91 0f 01 	lds	r24, 0x010F	; 0x80010f <_ZZ10__vector_8E9playMorse>
    17cc:	88 23       	and	r24, r24
    17ce:	e1 f0       	breq	.+56     	; 0x1808 <__vector_8+0x370>
    17d0:	80 e0       	ldi	r24, 0x00	; 0
    17d2:	0e 94 39 0a 	call	0x1472	; 0x1472 <_Z13sendMorseToneh>
    17d6:	18 c0       	rjmp	.+48     	; 0x1808 <__vector_8+0x370>
    17d8:	80 91 d8 05 	lds	r24, 0x05D8	; 0x8005d8 <g_dtmf_detected>
    17dc:	81 11       	cpse	r24, r1
    17de:	f8 ce       	rjmp	.-528    	; 0x15d0 <__vector_8+0x138>
    17e0:	04 cf       	rjmp	.-504    	; 0x15ea <__vector_8+0x152>
    17e2:	80 91 1f 05 	lds	r24, 0x051F	; 0x80051f <_ZZ10__vector_8E7codeInc>
    17e6:	90 91 20 05 	lds	r25, 0x0520	; 0x800520 <_ZZ10__vector_8E7codeInc+0x1>
    17ea:	00 97       	sbiw	r24, 0x00	; 0
    17ec:	09 f0       	breq	.+2      	; 0x17f0 <__vector_8+0x358>
    17ee:	77 cf       	rjmp	.-274    	; 0x16de <__vector_8+0x246>
    17f0:	ba cf       	rjmp	.-140    	; 0x1766 <__vector_8+0x2ce>
    17f2:	80 91 1e 05 	lds	r24, 0x051E	; 0x80051e <_ZZ10__vector_8E3key>
    17f6:	81 11       	cpse	r24, r1
    17f8:	d9 cf       	rjmp	.-78     	; 0x17ac <__vector_8+0x314>
    17fa:	e6 cf       	rjmp	.-52     	; 0x17c8 <__vector_8+0x330>
    17fc:	60 91 1e 05 	lds	r22, 0x051E	; 0x80051e <_ZZ10__vector_8E3key>
    1800:	87 e0       	ldi	r24, 0x07	; 7
    1802:	0e 94 2f 02 	call	0x45e	; 0x45e <_Z12digitalWritehh>
    1806:	b8 cf       	rjmp	.-144    	; 0x1778 <__vector_8+0x2e0>
    1808:	0f 90       	pop	r0
    180a:	0f 90       	pop	r0
    180c:	df 91       	pop	r29
    180e:	cf 91       	pop	r28
    1810:	ff 91       	pop	r31
    1812:	ef 91       	pop	r30
    1814:	bf 91       	pop	r27
    1816:	af 91       	pop	r26
    1818:	9f 91       	pop	r25
    181a:	8f 91       	pop	r24
    181c:	7f 91       	pop	r23
    181e:	6f 91       	pop	r22
    1820:	5f 91       	pop	r21
    1822:	4f 91       	pop	r20
    1824:	3f 91       	pop	r19
    1826:	2f 91       	pop	r18
    1828:	0f 90       	pop	r0
    182a:	0f be       	out	0x3f, r0	; 63
    182c:	0f 90       	pop	r0
    182e:	1f 90       	pop	r1
    1830:	18 95       	reti

00001832 <_Z20initializeEEPROMVarsh>:

/*
 * Set non-volatile variables to their values stored in EEPROM
 */
void initializeEEPROMVars(BOOL resetAll)
{
    1832:	cf 92       	push	r12
    1834:	df 92       	push	r13
    1836:	ef 92       	push	r14
    1838:	ff 92       	push	r15
    183a:	0f 93       	push	r16
    183c:	1f 93       	push	r17
    183e:	cf 93       	push	r28
    1840:	df 93       	push	r29
    1842:	c8 2f       	mov	r28, r24
	uint16_t i;
	uint8_t initialization_flag = eeprom_read_byte(&ee_interface_eeprom_initialization_flag);
    1844:	86 e3       	ldi	r24, 0x36	; 54
    1846:	92 e0       	ldi	r25, 0x02	; 2
    1848:	0e 94 1d 2d 	call	0x5a3a	; 0x5a3a <eeprom_read_byte>
    184c:	d8 2f       	mov	r29, r24

	i2c_init();                                                         /* Needs to happen here */
    184e:	0e 94 72 04 	call	0x8e4	; 0x8e4 <_Z8i2c_initv>

	if(!resetAll && (initialization_flag == EEPROM_INITIALIZED_FLAG))   /* EEPROM is up to date */
    1852:	c1 11       	cpse	r28, r1
    1854:	01 c2       	rjmp	.+1026   	; 0x1c58 <_Z20initializeEEPROMVarsh+0x426>
    1856:	da 3b       	cpi	r29, 0xBA	; 186
    1858:	09 f0       	breq	.+2      	; 0x185c <_Z20initializeEEPROMVarsh+0x2a>
    185a:	6b c0       	rjmp	.+214    	; 0x1932 <_Z20initializeEEPROMVarsh+0x100>
	{
		g_id_codespeed = CLAMP(MIN_CODE_SPEED_WPM,eeprom_read_byte(&ee_id_codespeed),MAX_CODE_SPEED_WPM);
    185c:	88 ea       	ldi	r24, 0xA8	; 168
    185e:	91 e0       	ldi	r25, 0x01	; 1
    1860:	0e 94 1d 2d 	call	0x5a3a	; 0x5a3a <eeprom_read_byte>
    1864:	90 e0       	ldi	r25, 0x00	; 0
    1866:	85 30       	cpi	r24, 0x05	; 5
    1868:	91 05       	cpc	r25, r1
    186a:	14 f4       	brge	.+4      	; 0x1870 <_Z20initializeEEPROMVarsh+0x3e>
    186c:	85 e0       	ldi	r24, 0x05	; 5
    186e:	90 e0       	ldi	r25, 0x00	; 0
    1870:	85 31       	cpi	r24, 0x15	; 21
    1872:	91 05       	cpc	r25, r1
    1874:	14 f0       	brlt	.+4      	; 0x187a <_Z20initializeEEPROMVarsh+0x48>
    1876:	84 e1       	ldi	r24, 0x14	; 20
    1878:	90 e0       	ldi	r25, 0x00	; 0
    187a:	80 93 18 01 	sts	0x0118, r24	; 0x800118 <_ZL14g_id_codespeed>
		g_fox = CLAMP(BEACON,(Fox_t)eeprom_read_byte(&ee_fox_setting),NO_CODE_START_TONES_5M);
    187e:	87 ea       	ldi	r24, 0xA7	; 167
    1880:	91 e0       	ldi	r25, 0x01	; 1
    1882:	0e 94 1d 2d 	call	0x5a3a	; 0x5a3a <eeprom_read_byte>
    1886:	86 31       	cpi	r24, 0x16	; 22
    1888:	08 f0       	brcs	.+2      	; 0x188c <_Z20initializeEEPROMVarsh+0x5a>
    188a:	85 e1       	ldi	r24, 0x15	; 21
    188c:	80 93 fc 05 	sts	0x05FC, r24	; 0x8005fc <g_fox>
/*		g_clock_calibration = eeprom_read_word(&ee_clock_calibration); */
		g_temp_calibration = (int16_t)eeprom_read_word((uint16_t*)&ee_temp_calibration);
    1890:	84 ea       	ldi	r24, 0xA4	; 164
    1892:	91 e0       	ldi	r25, 0x01	; 1
    1894:	0e 94 2b 2d 	call	0x5a56	; 0x5a56 <eeprom_read_word>
    1898:	90 93 16 01 	sts	0x0116, r25	; 0x800116 <_ZL18g_temp_calibration+0x1>
    189c:	80 93 15 01 	sts	0x0115, r24	; 0x800115 <_ZL18g_temp_calibration>
		g_rv3028_offset = (int16_t)eeprom_read_word((uint16_t*)&ee_rv3028_offset);
    18a0:	82 ea       	ldi	r24, 0xA2	; 162
    18a2:	91 e0       	ldi	r25, 0x01	; 1
    18a4:	0e 94 2b 2d 	call	0x5a56	; 0x5a56 <eeprom_read_word>
    18a8:	90 93 a5 05 	sts	0x05A5, r25	; 0x8005a5 <_ZL15g_rv3028_offset+0x1>
    18ac:	80 93 a4 05 	sts	0x05A4, r24	; 0x8005a4 <_ZL15g_rv3028_offset>
		g_enable_LEDs = eeprom_read_byte(&ee_enable_LEDs);
    18b0:	86 ea       	ldi	r24, 0xA6	; 166
    18b2:	91 e0       	ldi	r25, 0x01	; 1
    18b4:	0e 94 1d 2d 	call	0x5a3a	; 0x5a3a <eeprom_read_byte>
    18b8:	80 93 a8 05 	sts	0x05A8, r24	; 0x8005a8 <_ZL13g_enable_LEDs>
		g_enable_start_timer = eeprom_read_byte(&ee_enable_start_timer);
    18bc:	81 ea       	ldi	r24, 0xA1	; 161
    18be:	91 e0       	ldi	r25, 0x01	; 1
    18c0:	0e 94 1d 2d 	call	0x5a3a	; 0x5a3a <eeprom_read_byte>
    18c4:	80 93 a7 05 	sts	0x05A7, r24	; 0x8005a7 <_ZL20g_enable_start_timer>
		g_enable_transmitter = eeprom_read_byte(&ee_enable_transmitter);
    18c8:	80 ea       	ldi	r24, 0xA0	; 160
    18ca:	91 e0       	ldi	r25, 0x01	; 1
    18cc:	0e 94 1d 2d 	call	0x5a3a	; 0x5a3a <eeprom_read_byte>
    18d0:	80 93 a6 05 	sts	0x05A6, r24	; 0x8005a6 <_ZL20g_enable_transmitter>
		g_event_start_epoch = eeprom_read_dword(&ee_event_start_epoch);
    18d4:	8c e9       	ldi	r24, 0x9C	; 156
    18d6:	91 e0       	ldi	r25, 0x01	; 1
    18d8:	0e 94 25 2d 	call	0x5a4a	; 0x5a4a <eeprom_read_dword>
    18dc:	60 93 ee 05 	sts	0x05EE, r22	; 0x8005ee <g_event_start_epoch>
    18e0:	70 93 ef 05 	sts	0x05EF, r23	; 0x8005ef <g_event_start_epoch+0x1>
    18e4:	80 93 f0 05 	sts	0x05F0, r24	; 0x8005f0 <g_event_start_epoch+0x2>
    18e8:	90 93 f1 05 	sts	0x05F1, r25	; 0x8005f1 <g_event_start_epoch+0x3>
		g_event_finish_epoch = eeprom_read_dword(&ee_event_finish_epoch);
    18ec:	88 e9       	ldi	r24, 0x98	; 152
    18ee:	91 e0       	ldi	r25, 0x01	; 1
    18f0:	0e 94 25 2d 	call	0x5a4a	; 0x5a4a <eeprom_read_dword>
    18f4:	60 93 ea 05 	sts	0x05EA, r22	; 0x8005ea <g_event_finish_epoch>
    18f8:	70 93 eb 05 	sts	0x05EB, r23	; 0x8005eb <g_event_finish_epoch+0x1>
    18fc:	80 93 ec 05 	sts	0x05EC, r24	; 0x8005ec <g_event_finish_epoch+0x2>
    1900:	90 93 ed 05 	sts	0x05ED, r25	; 0x8005ed <g_event_finish_epoch+0x3>
    1904:	01 e2       	ldi	r16, 0x21	; 33
    1906:	12 e0       	ldi	r17, 0x02	; 2
    1908:	c0 ec       	ldi	r28, 0xC0	; 192
    190a:	d5 e0       	ldi	r29, 0x05	; 5
    190c:	0f 2e       	mov	r0, r31
    190e:	f4 ed       	ldi	r31, 0xD4	; 212
    1910:	ef 2e       	mov	r14, r31
    1912:	f5 e0       	ldi	r31, 0x05	; 5
    1914:	ff 2e       	mov	r15, r31
    1916:	f0 2d       	mov	r31, r0

		for(i = 0; i < MAX_PATTERN_TEXT_LENGTH; i++)
		{
			g_messages_text[STATION_ID][i] = (char)eeprom_read_byte((uint8_t*)(&ee_stationID_text[i]));
    1918:	c8 01       	movw	r24, r16
    191a:	0e 94 1d 2d 	call	0x5a3a	; 0x5a3a <eeprom_read_byte>
    191e:	89 93       	st	Y+, r24
			if(!g_messages_text[STATION_ID][i])
    1920:	88 23       	and	r24, r24
    1922:	09 f4       	brne	.+2      	; 0x1926 <_Z20initializeEEPROMVarsh+0xf4>
    1924:	50 c1       	rjmp	.+672    	; 0x1bc6 <_Z20initializeEEPROMVarsh+0x394>
    1926:	0f 5f       	subi	r16, 0xFF	; 255
    1928:	1f 4f       	sbci	r17, 0xFF	; 255
		g_enable_start_timer = eeprom_read_byte(&ee_enable_start_timer);
		g_enable_transmitter = eeprom_read_byte(&ee_enable_transmitter);
		g_event_start_epoch = eeprom_read_dword(&ee_event_start_epoch);
		g_event_finish_epoch = eeprom_read_dword(&ee_event_finish_epoch);

		for(i = 0; i < MAX_PATTERN_TEXT_LENGTH; i++)
    192a:	ce 15       	cp	r28, r14
    192c:	df 05       	cpc	r29, r15
    192e:	a1 f7       	brne	.-24     	; 0x1918 <_Z20initializeEEPROMVarsh+0xe6>
    1930:	4a c1       	rjmp	.+660    	; 0x1bc6 <_Z20initializeEEPROMVarsh+0x394>
			}
		}
	}
	else    /* EEPROM is missing some updates */
	{
		if(resetAll || (eeprom_read_byte(&ee_id_codespeed) == 0xFF))
    1932:	88 ea       	ldi	r24, 0xA8	; 168
    1934:	91 e0       	ldi	r25, 0x01	; 1
    1936:	0e 94 1d 2d 	call	0x5a3a	; 0x5a3a <eeprom_read_byte>
    193a:	8f 3f       	cpi	r24, 0xFF	; 255
    193c:	09 f4       	brne	.+2      	; 0x1940 <_Z20initializeEEPROMVarsh+0x10e>
    193e:	7b c1       	rjmp	.+758    	; 0x1c36 <_Z20initializeEEPROMVarsh+0x404>
			g_id_codespeed = EEPROM_ID_CODE_SPEED_DEFAULT;
			eeprom_update_byte(&ee_id_codespeed,g_id_codespeed);
		}
		else
		{
			g_id_codespeed = CLAMP(MIN_CODE_SPEED_WPM,eeprom_read_byte(&ee_id_codespeed),MAX_CODE_SPEED_WPM);
    1940:	90 e0       	ldi	r25, 0x00	; 0
    1942:	85 30       	cpi	r24, 0x05	; 5
    1944:	91 05       	cpc	r25, r1
    1946:	14 f4       	brge	.+4      	; 0x194c <_Z20initializeEEPROMVarsh+0x11a>
    1948:	85 e0       	ldi	r24, 0x05	; 5
    194a:	90 e0       	ldi	r25, 0x00	; 0
    194c:	85 31       	cpi	r24, 0x15	; 21
    194e:	91 05       	cpc	r25, r1
    1950:	14 f0       	brlt	.+4      	; 0x1956 <_Z20initializeEEPROMVarsh+0x124>
    1952:	84 e1       	ldi	r24, 0x14	; 20
    1954:	90 e0       	ldi	r25, 0x00	; 0
    1956:	80 93 18 01 	sts	0x0118, r24	; 0x800118 <_ZL14g_id_codespeed>
		}

		if(resetAll || (eeprom_read_byte(&ee_fox_setting) == 0xFF))
    195a:	87 ea       	ldi	r24, 0xA7	; 167
    195c:	91 e0       	ldi	r25, 0x01	; 1
    195e:	0e 94 1d 2d 	call	0x5a3a	; 0x5a3a <eeprom_read_byte>
    1962:	8f 3f       	cpi	r24, 0xFF	; 255
    1964:	61 f4       	brne	.+24     	; 0x197e <_Z20initializeEEPROMVarsh+0x14c>
    1966:	82 c1       	rjmp	.+772    	; 0x1c6c <_Z20initializeEEPROMVarsh+0x43a>
		{
			g_fox = EEPROM_FOX_SETTING_DEFAULT;
    1968:	10 92 fc 05 	sts	0x05FC, r1	; 0x8005fc <g_fox>
			eeprom_update_byte(&ee_fox_setting,g_fox);
    196c:	60 91 fc 05 	lds	r22, 0x05FC	; 0x8005fc <g_fox>
    1970:	87 ea       	ldi	r24, 0xA7	; 167
    1972:	91 e0       	ldi	r25, 0x01	; 1
    1974:	0e 94 31 2d 	call	0x5a62	; 0x5a62 <eeprom_update_byte>
 *      else
 *      {
 *          g_clock_calibration = eeprom_read_word(&ee_clock_calibration);
 *      } */

		if(resetAll || ((uint16_t)eeprom_read_word((uint16_t*)&ee_temp_calibration) == 0xFFFF))
    1978:	c1 11       	cpse	r28, r1
    197a:	0e c0       	rjmp	.+28     	; 0x1998 <_Z20initializeEEPROMVarsh+0x166>
    197c:	05 c0       	rjmp	.+10     	; 0x1988 <_Z20initializeEEPROMVarsh+0x156>
    197e:	87 31       	cpi	r24, 0x17	; 23
    1980:	08 f0       	brcs	.+2      	; 0x1984 <_Z20initializeEEPROMVarsh+0x152>
    1982:	86 e1       	ldi	r24, 0x16	; 22
			g_fox = EEPROM_FOX_SETTING_DEFAULT;
			eeprom_update_byte(&ee_fox_setting,g_fox);
		}
		else
		{
			g_fox = CLAMP(BEACON,(Fox_t)eeprom_read_byte(&ee_fox_setting),INVALID_FOX);
    1984:	80 93 fc 05 	sts	0x05FC, r24	; 0x8005fc <g_fox>
 *      else
 *      {
 *          g_clock_calibration = eeprom_read_word(&ee_clock_calibration);
 *      } */

		if(resetAll || ((uint16_t)eeprom_read_word((uint16_t*)&ee_temp_calibration) == 0xFFFF))
    1988:	84 ea       	ldi	r24, 0xA4	; 164
    198a:	91 e0       	ldi	r25, 0x01	; 1
    198c:	0e 94 2b 2d 	call	0x5a56	; 0x5a56 <eeprom_read_word>
    1990:	8f 3f       	cpi	r24, 0xFF	; 255
    1992:	2f ef       	ldi	r18, 0xFF	; 255
    1994:	92 07       	cpc	r25, r18
    1996:	79 f4       	brne	.+30     	; 0x19b6 <_Z20initializeEEPROMVarsh+0x184>
		{
			g_temp_calibration = EEPROM_TEMP_CALIBRATION_DEFAULT;
    1998:	82 e9       	ldi	r24, 0x92	; 146
    199a:	9f ef       	ldi	r25, 0xFF	; 255
    199c:	90 93 16 01 	sts	0x0116, r25	; 0x800116 <_ZL18g_temp_calibration+0x1>
    19a0:	80 93 15 01 	sts	0x0115, r24	; 0x800115 <_ZL18g_temp_calibration>
			eeprom_update_word((uint16_t*)&ee_temp_calibration,(uint16_t)g_temp_calibration);
    19a4:	60 91 15 01 	lds	r22, 0x0115	; 0x800115 <_ZL18g_temp_calibration>
    19a8:	70 91 16 01 	lds	r23, 0x0116	; 0x800116 <_ZL18g_temp_calibration+0x1>
    19ac:	84 ea       	ldi	r24, 0xA4	; 164
    19ae:	91 e0       	ldi	r25, 0x01	; 1
    19b0:	0e 94 4f 2d 	call	0x5a9e	; 0x5a9e <eeprom_update_word>
    19b4:	04 c0       	rjmp	.+8      	; 0x19be <_Z20initializeEEPROMVarsh+0x18c>
		}
		else
		{
			g_temp_calibration = (int16_t)eeprom_read_word((uint16_t*)&ee_temp_calibration);
    19b6:	90 93 16 01 	sts	0x0116, r25	; 0x800116 <_ZL18g_temp_calibration+0x1>
    19ba:	80 93 15 01 	sts	0x0115, r24	; 0x800115 <_ZL18g_temp_calibration>
		}

		if((uint16_t)eeprom_read_word((uint16_t*)&ee_rv3028_offset) == 0xFFFF)
    19be:	82 ea       	ldi	r24, 0xA2	; 162
    19c0:	91 e0       	ldi	r25, 0x01	; 1
    19c2:	0e 94 2b 2d 	call	0x5a56	; 0x5a56 <eeprom_read_word>
    19c6:	8f 3f       	cpi	r24, 0xFF	; 255
    19c8:	ef ef       	ldi	r30, 0xFF	; 255
    19ca:	9e 07       	cpc	r25, r30
    19cc:	91 f4       	brne	.+36     	; 0x19f2 <_Z20initializeEEPROMVarsh+0x1c0>
		{
			g_rv3028_offset = rv3028_get_offset_RAM();
    19ce:	0e 94 bb 23 	call	0x4776	; 0x4776 <_Z21rv3028_get_offset_RAMv>
    19d2:	90 93 a5 05 	sts	0x05A5, r25	; 0x8005a5 <_ZL15g_rv3028_offset+0x1>
    19d6:	80 93 a4 05 	sts	0x05A4, r24	; 0x8005a4 <_ZL15g_rv3028_offset>
			eeprom_update_word((uint16_t*)&ee_rv3028_offset,(uint16_t)g_rv3028_offset);
    19da:	60 91 a4 05 	lds	r22, 0x05A4	; 0x8005a4 <_ZL15g_rv3028_offset>
    19de:	70 91 a5 05 	lds	r23, 0x05A5	; 0x8005a5 <_ZL15g_rv3028_offset+0x1>
    19e2:	82 ea       	ldi	r24, 0xA2	; 162
    19e4:	91 e0       	ldi	r25, 0x01	; 1
    19e6:	0e 94 4f 2d 	call	0x5a9e	; 0x5a9e <eeprom_update_word>
			g_allow_rv3028_eeprom_changes = TRUE;   /* Allow 1-sec interrupt to get permanently saved within the RTC EEPROM */
    19ea:	81 e0       	ldi	r24, 0x01	; 1
    19ec:	80 93 0d 06 	sts	0x060D, r24	; 0x80060d <g_allow_rv3028_eeprom_changes>
    19f0:	04 c0       	rjmp	.+8      	; 0x19fa <_Z20initializeEEPROMVarsh+0x1c8>
		}
		else
		{
			g_rv3028_offset = (int16_t)eeprom_read_word((uint16_t*)&ee_rv3028_offset);
    19f2:	90 93 a5 05 	sts	0x05A5, r25	; 0x8005a5 <_ZL15g_rv3028_offset+0x1>
    19f6:	80 93 a4 05 	sts	0x05A4, r24	; 0x8005a4 <_ZL15g_rv3028_offset>
		}

		if(resetAll || (eeprom_read_byte(&ee_enable_LEDs) == 0xFF))
    19fa:	c1 11       	cpse	r28, r1
    19fc:	4a c1       	rjmp	.+660    	; 0x1c92 <_Z20initializeEEPROMVarsh+0x460>
    19fe:	86 ea       	ldi	r24, 0xA6	; 166
    1a00:	91 e0       	ldi	r25, 0x01	; 1
    1a02:	0e 94 1d 2d 	call	0x5a3a	; 0x5a3a <eeprom_read_byte>
    1a06:	8f 3f       	cpi	r24, 0xFF	; 255
    1a08:	09 f4       	brne	.+2      	; 0x1a0c <_Z20initializeEEPROMVarsh+0x1da>
    1a0a:	39 c1       	rjmp	.+626    	; 0x1c7e <_Z20initializeEEPROMVarsh+0x44c>
			g_enable_LEDs = EEPROM_ENABLE_LEDS_DEFAULT;
			eeprom_update_byte(&ee_enable_LEDs,g_enable_LEDs);  /* Only gets set by a serial command */
		}
		else
		{
			g_enable_LEDs = eeprom_read_byte(&ee_enable_LEDs);
    1a0c:	80 93 a8 05 	sts	0x05A8, r24	; 0x8005a8 <_ZL13g_enable_LEDs>
		}

		if(resetAll || (eeprom_read_byte(&ee_enable_start_timer) == 0xFF))
    1a10:	81 ea       	ldi	r24, 0xA1	; 161
    1a12:	91 e0       	ldi	r25, 0x01	; 1
    1a14:	0e 94 1d 2d 	call	0x5a3a	; 0x5a3a <eeprom_read_byte>
    1a18:	8f 3f       	cpi	r24, 0xFF	; 255
    1a1a:	59 f4       	brne	.+22     	; 0x1a32 <_Z20initializeEEPROMVarsh+0x200>
		{
			g_enable_start_timer = EEPROM_ENABLE_STARTTIMER_DEFAULT;
    1a1c:	10 92 a7 05 	sts	0x05A7, r1	; 0x8005a7 <_ZL20g_enable_start_timer>
			eeprom_update_byte(&ee_enable_start_timer,g_enable_start_timer);    /* Only gets set by a serial command */
    1a20:	60 91 a7 05 	lds	r22, 0x05A7	; 0x8005a7 <_ZL20g_enable_start_timer>
    1a24:	81 ea       	ldi	r24, 0xA1	; 161
    1a26:	91 e0       	ldi	r25, 0x01	; 1
    1a28:	0e 94 31 2d 	call	0x5a62	; 0x5a62 <eeprom_update_byte>
		else
		{
			g_enable_start_timer = eeprom_read_byte(&ee_enable_start_timer);
		}

		if(resetAll || (eeprom_read_byte(&ee_enable_transmitter) == 0xFF))
    1a2c:	c1 11       	cpse	r28, r1
    1a2e:	3b c1       	rjmp	.+630    	; 0x1ca6 <_Z20initializeEEPROMVarsh+0x474>
    1a30:	02 c0       	rjmp	.+4      	; 0x1a36 <_Z20initializeEEPROMVarsh+0x204>
			g_enable_start_timer = EEPROM_ENABLE_STARTTIMER_DEFAULT;
			eeprom_update_byte(&ee_enable_start_timer,g_enable_start_timer);    /* Only gets set by a serial command */
		}
		else
		{
			g_enable_start_timer = eeprom_read_byte(&ee_enable_start_timer);
    1a32:	80 93 a7 05 	sts	0x05A7, r24	; 0x8005a7 <_ZL20g_enable_start_timer>
		}

		if(resetAll || (eeprom_read_byte(&ee_enable_transmitter) == 0xFF))
    1a36:	80 ea       	ldi	r24, 0xA0	; 160
    1a38:	91 e0       	ldi	r25, 0x01	; 1
    1a3a:	0e 94 1d 2d 	call	0x5a3a	; 0x5a3a <eeprom_read_byte>
    1a3e:	8f 3f       	cpi	r24, 0xFF	; 255
    1a40:	61 f4       	brne	.+24     	; 0x1a5a <_Z20initializeEEPROMVarsh+0x228>
		{
			g_enable_transmitter = EEPROM_ENABLE_TRANSMITTER_DEFAULT;
    1a42:	81 e0       	ldi	r24, 0x01	; 1
    1a44:	80 93 a6 05 	sts	0x05A6, r24	; 0x8005a6 <_ZL20g_enable_transmitter>
			eeprom_update_byte(&ee_enable_transmitter,g_enable_transmitter);    /* Only gets set by a serial command */
    1a48:	60 91 a6 05 	lds	r22, 0x05A6	; 0x8005a6 <_ZL20g_enable_transmitter>
    1a4c:	80 ea       	ldi	r24, 0xA0	; 160
    1a4e:	91 e0       	ldi	r25, 0x01	; 1
    1a50:	0e 94 31 2d 	call	0x5a62	; 0x5a62 <eeprom_update_byte>
		else
		{
			g_enable_transmitter = eeprom_read_byte(&ee_enable_transmitter);
		}

		if(resetAll || (eeprom_read_dword(&ee_event_start_epoch) == 0xFFFFFFFF))
    1a54:	cc 23       	and	r28, r28
    1a56:	19 f0       	breq	.+6      	; 0x1a5e <_Z20initializeEEPROMVarsh+0x22c>
    1a58:	30 c1       	rjmp	.+608    	; 0x1cba <_Z20initializeEEPROMVarsh+0x488>
			g_enable_transmitter = EEPROM_ENABLE_TRANSMITTER_DEFAULT;
			eeprom_update_byte(&ee_enable_transmitter,g_enable_transmitter);    /* Only gets set by a serial command */
		}
		else
		{
			g_enable_transmitter = eeprom_read_byte(&ee_enable_transmitter);
    1a5a:	80 93 a6 05 	sts	0x05A6, r24	; 0x8005a6 <_ZL20g_enable_transmitter>
		}

		if(resetAll || (eeprom_read_dword(&ee_event_start_epoch) == 0xFFFFFFFF))
    1a5e:	8c e9       	ldi	r24, 0x9C	; 156
    1a60:	91 e0       	ldi	r25, 0x01	; 1
    1a62:	0e 94 25 2d 	call	0x5a4a	; 0x5a4a <eeprom_read_dword>
    1a66:	6f 3f       	cpi	r22, 0xFF	; 255
    1a68:	ff ef       	ldi	r31, 0xFF	; 255
    1a6a:	7f 07       	cpc	r23, r31
    1a6c:	8f 07       	cpc	r24, r31
    1a6e:	9f 07       	cpc	r25, r31
    1a70:	b9 f4       	brne	.+46     	; 0x1aa0 <_Z20initializeEEPROMVarsh+0x26e>
		{
			g_event_start_epoch = EEPROM_START_EPOCH_DEFAULT;
    1a72:	10 92 ee 05 	sts	0x05EE, r1	; 0x8005ee <g_event_start_epoch>
    1a76:	10 92 ef 05 	sts	0x05EF, r1	; 0x8005ef <g_event_start_epoch+0x1>
    1a7a:	10 92 f0 05 	sts	0x05F0, r1	; 0x8005f0 <g_event_start_epoch+0x2>
    1a7e:	10 92 f1 05 	sts	0x05F1, r1	; 0x8005f1 <g_event_start_epoch+0x3>
			eeprom_update_dword(&ee_event_start_epoch,g_event_start_epoch);
    1a82:	40 91 ee 05 	lds	r20, 0x05EE	; 0x8005ee <g_event_start_epoch>
    1a86:	50 91 ef 05 	lds	r21, 0x05EF	; 0x8005ef <g_event_start_epoch+0x1>
    1a8a:	60 91 f0 05 	lds	r22, 0x05F0	; 0x8005f0 <g_event_start_epoch+0x2>
    1a8e:	70 91 f1 05 	lds	r23, 0x05F1	; 0x8005f1 <g_event_start_epoch+0x3>
    1a92:	8c e9       	ldi	r24, 0x9C	; 156
    1a94:	91 e0       	ldi	r25, 0x01	; 1
    1a96:	0e 94 43 2d 	call	0x5a86	; 0x5a86 <eeprom_update_dword>
		else
		{
			g_event_start_epoch = eeprom_read_dword(&ee_event_start_epoch);
		}

		if(resetAll || (eeprom_read_dword(&ee_event_finish_epoch) == 0xFFFFFFFF))
    1a9a:	c1 11       	cpse	r28, r1
    1a9c:	44 c1       	rjmp	.+648    	; 0x1d26 <_Z20initializeEEPROMVarsh+0x4f4>
    1a9e:	37 c1       	rjmp	.+622    	; 0x1d0e <_Z20initializeEEPROMVarsh+0x4dc>
			g_event_start_epoch = EEPROM_START_EPOCH_DEFAULT;
			eeprom_update_dword(&ee_event_start_epoch,g_event_start_epoch);
		}
		else
		{
			g_event_start_epoch = eeprom_read_dword(&ee_event_start_epoch);
    1aa0:	60 93 ee 05 	sts	0x05EE, r22	; 0x8005ee <g_event_start_epoch>
    1aa4:	70 93 ef 05 	sts	0x05EF, r23	; 0x8005ef <g_event_start_epoch+0x1>
    1aa8:	80 93 f0 05 	sts	0x05F0, r24	; 0x8005f0 <g_event_start_epoch+0x2>
    1aac:	90 93 f1 05 	sts	0x05F1, r25	; 0x8005f1 <g_event_start_epoch+0x3>
		}

		if(resetAll || (eeprom_read_dword(&ee_event_finish_epoch) == 0xFFFFFFFF))
    1ab0:	88 e9       	ldi	r24, 0x98	; 152
    1ab2:	91 e0       	ldi	r25, 0x01	; 1
    1ab4:	0e 94 25 2d 	call	0x5a4a	; 0x5a4a <eeprom_read_dword>
    1ab8:	6f 3f       	cpi	r22, 0xFF	; 255
    1aba:	2f ef       	ldi	r18, 0xFF	; 255
    1abc:	72 07       	cpc	r23, r18
    1abe:	82 07       	cpc	r24, r18
    1ac0:	92 07       	cpc	r25, r18
    1ac2:	b9 f4       	brne	.+46     	; 0x1af2 <_Z20initializeEEPROMVarsh+0x2c0>
		{
			g_event_start_epoch = EEPROM_START_EPOCH_DEFAULT;
    1ac4:	10 92 ee 05 	sts	0x05EE, r1	; 0x8005ee <g_event_start_epoch>
    1ac8:	10 92 ef 05 	sts	0x05EF, r1	; 0x8005ef <g_event_start_epoch+0x1>
    1acc:	10 92 f0 05 	sts	0x05F0, r1	; 0x8005f0 <g_event_start_epoch+0x2>
    1ad0:	10 92 f1 05 	sts	0x05F1, r1	; 0x8005f1 <g_event_start_epoch+0x3>
			eeprom_update_dword(&ee_event_finish_epoch,g_event_start_epoch);
    1ad4:	40 91 ee 05 	lds	r20, 0x05EE	; 0x8005ee <g_event_start_epoch>
    1ad8:	50 91 ef 05 	lds	r21, 0x05EF	; 0x8005ef <g_event_start_epoch+0x1>
    1adc:	60 91 f0 05 	lds	r22, 0x05F0	; 0x8005f0 <g_event_start_epoch+0x2>
    1ae0:	70 91 f1 05 	lds	r23, 0x05F1	; 0x8005f1 <g_event_start_epoch+0x3>
    1ae4:	88 e9       	ldi	r24, 0x98	; 152
    1ae6:	91 e0       	ldi	r25, 0x01	; 1
    1ae8:	0e 94 43 2d 	call	0x5a86	; 0x5a86 <eeprom_update_dword>
		else
		{
			g_event_start_epoch = eeprom_read_dword(&ee_event_finish_epoch);
		}

		if(resetAll || (eeprom_read_byte((uint8_t*)(&ee_stationID_text[0])) == 0xFF))
    1aec:	cc 23       	and	r28, r28
    1aee:	49 f0       	breq	.+18     	; 0x1b02 <_Z20initializeEEPROMVarsh+0x2d0>
    1af0:	0e c0       	rjmp	.+28     	; 0x1b0e <_Z20initializeEEPROMVarsh+0x2dc>
			g_event_start_epoch = EEPROM_START_EPOCH_DEFAULT;
			eeprom_update_dword(&ee_event_finish_epoch,g_event_start_epoch);
		}
		else
		{
			g_event_start_epoch = eeprom_read_dword(&ee_event_finish_epoch);
    1af2:	60 93 ee 05 	sts	0x05EE, r22	; 0x8005ee <g_event_start_epoch>
    1af6:	70 93 ef 05 	sts	0x05EF, r23	; 0x8005ef <g_event_start_epoch+0x1>
    1afa:	80 93 f0 05 	sts	0x05F0, r24	; 0x8005f0 <g_event_start_epoch+0x2>
    1afe:	90 93 f1 05 	sts	0x05F1, r25	; 0x8005f1 <g_event_start_epoch+0x3>
		}

		if(resetAll || (eeprom_read_byte((uint8_t*)(&ee_stationID_text[0])) == 0xFF))
    1b02:	81 e2       	ldi	r24, 0x21	; 33
    1b04:	92 e0       	ldi	r25, 0x02	; 2
    1b06:	0e 94 1d 2d 	call	0x5a3a	; 0x5a3a <eeprom_read_byte>
    1b0a:	8f 3f       	cpi	r24, 0xFF	; 255
    1b0c:	41 f5       	brne	.+80     	; 0x1b5e <_Z20initializeEEPROMVarsh+0x32c>
		{
			uint16_t i;
			strncpy(g_messages_text[STATION_ID],EEPROM_STATION_ID_DEFAULT,MAX_PATTERN_TEXT_LENGTH);
    1b0e:	44 e1       	ldi	r20, 0x14	; 20
    1b10:	50 e0       	ldi	r21, 0x00	; 0
    1b12:	68 e2       	ldi	r22, 0x28	; 40
    1b14:	71 e0       	ldi	r23, 0x01	; 1
    1b16:	80 ec       	ldi	r24, 0xC0	; 192
    1b18:	95 e0       	ldi	r25, 0x05	; 5
    1b1a:	0e 94 3e 2a 	call	0x547c	; 0x547c <strncpy>
    1b1e:	00 ec       	ldi	r16, 0xC0	; 192
    1b20:	15 e0       	ldi	r17, 0x05	; 5

			for(i = 0; i < strlen(g_messages_text[STATION_ID]); i++)    /* Only gets set by a serial command */
    1b22:	c0 e0       	ldi	r28, 0x00	; 0
    1b24:	d0 e0       	ldi	r29, 0x00	; 0
    1b26:	78 01       	movw	r14, r16
    1b28:	f7 01       	movw	r30, r14
    1b2a:	01 90       	ld	r0, Z+
    1b2c:	00 20       	and	r0, r0
    1b2e:	e9 f7       	brne	.-6      	; 0x1b2a <_Z20initializeEEPROMVarsh+0x2f8>
    1b30:	cf 01       	movw	r24, r30
    1b32:	81 5c       	subi	r24, 0xC1	; 193
    1b34:	95 40       	sbci	r25, 0x05	; 5
    1b36:	c8 17       	cp	r28, r24
    1b38:	d9 07       	cpc	r29, r25
    1b3a:	50 f4       	brcc	.+20     	; 0x1b50 <_Z20initializeEEPROMVarsh+0x31e>
			{
				eeprom_update_byte((uint8_t*)&ee_stationID_text[i],(uint8_t)g_messages_text[STATION_ID][i]);
    1b3c:	f8 01       	movw	r30, r16
    1b3e:	61 91       	ld	r22, Z+
    1b40:	8f 01       	movw	r16, r30
    1b42:	ce 01       	movw	r24, r28
    1b44:	8f 5d       	subi	r24, 0xDF	; 223
    1b46:	9d 4f       	sbci	r25, 0xFD	; 253
    1b48:	0e 94 31 2d 	call	0x5a62	; 0x5a62 <eeprom_update_byte>
		if(resetAll || (eeprom_read_byte((uint8_t*)(&ee_stationID_text[0])) == 0xFF))
		{
			uint16_t i;
			strncpy(g_messages_text[STATION_ID],EEPROM_STATION_ID_DEFAULT,MAX_PATTERN_TEXT_LENGTH);

			for(i = 0; i < strlen(g_messages_text[STATION_ID]); i++)    /* Only gets set by a serial command */
    1b4c:	21 96       	adiw	r28, 0x01	; 1
    1b4e:	ec cf       	rjmp	.-40     	; 0x1b28 <_Z20initializeEEPROMVarsh+0x2f6>
			{
				eeprom_update_byte((uint8_t*)&ee_stationID_text[i],(uint8_t)g_messages_text[STATION_ID][i]);
			}
			eeprom_update_byte((uint8_t*)&ee_stationID_text[i],0);
    1b50:	60 e0       	ldi	r22, 0x00	; 0
    1b52:	ce 01       	movw	r24, r28
    1b54:	8f 5d       	subi	r24, 0xDF	; 223
    1b56:	9d 4f       	sbci	r25, 0xFD	; 253
    1b58:	0e 94 31 2d 	call	0x5a62	; 0x5a62 <eeprom_update_byte>
    1b5c:	5f c0       	rjmp	.+190    	; 0x1c1c <_Z20initializeEEPROMVarsh+0x3ea>
    1b5e:	01 e2       	ldi	r16, 0x21	; 33
    1b60:	12 e0       	ldi	r17, 0x02	; 2
    1b62:	c0 ec       	ldi	r28, 0xC0	; 192
    1b64:	d5 e0       	ldi	r29, 0x05	; 5
    1b66:	0f 2e       	mov	r0, r31
    1b68:	f4 ed       	ldi	r31, 0xD4	; 212
    1b6a:	ef 2e       	mov	r14, r31
    1b6c:	f5 e0       	ldi	r31, 0x05	; 5
    1b6e:	ff 2e       	mov	r15, r31
    1b70:	f0 2d       	mov	r31, r0
		}
		else
		{
			for(i = 0; i < MAX_PATTERN_TEXT_LENGTH; i++)
			{
				g_messages_text[STATION_ID][i] = (char)eeprom_read_byte((uint8_t*)(&ee_stationID_text[i]));
    1b72:	c8 01       	movw	r24, r16
    1b74:	0e 94 1d 2d 	call	0x5a3a	; 0x5a3a <eeprom_read_byte>
    1b78:	89 93       	st	Y+, r24
				if(!g_messages_text[STATION_ID][i])
    1b7a:	88 23       	and	r24, r24
    1b7c:	09 f4       	brne	.+2      	; 0x1b80 <_Z20initializeEEPROMVarsh+0x34e>
    1b7e:	4e c0       	rjmp	.+156    	; 0x1c1c <_Z20initializeEEPROMVarsh+0x3ea>
    1b80:	0f 5f       	subi	r16, 0xFF	; 255
    1b82:	1f 4f       	sbci	r17, 0xFF	; 255
			}
			eeprom_update_byte((uint8_t*)&ee_stationID_text[i],0);
		}
		else
		{
			for(i = 0; i < MAX_PATTERN_TEXT_LENGTH; i++)
    1b84:	ce 15       	cp	r28, r14
    1b86:	df 05       	cpc	r29, r15
    1b88:	a1 f7       	brne	.-24     	; 0x1b72 <_Z20initializeEEPROMVarsh+0x340>
    1b8a:	48 c0       	rjmp	.+144    	; 0x1c1c <_Z20initializeEEPROMVarsh+0x3ea>
		 * ppm frequency change = -0.035 * (T-T0)^2 (10%)
		 * Table[0] = 25C, Table[1] = 24C or 26C, Table[2] = 23C or 27C, etc. */
		for(i = 0; i < SIZE_OF_TEMPERATURE_TABLE; i++)  /* Use 1-degree steps and take advantage of parabola symmetry for -35C to +85C coverage */
		{
			uint16_t val = (uint16_t)(((i * i) * 37L) / 1000L);
			eeprom_update_byte((uint8_t*)&ee_temperature_table[i],val);
    1b8c:	cc 9f       	mul	r28, r28
    1b8e:	90 01       	movw	r18, r0
    1b90:	cd 9f       	mul	r28, r29
    1b92:	30 0d       	add	r19, r0
    1b94:	30 0d       	add	r19, r0
    1b96:	11 24       	eor	r1, r1
    1b98:	a5 e2       	ldi	r26, 0x25	; 37
    1b9a:	b0 e0       	ldi	r27, 0x00	; 0
    1b9c:	0e 94 95 28 	call	0x512a	; 0x512a <__umulhisi3>
    1ba0:	a7 01       	movw	r20, r14
    1ba2:	96 01       	movw	r18, r12
    1ba4:	0e 94 70 28 	call	0x50e0	; 0x50e0 <__divmodsi4>
    1ba8:	62 2f       	mov	r22, r18
    1baa:	c8 01       	movw	r24, r16
    1bac:	0e 94 31 2d 	call	0x5a62	; 0x5a62 <eeprom_update_byte>
		}

		/* Each correction pulse = 1 tick corresponds to 1 / (16384  64) = 0.9537 ppm.
		 * ppm frequency change = -0.035 * (T-T0)^2 (10%)
		 * Table[0] = 25C, Table[1] = 24C or 26C, Table[2] = 23C or 27C, etc. */
		for(i = 0; i < SIZE_OF_TEMPERATURE_TABLE; i++)  /* Use 1-degree steps and take advantage of parabola symmetry for -35C to +85C coverage */
    1bb0:	21 96       	adiw	r28, 0x01	; 1
    1bb2:	0e 5f       	subi	r16, 0xFE	; 254
    1bb4:	1f 4f       	sbci	r17, 0xFF	; 255
    1bb6:	cc 33       	cpi	r28, 0x3C	; 60
    1bb8:	d1 05       	cpc	r29, r1
    1bba:	41 f7       	brne	.-48     	; 0x1b8c <_Z20initializeEEPROMVarsh+0x35a>
		{
			uint16_t val = (uint16_t)(((i * i) * 37L) / 1000L);
			eeprom_update_byte((uint8_t*)&ee_temperature_table[i],val);
		}

		eeprom_write_byte(&ee_interface_eeprom_initialization_flag,EEPROM_INITIALIZED_FLAG);
    1bbc:	6a eb       	ldi	r22, 0xBA	; 186
    1bbe:	86 e3       	ldi	r24, 0x36	; 54
    1bc0:	92 e0       	ldi	r25, 0x02	; 2
    1bc2:	0e 94 55 2d 	call	0x5aaa	; 0x5aaa <eeprom_write_byte>
	}

	if(g_event_finish_epoch <= g_event_start_epoch)
    1bc6:	40 91 ea 05 	lds	r20, 0x05EA	; 0x8005ea <g_event_finish_epoch>
    1bca:	50 91 eb 05 	lds	r21, 0x05EB	; 0x8005eb <g_event_finish_epoch+0x1>
    1bce:	60 91 ec 05 	lds	r22, 0x05EC	; 0x8005ec <g_event_finish_epoch+0x2>
    1bd2:	70 91 ed 05 	lds	r23, 0x05ED	; 0x8005ed <g_event_finish_epoch+0x3>
    1bd6:	80 91 ee 05 	lds	r24, 0x05EE	; 0x8005ee <g_event_start_epoch>
    1bda:	90 91 ef 05 	lds	r25, 0x05EF	; 0x8005ef <g_event_start_epoch+0x1>
    1bde:	a0 91 f0 05 	lds	r26, 0x05F0	; 0x8005f0 <g_event_start_epoch+0x2>
    1be2:	b0 91 f1 05 	lds	r27, 0x05F1	; 0x8005f1 <g_event_start_epoch+0x3>
    1be6:	84 17       	cp	r24, r20
    1be8:	95 07       	cpc	r25, r21
    1bea:	a6 07       	cpc	r26, r22
    1bec:	b7 07       	cpc	r27, r23
    1bee:	08 f4       	brcc	.+2      	; 0x1bf2 <_Z20initializeEEPROMVarsh+0x3c0>
    1bf0:	af c0       	rjmp	.+350    	; 0x1d50 <_Z20initializeEEPROMVarsh+0x51e>
	{
		g_event_finish_epoch = g_event_start_epoch + SECONDS_24H;
    1bf2:	80 91 ee 05 	lds	r24, 0x05EE	; 0x8005ee <g_event_start_epoch>
    1bf6:	90 91 ef 05 	lds	r25, 0x05EF	; 0x8005ef <g_event_start_epoch+0x1>
    1bfa:	a0 91 f0 05 	lds	r26, 0x05F0	; 0x8005f0 <g_event_start_epoch+0x2>
    1bfe:	b0 91 f1 05 	lds	r27, 0x05F1	; 0x8005f1 <g_event_start_epoch+0x3>
    1c02:	80 58       	subi	r24, 0x80	; 128
    1c04:	9e 4a       	sbci	r25, 0xAE	; 174
    1c06:	ae 4f       	sbci	r26, 0xFE	; 254
    1c08:	bf 4f       	sbci	r27, 0xFF	; 255
    1c0a:	80 93 ea 05 	sts	0x05EA, r24	; 0x8005ea <g_event_finish_epoch>
    1c0e:	90 93 eb 05 	sts	0x05EB, r25	; 0x8005eb <g_event_finish_epoch+0x1>
    1c12:	a0 93 ec 05 	sts	0x05EC, r26	; 0x8005ec <g_event_finish_epoch+0x2>
    1c16:	b0 93 ed 05 	sts	0x05ED, r27	; 0x8005ed <g_event_finish_epoch+0x3>
	}

	return;
    1c1a:	9a c0       	rjmp	.+308    	; 0x1d50 <_Z20initializeEEPROMVarsh+0x51e>
    1c1c:	09 ea       	ldi	r16, 0xA9	; 169
    1c1e:	11 e0       	ldi	r17, 0x01	; 1
		if(resetAll || (eeprom_read_byte((uint8_t*)(&ee_stationID_text[0])) == 0xFF))
		{
			uint16_t i;
			strncpy(g_messages_text[STATION_ID],EEPROM_STATION_ID_DEFAULT,MAX_PATTERN_TEXT_LENGTH);

			for(i = 0; i < strlen(g_messages_text[STATION_ID]); i++)    /* Only gets set by a serial command */
    1c20:	c0 e0       	ldi	r28, 0x00	; 0
    1c22:	d0 e0       	ldi	r29, 0x00	; 0
		 * ppm frequency change = -0.035 * (T-T0)^2 (10%)
		 * Table[0] = 25C, Table[1] = 24C or 26C, Table[2] = 23C or 27C, etc. */
		for(i = 0; i < SIZE_OF_TEMPERATURE_TABLE; i++)  /* Use 1-degree steps and take advantage of parabola symmetry for -35C to +85C coverage */
		{
			uint16_t val = (uint16_t)(((i * i) * 37L) / 1000L);
			eeprom_update_byte((uint8_t*)&ee_temperature_table[i],val);
    1c24:	0f 2e       	mov	r0, r31
    1c26:	f8 ee       	ldi	r31, 0xE8	; 232
    1c28:	cf 2e       	mov	r12, r31
    1c2a:	f3 e0       	ldi	r31, 0x03	; 3
    1c2c:	df 2e       	mov	r13, r31
    1c2e:	e1 2c       	mov	r14, r1
    1c30:	f1 2c       	mov	r15, r1
    1c32:	f0 2d       	mov	r31, r0
    1c34:	ab cf       	rjmp	.-170    	; 0x1b8c <_Z20initializeEEPROMVarsh+0x35a>
	}
	else    /* EEPROM is missing some updates */
	{
		if(resetAll || (eeprom_read_byte(&ee_id_codespeed) == 0xFF))
		{
			g_id_codespeed = EEPROM_ID_CODE_SPEED_DEFAULT;
    1c36:	84 e1       	ldi	r24, 0x14	; 20
    1c38:	80 93 18 01 	sts	0x0118, r24	; 0x800118 <_ZL14g_id_codespeed>
			eeprom_update_byte(&ee_id_codespeed,g_id_codespeed);
    1c3c:	60 91 18 01 	lds	r22, 0x0118	; 0x800118 <_ZL14g_id_codespeed>
    1c40:	88 ea       	ldi	r24, 0xA8	; 168
    1c42:	91 e0       	ldi	r25, 0x01	; 1
    1c44:	0e 94 31 2d 	call	0x5a62	; 0x5a62 <eeprom_update_byte>
		else
		{
			g_id_codespeed = CLAMP(MIN_CODE_SPEED_WPM,eeprom_read_byte(&ee_id_codespeed),MAX_CODE_SPEED_WPM);
		}

		if(resetAll || (eeprom_read_byte(&ee_fox_setting) == 0xFF))
    1c48:	87 ea       	ldi	r24, 0xA7	; 167
    1c4a:	91 e0       	ldi	r25, 0x01	; 1
    1c4c:	0e 94 1d 2d 	call	0x5a3a	; 0x5a3a <eeprom_read_byte>
    1c50:	8f 3f       	cpi	r24, 0xFF	; 255
    1c52:	09 f0       	breq	.+2      	; 0x1c56 <_Z20initializeEEPROMVarsh+0x424>
    1c54:	94 ce       	rjmp	.-728    	; 0x197e <_Z20initializeEEPROMVarsh+0x14c>
    1c56:	88 ce       	rjmp	.-752    	; 0x1968 <_Z20initializeEEPROMVarsh+0x136>
	}
	else    /* EEPROM is missing some updates */
	{
		if(resetAll || (eeprom_read_byte(&ee_id_codespeed) == 0xFF))
		{
			g_id_codespeed = EEPROM_ID_CODE_SPEED_DEFAULT;
    1c58:	84 e1       	ldi	r24, 0x14	; 20
    1c5a:	80 93 18 01 	sts	0x0118, r24	; 0x800118 <_ZL14g_id_codespeed>
			eeprom_update_byte(&ee_id_codespeed,g_id_codespeed);
    1c5e:	60 91 18 01 	lds	r22, 0x0118	; 0x800118 <_ZL14g_id_codespeed>
    1c62:	88 ea       	ldi	r24, 0xA8	; 168
    1c64:	91 e0       	ldi	r25, 0x01	; 1
    1c66:	0e 94 31 2d 	call	0x5a62	; 0x5a62 <eeprom_update_byte>
    1c6a:	7e ce       	rjmp	.-772    	; 0x1968 <_Z20initializeEEPROMVarsh+0x136>
			g_id_codespeed = CLAMP(MIN_CODE_SPEED_WPM,eeprom_read_byte(&ee_id_codespeed),MAX_CODE_SPEED_WPM);
		}

		if(resetAll || (eeprom_read_byte(&ee_fox_setting) == 0xFF))
		{
			g_fox = EEPROM_FOX_SETTING_DEFAULT;
    1c6c:	10 92 fc 05 	sts	0x05FC, r1	; 0x8005fc <g_fox>
			eeprom_update_byte(&ee_fox_setting,g_fox);
    1c70:	60 91 fc 05 	lds	r22, 0x05FC	; 0x8005fc <g_fox>
    1c74:	87 ea       	ldi	r24, 0xA7	; 167
    1c76:	91 e0       	ldi	r25, 0x01	; 1
    1c78:	0e 94 31 2d 	call	0x5a62	; 0x5a62 <eeprom_update_byte>
    1c7c:	85 ce       	rjmp	.-758    	; 0x1988 <_Z20initializeEEPROMVarsh+0x156>
			g_rv3028_offset = (int16_t)eeprom_read_word((uint16_t*)&ee_rv3028_offset);
		}

		if(resetAll || (eeprom_read_byte(&ee_enable_LEDs) == 0xFF))
		{
			g_enable_LEDs = EEPROM_ENABLE_LEDS_DEFAULT;
    1c7e:	81 e0       	ldi	r24, 0x01	; 1
    1c80:	80 93 a8 05 	sts	0x05A8, r24	; 0x8005a8 <_ZL13g_enable_LEDs>
			eeprom_update_byte(&ee_enable_LEDs,g_enable_LEDs);  /* Only gets set by a serial command */
    1c84:	60 91 a8 05 	lds	r22, 0x05A8	; 0x8005a8 <_ZL13g_enable_LEDs>
    1c88:	86 ea       	ldi	r24, 0xA6	; 166
    1c8a:	91 e0       	ldi	r25, 0x01	; 1
    1c8c:	0e 94 31 2d 	call	0x5a62	; 0x5a62 <eeprom_update_byte>
    1c90:	bf ce       	rjmp	.-642    	; 0x1a10 <_Z20initializeEEPROMVarsh+0x1de>
			g_rv3028_offset = (int16_t)eeprom_read_word((uint16_t*)&ee_rv3028_offset);
		}

		if(resetAll || (eeprom_read_byte(&ee_enable_LEDs) == 0xFF))
		{
			g_enable_LEDs = EEPROM_ENABLE_LEDS_DEFAULT;
    1c92:	81 e0       	ldi	r24, 0x01	; 1
    1c94:	80 93 a8 05 	sts	0x05A8, r24	; 0x8005a8 <_ZL13g_enable_LEDs>
			eeprom_update_byte(&ee_enable_LEDs,g_enable_LEDs);  /* Only gets set by a serial command */
    1c98:	60 91 a8 05 	lds	r22, 0x05A8	; 0x8005a8 <_ZL13g_enable_LEDs>
    1c9c:	86 ea       	ldi	r24, 0xA6	; 166
    1c9e:	91 e0       	ldi	r25, 0x01	; 1
    1ca0:	0e 94 31 2d 	call	0x5a62	; 0x5a62 <eeprom_update_byte>
    1ca4:	bb ce       	rjmp	.-650    	; 0x1a1c <_Z20initializeEEPROMVarsh+0x1ea>
			g_enable_start_timer = eeprom_read_byte(&ee_enable_start_timer);
		}

		if(resetAll || (eeprom_read_byte(&ee_enable_transmitter) == 0xFF))
		{
			g_enable_transmitter = EEPROM_ENABLE_TRANSMITTER_DEFAULT;
    1ca6:	81 e0       	ldi	r24, 0x01	; 1
    1ca8:	80 93 a6 05 	sts	0x05A6, r24	; 0x8005a6 <_ZL20g_enable_transmitter>
			eeprom_update_byte(&ee_enable_transmitter,g_enable_transmitter);    /* Only gets set by a serial command */
    1cac:	60 91 a6 05 	lds	r22, 0x05A6	; 0x8005a6 <_ZL20g_enable_transmitter>
    1cb0:	80 ea       	ldi	r24, 0xA0	; 160
    1cb2:	91 e0       	ldi	r25, 0x01	; 1
    1cb4:	0e 94 31 2d 	call	0x5a62	; 0x5a62 <eeprom_update_byte>
    1cb8:	dc ce       	rjmp	.-584    	; 0x1a72 <_Z20initializeEEPROMVarsh+0x240>
			g_enable_transmitter = eeprom_read_byte(&ee_enable_transmitter);
		}

		if(resetAll || (eeprom_read_dword(&ee_event_start_epoch) == 0xFFFFFFFF))
		{
			g_event_start_epoch = EEPROM_START_EPOCH_DEFAULT;
    1cba:	10 92 ee 05 	sts	0x05EE, r1	; 0x8005ee <g_event_start_epoch>
    1cbe:	10 92 ef 05 	sts	0x05EF, r1	; 0x8005ef <g_event_start_epoch+0x1>
    1cc2:	10 92 f0 05 	sts	0x05F0, r1	; 0x8005f0 <g_event_start_epoch+0x2>
    1cc6:	10 92 f1 05 	sts	0x05F1, r1	; 0x8005f1 <g_event_start_epoch+0x3>
			eeprom_update_dword(&ee_event_start_epoch,g_event_start_epoch);
    1cca:	40 91 ee 05 	lds	r20, 0x05EE	; 0x8005ee <g_event_start_epoch>
    1cce:	50 91 ef 05 	lds	r21, 0x05EF	; 0x8005ef <g_event_start_epoch+0x1>
    1cd2:	60 91 f0 05 	lds	r22, 0x05F0	; 0x8005f0 <g_event_start_epoch+0x2>
    1cd6:	70 91 f1 05 	lds	r23, 0x05F1	; 0x8005f1 <g_event_start_epoch+0x3>
    1cda:	8c e9       	ldi	r24, 0x9C	; 156
    1cdc:	91 e0       	ldi	r25, 0x01	; 1
    1cde:	0e 94 43 2d 	call	0x5a86	; 0x5a86 <eeprom_update_dword>
    1ce2:	f0 ce       	rjmp	.-544    	; 0x1ac4 <_Z20initializeEEPROMVarsh+0x292>
			g_event_start_epoch = eeprom_read_dword(&ee_event_start_epoch);
		}

		if(resetAll || (eeprom_read_dword(&ee_event_finish_epoch) == 0xFFFFFFFF))
		{
			g_event_start_epoch = EEPROM_START_EPOCH_DEFAULT;
    1ce4:	10 92 ee 05 	sts	0x05EE, r1	; 0x8005ee <g_event_start_epoch>
    1ce8:	10 92 ef 05 	sts	0x05EF, r1	; 0x8005ef <g_event_start_epoch+0x1>
    1cec:	10 92 f0 05 	sts	0x05F0, r1	; 0x8005f0 <g_event_start_epoch+0x2>
    1cf0:	10 92 f1 05 	sts	0x05F1, r1	; 0x8005f1 <g_event_start_epoch+0x3>
			eeprom_update_dword(&ee_event_finish_epoch,g_event_start_epoch);
    1cf4:	40 91 ee 05 	lds	r20, 0x05EE	; 0x8005ee <g_event_start_epoch>
    1cf8:	50 91 ef 05 	lds	r21, 0x05EF	; 0x8005ef <g_event_start_epoch+0x1>
    1cfc:	60 91 f0 05 	lds	r22, 0x05F0	; 0x8005f0 <g_event_start_epoch+0x2>
    1d00:	70 91 f1 05 	lds	r23, 0x05F1	; 0x8005f1 <g_event_start_epoch+0x3>
    1d04:	88 e9       	ldi	r24, 0x98	; 152
    1d06:	91 e0       	ldi	r25, 0x01	; 1
    1d08:	0e 94 43 2d 	call	0x5a86	; 0x5a86 <eeprom_update_dword>
    1d0c:	fa ce       	rjmp	.-524    	; 0x1b02 <_Z20initializeEEPROMVarsh+0x2d0>
		else
		{
			g_event_start_epoch = eeprom_read_dword(&ee_event_start_epoch);
		}

		if(resetAll || (eeprom_read_dword(&ee_event_finish_epoch) == 0xFFFFFFFF))
    1d0e:	88 e9       	ldi	r24, 0x98	; 152
    1d10:	91 e0       	ldi	r25, 0x01	; 1
    1d12:	0e 94 25 2d 	call	0x5a4a	; 0x5a4a <eeprom_read_dword>
    1d16:	6f 3f       	cpi	r22, 0xFF	; 255
    1d18:	ff ef       	ldi	r31, 0xFF	; 255
    1d1a:	7f 07       	cpc	r23, r31
    1d1c:	8f 07       	cpc	r24, r31
    1d1e:	9f 07       	cpc	r25, r31
    1d20:	09 f0       	breq	.+2      	; 0x1d24 <_Z20initializeEEPROMVarsh+0x4f2>
    1d22:	e7 ce       	rjmp	.-562    	; 0x1af2 <_Z20initializeEEPROMVarsh+0x2c0>
    1d24:	df cf       	rjmp	.-66     	; 0x1ce4 <_Z20initializeEEPROMVarsh+0x4b2>
		{
			g_event_start_epoch = EEPROM_START_EPOCH_DEFAULT;
    1d26:	10 92 ee 05 	sts	0x05EE, r1	; 0x8005ee <g_event_start_epoch>
    1d2a:	10 92 ef 05 	sts	0x05EF, r1	; 0x8005ef <g_event_start_epoch+0x1>
    1d2e:	10 92 f0 05 	sts	0x05F0, r1	; 0x8005f0 <g_event_start_epoch+0x2>
    1d32:	10 92 f1 05 	sts	0x05F1, r1	; 0x8005f1 <g_event_start_epoch+0x3>
			eeprom_update_dword(&ee_event_finish_epoch,g_event_start_epoch);
    1d36:	40 91 ee 05 	lds	r20, 0x05EE	; 0x8005ee <g_event_start_epoch>
    1d3a:	50 91 ef 05 	lds	r21, 0x05EF	; 0x8005ef <g_event_start_epoch+0x1>
    1d3e:	60 91 f0 05 	lds	r22, 0x05F0	; 0x8005f0 <g_event_start_epoch+0x2>
    1d42:	70 91 f1 05 	lds	r23, 0x05F1	; 0x8005f1 <g_event_start_epoch+0x3>
    1d46:	88 e9       	ldi	r24, 0x98	; 152
    1d48:	91 e0       	ldi	r25, 0x01	; 1
    1d4a:	0e 94 43 2d 	call	0x5a86	; 0x5a86 <eeprom_update_dword>
    1d4e:	df ce       	rjmp	.-578    	; 0x1b0e <_Z20initializeEEPROMVarsh+0x2dc>
	{
		g_event_finish_epoch = g_event_start_epoch + SECONDS_24H;
	}

	return;
}
    1d50:	df 91       	pop	r29
    1d52:	cf 91       	pop	r28
    1d54:	1f 91       	pop	r17
    1d56:	0f 91       	pop	r16
    1d58:	ff 90       	pop	r15
    1d5a:	ef 90       	pop	r14
    1d5c:	df 90       	pop	r13
    1d5e:	cf 90       	pop	r12
    1d60:	08 95       	ret

00001d62 <_Z11setupForFoxP5Fox_t>:

void setupForFox(Fox_t* fox)
{
	if(fox)
    1d62:	00 97       	sbiw	r24, 0x00	; 0
    1d64:	31 f0       	breq	.+12     	; 0x1d72 <_Z11setupForFoxP5Fox_t+0x10>
	{
		if(*fox != INVALID_FOX)
    1d66:	fc 01       	movw	r30, r24
    1d68:	80 81       	ld	r24, Z
    1d6a:	86 31       	cpi	r24, 0x16	; 22
    1d6c:	11 f0       	breq	.+4      	; 0x1d72 <_Z11setupForFoxP5Fox_t+0x10>
		{
			g_fox = *fox;
    1d6e:	80 93 fc 05 	sts	0x05FC, r24	; 0x8005fc <g_fox>
		}
	}

	switch(g_fox)
    1d72:	e0 91 fc 05 	lds	r30, 0x05FC	; 0x8005fc <g_fox>
    1d76:	8e 2f       	mov	r24, r30
    1d78:	90 e0       	ldi	r25, 0x00	; 0
    1d7a:	fc 01       	movw	r30, r24
    1d7c:	31 97       	sbiw	r30, 0x01	; 1
    1d7e:	e5 31       	cpi	r30, 0x15	; 21
    1d80:	f1 05       	cpc	r31, r1
    1d82:	08 f0       	brcs	.+2      	; 0x1d86 <_Z11setupForFoxP5Fox_t+0x24>
    1d84:	6b c0       	rjmp	.+214    	; 0x1e5c <_Z11setupForFoxP5Fox_t+0xfa>
    1d86:	ea 59       	subi	r30, 0x9A	; 154
    1d88:	ff 4f       	sbci	r31, 0xFF	; 255
    1d8a:	0c 94 8f 28 	jmp	0x511e	; 0x511e <__tablejump2__>
	{
		case NO_CODE_START_TONES_2M:
		{
			g_startclock_interval = 120;
    1d8e:	88 e7       	ldi	r24, 0x78	; 120
    1d90:	90 e0       	ldi	r25, 0x00	; 0
    1d92:	90 93 1d 01 	sts	0x011D, r25	; 0x80011d <g_startclock_interval+0x1>
    1d96:	80 93 1c 01 	sts	0x011C, r24	; 0x80011c <g_startclock_interval>
			g_enable_start_timer = TRUE;
    1d9a:	81 e0       	ldi	r24, 0x01	; 1
    1d9c:	80 93 a7 05 	sts	0x05A7, r24	; 0x8005a7 <_ZL20g_enable_start_timer>
		}
		break;
    1da0:	7d c0       	rjmp	.+250    	; 0x1e9c <_Z11setupForFoxP5Fox_t+0x13a>

		case NO_CODE_START_TONES_5M:
		{
			g_startclock_interval = 300;
    1da2:	8c e2       	ldi	r24, 0x2C	; 44
    1da4:	91 e0       	ldi	r25, 0x01	; 1
    1da6:	90 93 1d 01 	sts	0x011D, r25	; 0x80011d <g_startclock_interval+0x1>
    1daa:	80 93 1c 01 	sts	0x011C, r24	; 0x80011c <g_startclock_interval>
			g_enable_start_timer = TRUE;
    1dae:	81 e0       	ldi	r24, 0x01	; 1
    1db0:	80 93 a7 05 	sts	0x05A7, r24	; 0x8005a7 <_ZL20g_enable_start_timer>
		}
		break;
    1db4:	73 c0       	rjmp	.+230    	; 0x1e9c <_Z11setupForFoxP5Fox_t+0x13a>
		case FOX_3:
		case FOX_4:
		case FOX_5:
		case FOX_DEMO:
		{
			g_on_air_interval = 60;
    1db6:	8c e3       	ldi	r24, 0x3C	; 60
    1db8:	90 e0       	ldi	r25, 0x00	; 0
    1dba:	90 93 e9 05 	sts	0x05E9, r25	; 0x8005e9 <g_on_air_interval+0x1>
    1dbe:	80 93 e8 05 	sts	0x05E8, r24	; 0x8005e8 <g_on_air_interval>
			g_number_of_foxes = 5;
    1dc2:	25 e0       	ldi	r18, 0x05	; 5
    1dc4:	30 e0       	ldi	r19, 0x00	; 0
    1dc6:	30 93 e5 05 	sts	0x05E5, r19	; 0x8005e5 <g_number_of_foxes+0x1>
    1dca:	20 93 e4 05 	sts	0x05E4, r18	; 0x8005e4 <g_number_of_foxes>
			g_fox_id_offset = 0;
    1dce:	10 92 e2 05 	sts	0x05E2, r1	; 0x8005e2 <g_fox_id_offset+0x1>
    1dd2:	10 92 e1 05 	sts	0x05E1, r1	; 0x8005e1 <g_fox_id_offset>
			g_pattern_codespeed = 8;
    1dd6:	28 e0       	ldi	r18, 0x08	; 8
    1dd8:	20 93 17 01 	sts	0x0117, r18	; 0x800117 <_ZL19g_pattern_codespeed>
			g_id_interval = 60;
    1ddc:	90 93 e0 05 	sts	0x05E0, r25	; 0x8005e0 <g_id_interval+0x1>
    1de0:	80 93 df 05 	sts	0x05DF, r24	; 0x8005df <g_id_interval>
			g_startclock_interval = 300;
    1de4:	8c e2       	ldi	r24, 0x2C	; 44
    1de6:	91 e0       	ldi	r25, 0x01	; 1
    1de8:	90 93 1d 01 	sts	0x011D, r25	; 0x80011d <g_startclock_interval+0x1>
    1dec:	80 93 1c 01 	sts	0x011C, r24	; 0x80011c <g_startclock_interval>
		}
		break;
    1df0:	55 c0       	rjmp	.+170    	; 0x1e9c <_Z11setupForFoxP5Fox_t+0x13a>

		case SPRINT_S1:
		case SPRINT_F5:
		case SPRINT_DEMO:
		{
			g_on_air_interval = 12;
    1df2:	8c e0       	ldi	r24, 0x0C	; 12
    1df4:	90 e0       	ldi	r25, 0x00	; 0
    1df6:	90 93 e9 05 	sts	0x05E9, r25	; 0x8005e9 <g_on_air_interval+0x1>
    1dfa:	80 93 e8 05 	sts	0x05E8, r24	; 0x8005e8 <g_on_air_interval>
			g_number_of_foxes = 5;
    1dfe:	85 e0       	ldi	r24, 0x05	; 5
    1e00:	90 e0       	ldi	r25, 0x00	; 0
    1e02:	90 93 e5 05 	sts	0x05E5, r25	; 0x8005e5 <g_number_of_foxes+0x1>
    1e06:	80 93 e4 05 	sts	0x05E4, r24	; 0x8005e4 <g_number_of_foxes>
			g_pattern_codespeed = ((g_fox == SPRINT_DEMO) || (g_fox <= SPRINT_S5)) ? 10 : 15;
    1e0a:	80 91 fc 05 	lds	r24, 0x05FC	; 0x8005fc <g_fox>
    1e0e:	83 31       	cpi	r24, 0x13	; 19
    1e10:	31 f0       	breq	.+12     	; 0x1e1e <_Z11setupForFoxP5Fox_t+0xbc>
    1e12:	80 91 fc 05 	lds	r24, 0x05FC	; 0x8005fc <g_fox>
    1e16:	8e 30       	cpi	r24, 0x0E	; 14
    1e18:	20 f0       	brcs	.+8      	; 0x1e22 <_Z11setupForFoxP5Fox_t+0xc0>
    1e1a:	8f e0       	ldi	r24, 0x0F	; 15
    1e1c:	03 c0       	rjmp	.+6      	; 0x1e24 <_Z11setupForFoxP5Fox_t+0xc2>
    1e1e:	8a e0       	ldi	r24, 0x0A	; 10
    1e20:	01 c0       	rjmp	.+2      	; 0x1e24 <_Z11setupForFoxP5Fox_t+0xc2>
    1e22:	8a e0       	ldi	r24, 0x0A	; 10
    1e24:	80 93 17 01 	sts	0x0117, r24	; 0x800117 <_ZL19g_pattern_codespeed>
			g_fox_id_offset = g_fox <= SPRINT_S5 ? SPRINT_S1 - 1 : SPRINT_F1 - 1;
    1e28:	80 91 fc 05 	lds	r24, 0x05FC	; 0x8005fc <g_fox>
    1e2c:	8e 30       	cpi	r24, 0x0E	; 14
    1e2e:	18 f0       	brcs	.+6      	; 0x1e36 <_Z11setupForFoxP5Fox_t+0xd4>
    1e30:	8d e0       	ldi	r24, 0x0D	; 13
    1e32:	90 e0       	ldi	r25, 0x00	; 0
    1e34:	02 c0       	rjmp	.+4      	; 0x1e3a <_Z11setupForFoxP5Fox_t+0xd8>
    1e36:	88 e0       	ldi	r24, 0x08	; 8
    1e38:	90 e0       	ldi	r25, 0x00	; 0
    1e3a:	90 93 e2 05 	sts	0x05E2, r25	; 0x8005e2 <g_fox_id_offset+0x1>
    1e3e:	80 93 e1 05 	sts	0x05E1, r24	; 0x8005e1 <g_fox_id_offset>
			g_id_interval = 600;
    1e42:	88 e5       	ldi	r24, 0x58	; 88
    1e44:	92 e0       	ldi	r25, 0x02	; 2
    1e46:	90 93 e0 05 	sts	0x05E0, r25	; 0x8005e0 <g_id_interval+0x1>
    1e4a:	80 93 df 05 	sts	0x05DF, r24	; 0x8005df <g_id_interval>
			g_startclock_interval = 120;
    1e4e:	88 e7       	ldi	r24, 0x78	; 120
    1e50:	90 e0       	ldi	r25, 0x00	; 0
    1e52:	90 93 1d 01 	sts	0x011D, r25	; 0x80011d <g_startclock_interval+0x1>
    1e56:	80 93 1c 01 	sts	0x011C, r24	; 0x80011c <g_startclock_interval>
		}
		break;
    1e5a:	20 c0       	rjmp	.+64     	; 0x1e9c <_Z11setupForFoxP5Fox_t+0x13a>

/* case BEACON: */
/* case SPECTATOR: */
		default:
		{
			g_on_air_interval = 600;
    1e5c:	88 e5       	ldi	r24, 0x58	; 88
    1e5e:	92 e0       	ldi	r25, 0x02	; 2
    1e60:	90 93 e9 05 	sts	0x05E9, r25	; 0x8005e9 <g_on_air_interval+0x1>
    1e64:	80 93 e8 05 	sts	0x05E8, r24	; 0x8005e8 <g_on_air_interval>
			g_number_of_foxes = 1;
    1e68:	21 e0       	ldi	r18, 0x01	; 1
    1e6a:	30 e0       	ldi	r19, 0x00	; 0
    1e6c:	30 93 e5 05 	sts	0x05E5, r19	; 0x8005e5 <g_number_of_foxes+0x1>
    1e70:	20 93 e4 05 	sts	0x05E4, r18	; 0x8005e4 <g_number_of_foxes>
			g_pattern_codespeed = 8;
    1e74:	28 e0       	ldi	r18, 0x08	; 8
    1e76:	20 93 17 01 	sts	0x0117, r18	; 0x800117 <_ZL19g_pattern_codespeed>
			g_id_interval = 600;
    1e7a:	90 93 e0 05 	sts	0x05E0, r25	; 0x8005e0 <g_id_interval+0x1>
    1e7e:	80 93 df 05 	sts	0x05DF, r24	; 0x8005df <g_id_interval>
			g_startclock_interval = (g_fox == SPECTATOR) ? 120 : 300;
    1e82:	80 91 fc 05 	lds	r24, 0x05FC	; 0x8005fc <g_fox>
    1e86:	88 30       	cpi	r24, 0x08	; 8
    1e88:	19 f0       	breq	.+6      	; 0x1e90 <_Z11setupForFoxP5Fox_t+0x12e>
    1e8a:	8c e2       	ldi	r24, 0x2C	; 44
    1e8c:	91 e0       	ldi	r25, 0x01	; 1
    1e8e:	02 c0       	rjmp	.+4      	; 0x1e94 <_Z11setupForFoxP5Fox_t+0x132>
    1e90:	88 e7       	ldi	r24, 0x78	; 120
    1e92:	90 e0       	ldi	r25, 0x00	; 0
    1e94:	90 93 1d 01 	sts	0x011D, r25	; 0x80011d <g_startclock_interval+0x1>
    1e98:	80 93 1c 01 	sts	0x011C, r24	; 0x80011c <g_startclock_interval>
		}
		break;
	}

	if(g_use_rtc_to_start)
    1e9c:	80 91 d5 05 	lds	r24, 0x05D5	; 0x8005d5 <g_use_rtc_to_start>
    1ea0:	88 23       	and	r24, r24
    1ea2:	09 f4       	brne	.+2      	; 0x1ea6 <_Z11setupForFoxP5Fox_t+0x144>
    1ea4:	8a c0       	rjmp	.+276    	; 0x1fba <_Z11setupForFoxP5Fox_t+0x258>
	{
		if(g_event_start_epoch < g_current_epoch)   /* timed event in progress */
    1ea6:	40 91 ee 05 	lds	r20, 0x05EE	; 0x8005ee <g_event_start_epoch>
    1eaa:	50 91 ef 05 	lds	r21, 0x05EF	; 0x8005ef <g_event_start_epoch+0x1>
    1eae:	60 91 f0 05 	lds	r22, 0x05F0	; 0x8005f0 <g_event_start_epoch+0x2>
    1eb2:	70 91 f1 05 	lds	r23, 0x05F1	; 0x8005f1 <g_event_start_epoch+0x3>
    1eb6:	80 91 f2 05 	lds	r24, 0x05F2	; 0x8005f2 <g_current_epoch>
    1eba:	90 91 f3 05 	lds	r25, 0x05F3	; 0x8005f3 <g_current_epoch+0x1>
    1ebe:	a0 91 f4 05 	lds	r26, 0x05F4	; 0x8005f4 <g_current_epoch+0x2>
    1ec2:	b0 91 f5 05 	lds	r27, 0x05F5	; 0x8005f5 <g_current_epoch+0x3>
    1ec6:	48 17       	cp	r20, r24
    1ec8:	59 07       	cpc	r21, r25
    1eca:	6a 07       	cpc	r22, r26
    1ecc:	7b 07       	cpc	r23, r27
    1ece:	08 f0       	brcs	.+2      	; 0x1ed2 <_Z11setupForFoxP5Fox_t+0x170>
    1ed0:	4d c0       	rjmp	.+154    	; 0x1f6c <_Z11setupForFoxP5Fox_t+0x20a>
		{
			g_seconds_since_sync = g_current_epoch - g_event_start_epoch;               /* Total elapsed time counter: synced at event start time */
    1ed2:	80 91 f2 05 	lds	r24, 0x05F2	; 0x8005f2 <g_current_epoch>
    1ed6:	90 91 f3 05 	lds	r25, 0x05F3	; 0x8005f3 <g_current_epoch+0x1>
    1eda:	a0 91 f4 05 	lds	r26, 0x05F4	; 0x8005f4 <g_current_epoch+0x2>
    1ede:	b0 91 f5 05 	lds	r27, 0x05F5	; 0x8005f5 <g_current_epoch+0x3>
    1ee2:	40 91 ee 05 	lds	r20, 0x05EE	; 0x8005ee <g_event_start_epoch>
    1ee6:	50 91 ef 05 	lds	r21, 0x05EF	; 0x8005ef <g_event_start_epoch+0x1>
    1eea:	60 91 f0 05 	lds	r22, 0x05F0	; 0x8005f0 <g_event_start_epoch+0x2>
    1eee:	70 91 f1 05 	lds	r23, 0x05F1	; 0x8005f1 <g_event_start_epoch+0x3>
    1ef2:	84 1b       	sub	r24, r20
    1ef4:	95 0b       	sbc	r25, r21
    1ef6:	a6 0b       	sbc	r26, r22
    1ef8:	b7 0b       	sbc	r27, r23
    1efa:	80 93 fd 05 	sts	0x05FD, r24	; 0x8005fd <g_seconds_since_sync>
    1efe:	90 93 fe 05 	sts	0x05FE, r25	; 0x8005fe <g_seconds_since_sync+0x1>
    1f02:	a0 93 ff 05 	sts	0x05FF, r26	; 0x8005ff <g_seconds_since_sync+0x2>
    1f06:	b0 93 00 06 	sts	0x0600, r27	; 0x800600 <g_seconds_since_sync+0x3>
			g_on_the_air       = FALSE;             /* Controls transmitter Morse activity */
    1f0a:	10 92 fb 05 	sts	0x05FB, r1	; 0x8005fb <g_on_the_air+0x1>
    1f0e:	10 92 fa 05 	sts	0x05FA, r1	; 0x8005fa <g_on_the_air>
			g_code_throttle    = 0;                 /* Adjusts Morse code speed */
    1f12:	10 92 f9 05 	sts	0x05F9, r1	; 0x8005f9 <g_code_throttle+0x1>
    1f16:	10 92 f8 05 	sts	0x05F8, r1	; 0x8005f8 <g_code_throttle>
			g_callsign_sent = FALSE;
    1f1a:	10 92 f7 05 	sts	0x05F7, r1	; 0x8005f7 <g_callsign_sent>

			g_fox_counter = 1 + (g_seconds_since_sync % g_on_air_interval);
    1f1e:	60 91 fd 05 	lds	r22, 0x05FD	; 0x8005fd <g_seconds_since_sync>
    1f22:	70 91 fe 05 	lds	r23, 0x05FE	; 0x8005fe <g_seconds_since_sync+0x1>
    1f26:	80 91 ff 05 	lds	r24, 0x05FF	; 0x8005ff <g_seconds_since_sync+0x2>
    1f2a:	90 91 00 06 	lds	r25, 0x0600	; 0x800600 <g_seconds_since_sync+0x3>
    1f2e:	20 91 e8 05 	lds	r18, 0x05E8	; 0x8005e8 <g_on_air_interval>
    1f32:	30 91 e9 05 	lds	r19, 0x05E9	; 0x8005e9 <g_on_air_interval+0x1>
    1f36:	03 2e       	mov	r0, r19
    1f38:	00 0c       	add	r0, r0
    1f3a:	44 0b       	sbc	r20, r20
    1f3c:	55 0b       	sbc	r21, r21
    1f3e:	0e 94 70 28 	call	0x50e0	; 0x50e0 <__divmodsi4>
    1f42:	6f 5f       	subi	r22, 0xFF	; 255
    1f44:	7f 4f       	sbci	r23, 0xFF	; 255
    1f46:	70 93 1f 01 	sts	0x011F, r23	; 0x80011f <g_fox_counter+0x1>
    1f4a:	60 93 1e 01 	sts	0x011E, r22	; 0x80011e <g_fox_counter>
//			g_on_air_interval = 0;
			g_fox_seconds_into_interval = 0;
    1f4e:	10 92 e7 05 	sts	0x05E7, r1	; 0x8005e7 <g_fox_seconds_into_interval+0x1>
    1f52:	10 92 e6 05 	sts	0x05E6, r1	; 0x8005e6 <g_fox_seconds_into_interval>
//			g_number_of_foxes = 0;
			g_fox_transition = FALSE;
    1f56:	10 92 e3 05 	sts	0x05E3, r1	; 0x8005e3 <g_fox_transition>
			g_fox_id_offset = 0;
    1f5a:	10 92 e2 05 	sts	0x05E2, r1	; 0x8005e2 <g_fox_id_offset+0x1>
    1f5e:	10 92 e1 05 	sts	0x05E1, r1	; 0x8005e1 <g_fox_id_offset>
//			g_id_interval = 0;
			g_time_to_ID = FALSE;
    1f62:	10 92 de 05 	sts	0x05DE, r1	; 0x8005de <g_time_to_ID>
			g_audio_tone_state = OFF;
    1f66:	10 92 dd 05 	sts	0x05DD, r1	; 0x8005dd <g_audio_tone_state>
    1f6a:	47 c0       	rjmp	.+142    	; 0x1ffa <_Z11setupForFoxP5Fox_t+0x298>
		}
		else                            /* event starts in the future */
		{
			g_seconds_since_sync = 0;   /* Total elapsed time counter */
    1f6c:	10 92 fd 05 	sts	0x05FD, r1	; 0x8005fd <g_seconds_since_sync>
    1f70:	10 92 fe 05 	sts	0x05FE, r1	; 0x8005fe <g_seconds_since_sync+0x1>
    1f74:	10 92 ff 05 	sts	0x05FF, r1	; 0x8005ff <g_seconds_since_sync+0x2>
    1f78:	10 92 00 06 	sts	0x0600, r1	; 0x800600 <g_seconds_since_sync+0x3>
			g_on_the_air       = FALSE; /* Controls transmitter Morse activity */
    1f7c:	10 92 fb 05 	sts	0x05FB, r1	; 0x8005fb <g_on_the_air+0x1>
    1f80:	10 92 fa 05 	sts	0x05FA, r1	; 0x8005fa <g_on_the_air>
			g_code_throttle    = 0;     /* Adjusts Morse code speed */
    1f84:	10 92 f9 05 	sts	0x05F9, r1	; 0x8005f9 <g_code_throttle+0x1>
    1f88:	10 92 f8 05 	sts	0x05F8, r1	; 0x8005f8 <g_code_throttle>
			g_callsign_sent = FALSE;
    1f8c:	10 92 f7 05 	sts	0x05F7, r1	; 0x8005f7 <g_callsign_sent>

			g_fox_counter = 1;
    1f90:	81 e0       	ldi	r24, 0x01	; 1
    1f92:	90 e0       	ldi	r25, 0x00	; 0
    1f94:	90 93 1f 01 	sts	0x011F, r25	; 0x80011f <g_fox_counter+0x1>
    1f98:	80 93 1e 01 	sts	0x011E, r24	; 0x80011e <g_fox_counter>
//			g_on_air_interval = 0;
			g_fox_seconds_into_interval = 0;
    1f9c:	10 92 e7 05 	sts	0x05E7, r1	; 0x8005e7 <g_fox_seconds_into_interval+0x1>
    1fa0:	10 92 e6 05 	sts	0x05E6, r1	; 0x8005e6 <g_fox_seconds_into_interval>
//			g_number_of_foxes = 0;
			g_fox_transition = FALSE;
    1fa4:	10 92 e3 05 	sts	0x05E3, r1	; 0x8005e3 <g_fox_transition>
			g_fox_id_offset = 0;
    1fa8:	10 92 e2 05 	sts	0x05E2, r1	; 0x8005e2 <g_fox_id_offset+0x1>
    1fac:	10 92 e1 05 	sts	0x05E1, r1	; 0x8005e1 <g_fox_id_offset>
//			g_id_interval = 0;
			g_time_to_ID = FALSE;
    1fb0:	10 92 de 05 	sts	0x05DE, r1	; 0x8005de <g_time_to_ID>
			g_audio_tone_state = OFF;
    1fb4:	10 92 dd 05 	sts	0x05DD, r1	; 0x8005dd <g_audio_tone_state>
    1fb8:	20 c0       	rjmp	.+64     	; 0x1ffa <_Z11setupForFoxP5Fox_t+0x298>
		}
	}
	else                            /* manual start */
	{
		g_seconds_since_sync = 0;   /* Total elapsed time counter */
    1fba:	10 92 fd 05 	sts	0x05FD, r1	; 0x8005fd <g_seconds_since_sync>
    1fbe:	10 92 fe 05 	sts	0x05FE, r1	; 0x8005fe <g_seconds_since_sync+0x1>
    1fc2:	10 92 ff 05 	sts	0x05FF, r1	; 0x8005ff <g_seconds_since_sync+0x2>
    1fc6:	10 92 00 06 	sts	0x0600, r1	; 0x800600 <g_seconds_since_sync+0x3>
		g_on_the_air       = FALSE; /* Controls transmitter Morse activity */
    1fca:	10 92 fb 05 	sts	0x05FB, r1	; 0x8005fb <g_on_the_air+0x1>
    1fce:	10 92 fa 05 	sts	0x05FA, r1	; 0x8005fa <g_on_the_air>
		g_code_throttle    = 0;     /* Adjusts Morse code speed */
    1fd2:	10 92 f9 05 	sts	0x05F9, r1	; 0x8005f9 <g_code_throttle+0x1>
    1fd6:	10 92 f8 05 	sts	0x05F8, r1	; 0x8005f8 <g_code_throttle>
		g_callsign_sent = FALSE;
    1fda:	10 92 f7 05 	sts	0x05F7, r1	; 0x8005f7 <g_callsign_sent>

//		g_on_air_interval = 0;
		g_fox_seconds_into_interval = 0;
    1fde:	10 92 e7 05 	sts	0x05E7, r1	; 0x8005e7 <g_fox_seconds_into_interval+0x1>
    1fe2:	10 92 e6 05 	sts	0x05E6, r1	; 0x8005e6 <g_fox_seconds_into_interval>
//		g_number_of_foxes = 0;
		g_fox_transition = FALSE;
    1fe6:	10 92 e3 05 	sts	0x05E3, r1	; 0x8005e3 <g_fox_transition>
		g_fox_id_offset = 0;
    1fea:	10 92 e2 05 	sts	0x05E2, r1	; 0x8005e2 <g_fox_id_offset+0x1>
    1fee:	10 92 e1 05 	sts	0x05E1, r1	; 0x8005e1 <g_fox_id_offset>
//		g_id_interval = 0;
		g_time_to_ID = FALSE;
    1ff2:	10 92 de 05 	sts	0x05DE, r1	; 0x8005de <g_time_to_ID>
		g_audio_tone_state = OFF;
    1ff6:	10 92 dd 05 	sts	0x05DD, r1	; 0x8005dd <g_audio_tone_state>
	}

	g_LEDs_Timed_Out = !g_enable_LEDs;
    1ffa:	90 91 a8 05 	lds	r25, 0x05A8	; 0x8005a8 <_ZL13g_enable_LEDs>
    1ffe:	81 e0       	ldi	r24, 0x01	; 1
    2000:	91 11       	cpse	r25, r1
    2002:	80 e0       	ldi	r24, 0x00	; 0
    2004:	80 93 71 05 	sts	0x0571, r24	; 0x800571 <_ZL16g_LEDs_Timed_Out>
	digitalWrite(PIN_LED2,OFF); /*  LED Off - in case it was on in the middle of a transmission */
    2008:	60 e0       	ldi	r22, 0x00	; 0
    200a:	87 e0       	ldi	r24, 0x07	; 7
    200c:	0e 94 2f 02 	call	0x45e	; 0x45e <_Z12digitalWritehh>
    2010:	08 95       	ret

00002012 <__vector_1>:

/***********************************************************************
 * Handle RTC 1-second interrupts
 **********************************************************************/
ISR( INT0_vect )
{
    2012:	1f 92       	push	r1
    2014:	0f 92       	push	r0
    2016:	0f b6       	in	r0, 0x3f	; 63
    2018:	0f 92       	push	r0
    201a:	11 24       	eor	r1, r1
    201c:	2f 93       	push	r18
    201e:	3f 93       	push	r19
    2020:	4f 93       	push	r20
    2022:	5f 93       	push	r21
    2024:	6f 93       	push	r22
    2026:	7f 93       	push	r23
    2028:	8f 93       	push	r24
    202a:	9f 93       	push	r25
    202c:	af 93       	push	r26
    202e:	bf 93       	push	r27
    2030:	ef 93       	push	r30
    2032:	ff 93       	push	r31
	static int id_countdown = 0;

	g_current_epoch++;
    2034:	80 91 f2 05 	lds	r24, 0x05F2	; 0x8005f2 <g_current_epoch>
    2038:	90 91 f3 05 	lds	r25, 0x05F3	; 0x8005f3 <g_current_epoch+0x1>
    203c:	a0 91 f4 05 	lds	r26, 0x05F4	; 0x8005f4 <g_current_epoch+0x2>
    2040:	b0 91 f5 05 	lds	r27, 0x05F5	; 0x8005f5 <g_current_epoch+0x3>
    2044:	01 96       	adiw	r24, 0x01	; 1
    2046:	a1 1d       	adc	r26, r1
    2048:	b1 1d       	adc	r27, r1
    204a:	80 93 f2 05 	sts	0x05F2, r24	; 0x8005f2 <g_current_epoch>
    204e:	90 93 f3 05 	sts	0x05F3, r25	; 0x8005f3 <g_current_epoch+0x1>
    2052:	a0 93 f4 05 	sts	0x05F4, r26	; 0x8005f4 <g_current_epoch+0x2>
    2056:	b0 93 f5 05 	sts	0x05F5, r27	; 0x8005f5 <g_current_epoch+0x3>

	if(g_temperature_check_countdown)
    205a:	80 91 14 01 	lds	r24, 0x0114	; 0x800114 <_ZL29g_temperature_check_countdown>
    205e:	88 23       	and	r24, r24
    2060:	29 f0       	breq	.+10     	; 0x206c <__vector_1+0x5a>
	{
		g_temperature_check_countdown--;
    2062:	80 91 14 01 	lds	r24, 0x0114	; 0x800114 <_ZL29g_temperature_check_countdown>
    2066:	81 50       	subi	r24, 0x01	; 1
    2068:	80 93 14 01 	sts	0x0114, r24	; 0x800114 <_ZL29g_temperature_check_countdown>
		/* TODO: only access RTC/I2C functions if sleeping - never if foreground processes are running
		 * g_current_epoch = rv3028_get_epoch(NULL, NULL); / * resync to RTC periodically * / */
	}

	if(g_transmissions_disabled)
    206c:	80 91 20 01 	lds	r24, 0x0120	; 0x800120 <g_transmissions_disabled>
    2070:	88 23       	and	r24, r24
    2072:	91 f1       	breq	.+100    	; 0x20d8 <__vector_1+0xc6>
	{
		if(g_use_rtc_to_start)
    2074:	80 91 d5 05 	lds	r24, 0x05D5	; 0x8005d5 <g_use_rtc_to_start>
    2078:	88 23       	and	r24, r24
    207a:	09 f4       	brne	.+2      	; 0x207e <__vector_1+0x6c>
    207c:	4f c1       	rjmp	.+670    	; 0x231c <__vector_1+0x30a>
		{
			if((g_current_epoch >= g_event_start_epoch) && (g_current_epoch < g_event_finish_epoch))
    207e:	40 91 f2 05 	lds	r20, 0x05F2	; 0x8005f2 <g_current_epoch>
    2082:	50 91 f3 05 	lds	r21, 0x05F3	; 0x8005f3 <g_current_epoch+0x1>
    2086:	60 91 f4 05 	lds	r22, 0x05F4	; 0x8005f4 <g_current_epoch+0x2>
    208a:	70 91 f5 05 	lds	r23, 0x05F5	; 0x8005f5 <g_current_epoch+0x3>
    208e:	80 91 ee 05 	lds	r24, 0x05EE	; 0x8005ee <g_event_start_epoch>
    2092:	90 91 ef 05 	lds	r25, 0x05EF	; 0x8005ef <g_event_start_epoch+0x1>
    2096:	a0 91 f0 05 	lds	r26, 0x05F0	; 0x8005f0 <g_event_start_epoch+0x2>
    209a:	b0 91 f1 05 	lds	r27, 0x05F1	; 0x8005f1 <g_event_start_epoch+0x3>
    209e:	48 17       	cp	r20, r24
    20a0:	59 07       	cpc	r21, r25
    20a2:	6a 07       	cpc	r22, r26
    20a4:	7b 07       	cpc	r23, r27
    20a6:	08 f4       	brcc	.+2      	; 0x20aa <__vector_1+0x98>
    20a8:	39 c1       	rjmp	.+626    	; 0x231c <__vector_1+0x30a>
    20aa:	40 91 f2 05 	lds	r20, 0x05F2	; 0x8005f2 <g_current_epoch>
    20ae:	50 91 f3 05 	lds	r21, 0x05F3	; 0x8005f3 <g_current_epoch+0x1>
    20b2:	60 91 f4 05 	lds	r22, 0x05F4	; 0x8005f4 <g_current_epoch+0x2>
    20b6:	70 91 f5 05 	lds	r23, 0x05F5	; 0x8005f5 <g_current_epoch+0x3>
    20ba:	80 91 ea 05 	lds	r24, 0x05EA	; 0x8005ea <g_event_finish_epoch>
    20be:	90 91 eb 05 	lds	r25, 0x05EB	; 0x8005eb <g_event_finish_epoch+0x1>
    20c2:	a0 91 ec 05 	lds	r26, 0x05EC	; 0x8005ec <g_event_finish_epoch+0x2>
    20c6:	b0 91 ed 05 	lds	r27, 0x05ED	; 0x8005ed <g_event_finish_epoch+0x3>
    20ca:	48 17       	cp	r20, r24
    20cc:	59 07       	cpc	r21, r25
    20ce:	6a 07       	cpc	r22, r26
    20d0:	7b 07       	cpc	r23, r27
    20d2:	08 f4       	brcc	.+2      	; 0x20d6 <__vector_1+0xc4>
    20d4:	e9 c0       	rjmp	.+466    	; 0x22a8 <__vector_1+0x296>
    20d6:	22 c1       	rjmp	.+580    	; 0x231c <__vector_1+0x30a>
			}
		}
	}
	else
	{
		if(g_use_rtc_to_start)
    20d8:	80 91 d5 05 	lds	r24, 0x05D5	; 0x8005d5 <g_use_rtc_to_start>
    20dc:	88 23       	and	r24, r24
    20de:	f1 f0       	breq	.+60     	; 0x211c <__vector_1+0x10a>
		{
			if(g_current_epoch >= g_event_finish_epoch)
    20e0:	40 91 f2 05 	lds	r20, 0x05F2	; 0x8005f2 <g_current_epoch>
    20e4:	50 91 f3 05 	lds	r21, 0x05F3	; 0x8005f3 <g_current_epoch+0x1>
    20e8:	60 91 f4 05 	lds	r22, 0x05F4	; 0x8005f4 <g_current_epoch+0x2>
    20ec:	70 91 f5 05 	lds	r23, 0x05F5	; 0x8005f5 <g_current_epoch+0x3>
    20f0:	80 91 ea 05 	lds	r24, 0x05EA	; 0x8005ea <g_event_finish_epoch>
    20f4:	90 91 eb 05 	lds	r25, 0x05EB	; 0x8005eb <g_event_finish_epoch+0x1>
    20f8:	a0 91 ec 05 	lds	r26, 0x05EC	; 0x8005ec <g_event_finish_epoch+0x2>
    20fc:	b0 91 ed 05 	lds	r27, 0x05ED	; 0x8005ed <g_event_finish_epoch+0x3>
    2100:	48 17       	cp	r20, r24
    2102:	59 07       	cpc	r21, r25
    2104:	6a 07       	cpc	r22, r26
    2106:	7b 07       	cpc	r23, r27
    2108:	48 f0       	brcs	.+18     	; 0x211c <__vector_1+0x10a>
			{
				g_use_rtc_to_start = FALSE;
    210a:	10 92 d5 05 	sts	0x05D5, r1	; 0x8005d5 <g_use_rtc_to_start>
				g_transmissions_disabled = TRUE;
    210e:	81 e0       	ldi	r24, 0x01	; 1
    2110:	80 93 20 01 	sts	0x0120, r24	; 0x800120 <g_transmissions_disabled>
				g_on_the_air = FALSE;
    2114:	10 92 fb 05 	sts	0x05FB, r1	; 0x8005fb <g_on_the_air+0x1>
    2118:	10 92 fa 05 	sts	0x05FA, r1	; 0x8005fa <g_on_the_air>
			}
		}

		if(!g_transmissions_disabled)
    211c:	80 91 20 01 	lds	r24, 0x0120	; 0x800120 <g_transmissions_disabled>
    2120:	81 11       	cpse	r24, r1
    2122:	fc c0       	rjmp	.+504    	; 0x231c <__vector_1+0x30a>
		{
			if(g_seconds_since_sync == 0)   /* sync just occurred */
    2124:	80 91 fd 05 	lds	r24, 0x05FD	; 0x8005fd <g_seconds_since_sync>
    2128:	90 91 fe 05 	lds	r25, 0x05FE	; 0x8005fe <g_seconds_since_sync+0x1>
    212c:	a0 91 ff 05 	lds	r26, 0x05FF	; 0x8005ff <g_seconds_since_sync+0x2>
    2130:	b0 91 00 06 	lds	r27, 0x0600	; 0x800600 <g_seconds_since_sync+0x3>
    2134:	89 2b       	or	r24, r25
    2136:	8a 2b       	or	r24, r26
    2138:	8b 2b       	or	r24, r27
    213a:	81 f4       	brne	.+32     	; 0x215c <__vector_1+0x14a>
			{
				id_countdown = g_id_interval;
    213c:	80 91 df 05 	lds	r24, 0x05DF	; 0x8005df <g_id_interval>
    2140:	90 91 e0 05 	lds	r25, 0x05E0	; 0x8005e0 <g_id_interval+0x1>
    2144:	90 93 1d 05 	sts	0x051D, r25	; 0x80051d <_ZZ10__vector_1E12id_countdown+0x1>
    2148:	80 93 1c 05 	sts	0x051C, r24	; 0x80051c <_ZZ10__vector_1E12id_countdown>
				g_fox_counter = 1;
    214c:	81 e0       	ldi	r24, 0x01	; 1
    214e:	90 e0       	ldi	r25, 0x00	; 0
    2150:	90 93 1f 01 	sts	0x011F, r25	; 0x80011f <g_fox_counter+0x1>
    2154:	80 93 1e 01 	sts	0x011E, r24	; 0x80011e <g_fox_counter>
				g_lastSeconds = 0;
    2158:	10 92 dc 05 	sts	0x05DC, r1	; 0x8005dc <g_lastSeconds>
				/* TODO: only access RTC/I2C functions if sleeping - never if foreground processes are running
				 * g_current_epoch = rv3028_get_epoch(NULL, NULL); / * resync to RTC periodically * / */
			}

			g_seconds_since_sync++; /* Total elapsed time counter */
    215c:	80 91 fd 05 	lds	r24, 0x05FD	; 0x8005fd <g_seconds_since_sync>
    2160:	90 91 fe 05 	lds	r25, 0x05FE	; 0x8005fe <g_seconds_since_sync+0x1>
    2164:	a0 91 ff 05 	lds	r26, 0x05FF	; 0x8005ff <g_seconds_since_sync+0x2>
    2168:	b0 91 00 06 	lds	r27, 0x0600	; 0x800600 <g_seconds_since_sync+0x3>
    216c:	01 96       	adiw	r24, 0x01	; 1
    216e:	a1 1d       	adc	r26, r1
    2170:	b1 1d       	adc	r27, r1
    2172:	80 93 fd 05 	sts	0x05FD, r24	; 0x8005fd <g_seconds_since_sync>
    2176:	90 93 fe 05 	sts	0x05FE, r25	; 0x8005fe <g_seconds_since_sync+0x1>
    217a:	a0 93 ff 05 	sts	0x05FF, r26	; 0x8005ff <g_seconds_since_sync+0x2>
    217e:	b0 93 00 06 	sts	0x0600, r27	; 0x800600 <g_seconds_since_sync+0x3>
			g_fox_seconds_into_interval++;
    2182:	80 91 e6 05 	lds	r24, 0x05E6	; 0x8005e6 <g_fox_seconds_into_interval>
    2186:	90 91 e7 05 	lds	r25, 0x05E7	; 0x8005e7 <g_fox_seconds_into_interval+0x1>
    218a:	01 96       	adiw	r24, 0x01	; 1
    218c:	90 93 e7 05 	sts	0x05E7, r25	; 0x8005e7 <g_fox_seconds_into_interval+0x1>
    2190:	80 93 e6 05 	sts	0x05E6, r24	; 0x8005e6 <g_fox_seconds_into_interval>

			if(id_countdown)
    2194:	80 91 1c 05 	lds	r24, 0x051C	; 0x80051c <_ZZ10__vector_1E12id_countdown>
    2198:	90 91 1d 05 	lds	r25, 0x051D	; 0x80051d <_ZZ10__vector_1E12id_countdown+0x1>
    219c:	00 97       	sbiw	r24, 0x00	; 0
    219e:	29 f0       	breq	.+10     	; 0x21aa <__vector_1+0x198>
			{
				id_countdown--;
    21a0:	01 97       	sbiw	r24, 0x01	; 1
    21a2:	90 93 1d 05 	sts	0x051D, r25	; 0x80051d <_ZZ10__vector_1E12id_countdown+0x1>
    21a6:	80 93 1c 05 	sts	0x051C, r24	; 0x80051c <_ZZ10__vector_1E12id_countdown>
			}

			if(g_number_of_foxes && ((g_seconds_since_sync % g_on_air_interval) == 0))
    21aa:	80 91 e4 05 	lds	r24, 0x05E4	; 0x8005e4 <g_number_of_foxes>
    21ae:	90 91 e5 05 	lds	r25, 0x05E5	; 0x8005e5 <g_number_of_foxes+0x1>
    21b2:	89 2b       	or	r24, r25
    21b4:	09 f4       	brne	.+2      	; 0x21b8 <__vector_1+0x1a6>
    21b6:	55 c0       	rjmp	.+170    	; 0x2262 <__vector_1+0x250>
    21b8:	60 91 fd 05 	lds	r22, 0x05FD	; 0x8005fd <g_seconds_since_sync>
    21bc:	70 91 fe 05 	lds	r23, 0x05FE	; 0x8005fe <g_seconds_since_sync+0x1>
    21c0:	80 91 ff 05 	lds	r24, 0x05FF	; 0x8005ff <g_seconds_since_sync+0x2>
    21c4:	90 91 00 06 	lds	r25, 0x0600	; 0x800600 <g_seconds_since_sync+0x3>
    21c8:	20 91 e8 05 	lds	r18, 0x05E8	; 0x8005e8 <g_on_air_interval>
    21cc:	30 91 e9 05 	lds	r19, 0x05E9	; 0x8005e9 <g_on_air_interval+0x1>
    21d0:	03 2e       	mov	r0, r19
    21d2:	00 0c       	add	r0, r0
    21d4:	44 0b       	sbc	r20, r20
    21d6:	55 0b       	sbc	r21, r21
    21d8:	0e 94 70 28 	call	0x50e0	; 0x50e0 <__divmodsi4>
    21dc:	67 2b       	or	r22, r23
    21de:	68 2b       	or	r22, r24
    21e0:	69 2b       	or	r22, r25
    21e2:	09 f4       	brne	.+2      	; 0x21e6 <__vector_1+0x1d4>
    21e4:	68 c0       	rjmp	.+208    	; 0x22b6 <__vector_1+0x2a4>
    21e6:	3d c0       	rjmp	.+122    	; 0x2262 <__vector_1+0x250>
			{
				g_fox_counter++;

				if(g_fox_counter > g_number_of_foxes)
				{
					g_fox_counter = 1;
    21e8:	81 e0       	ldi	r24, 0x01	; 1
    21ea:	90 e0       	ldi	r25, 0x00	; 0
    21ec:	90 93 1f 01 	sts	0x011F, r25	; 0x80011f <g_fox_counter+0x1>
    21f0:	80 93 1e 01 	sts	0x011E, r24	; 0x80011e <g_fox_counter>

					if(g_sync_enabled)
    21f4:	80 91 19 01 	lds	r24, 0x0119	; 0x800119 <g_sync_enabled>
    21f8:	88 23       	and	r24, r24
    21fa:	a1 f0       	breq	.+40     	; 0x2224 <__vector_1+0x212>
					{
						PCMSK2 &= ~(1 << PCINT20);  /* Disable PCINT20 */
    21fc:	ed e6       	ldi	r30, 0x6D	; 109
    21fe:	f0 e0       	ldi	r31, 0x00	; 0
    2200:	80 81       	ld	r24, Z
    2202:	8f 7e       	andi	r24, 0xEF	; 239
    2204:	80 83       	st	Z, r24
						PCICR &= ~(1 << PCIE2);     /* Disable pin change interrupt 2 */
    2206:	e8 e6       	ldi	r30, 0x68	; 104
    2208:	f0 e0       	ldi	r31, 0x00	; 0
    220a:	80 81       	ld	r24, Z
    220c:	8b 7f       	andi	r24, 0xFB	; 251
    220e:	80 83       	st	Z, r24
						pinMode(PIN_SYNC, INPUT);
    2210:	60 e0       	ldi	r22, 0x00	; 0
    2212:	84 e0       	ldi	r24, 0x04	; 4
    2214:	0e 94 41 01 	call	0x282	; 0x282 <_Z7pinModehh>
						pinMode(PIN_SYNC, OUTPUT);  /* Set sync pin as output low */
    2218:	61 e0       	ldi	r22, 0x01	; 1
    221a:	84 e0       	ldi	r24, 0x04	; 4
    221c:	0e 94 41 01 	call	0x282	; 0x282 <_Z7pinModehh>
						g_sync_enabled = FALSE;
    2220:	10 92 19 01 	sts	0x0119, r1	; 0x800119 <g_sync_enabled>
					}

					g_LEDs_Timed_Out = TRUE;
    2224:	81 e0       	ldi	r24, 0x01	; 1
    2226:	80 93 71 05 	sts	0x0571, r24	; 0x800571 <_ZL16g_LEDs_Timed_Out>
					digitalWrite(PIN_LED2, OFF);
    222a:	60 e0       	ldi	r22, 0x00	; 0
    222c:	87 e0       	ldi	r24, 0x07	; 7
    222e:	0e 94 2f 02 	call	0x45e	; 0x45e <_Z12digitalWritehh>
				}
				g_fox_transition = TRUE;
    2232:	81 e0       	ldi	r24, 0x01	; 1
    2234:	80 93 e3 05 	sts	0x05E3, r24	; 0x8005e3 <g_fox_transition>
				g_fox_seconds_into_interval = 0;
    2238:	10 92 e7 05 	sts	0x05E7, r1	; 0x8005e7 <g_fox_seconds_into_interval+0x1>
    223c:	10 92 e6 05 	sts	0x05E6, r1	; 0x8005e6 <g_fox_seconds_into_interval>

				if(!id_countdown)
    2240:	80 91 1c 05 	lds	r24, 0x051C	; 0x80051c <_ZZ10__vector_1E12id_countdown>
    2244:	90 91 1d 05 	lds	r25, 0x051D	; 0x80051d <_ZZ10__vector_1E12id_countdown+0x1>
    2248:	89 2b       	or	r24, r25
    224a:	59 f4       	brne	.+22     	; 0x2262 <__vector_1+0x250>
				{
					id_countdown = g_id_interval;
    224c:	80 91 df 05 	lds	r24, 0x05DF	; 0x8005df <g_id_interval>
    2250:	90 91 e0 05 	lds	r25, 0x05E0	; 0x8005e0 <g_id_interval+0x1>
    2254:	90 93 1d 05 	sts	0x051D, r25	; 0x80051d <_ZZ10__vector_1E12id_countdown+0x1>
    2258:	80 93 1c 05 	sts	0x051C, r24	; 0x80051c <_ZZ10__vector_1E12id_countdown>
					g_time_to_ID = TRUE;
    225c:	81 e0       	ldi	r24, 0x01	; 1
    225e:	80 93 de 05 	sts	0x05DE, r24	; 0x8005de <g_time_to_ID>
				}
			}

			if(g_enable_start_timer && ((g_seconds_since_sync + 11) % g_startclock_interval <= 10))
    2262:	80 91 a7 05 	lds	r24, 0x05A7	; 0x8005a7 <_ZL20g_enable_start_timer>
    2266:	88 23       	and	r24, r24
    2268:	09 f4       	brne	.+2      	; 0x226c <__vector_1+0x25a>
    226a:	56 c0       	rjmp	.+172    	; 0x2318 <__vector_1+0x306>
    226c:	80 91 fd 05 	lds	r24, 0x05FD	; 0x8005fd <g_seconds_since_sync>
    2270:	90 91 fe 05 	lds	r25, 0x05FE	; 0x8005fe <g_seconds_since_sync+0x1>
    2274:	a0 91 ff 05 	lds	r26, 0x05FF	; 0x8005ff <g_seconds_since_sync+0x2>
    2278:	b0 91 00 06 	lds	r27, 0x0600	; 0x800600 <g_seconds_since_sync+0x3>
    227c:	20 91 1c 01 	lds	r18, 0x011C	; 0x80011c <g_startclock_interval>
    2280:	30 91 1d 01 	lds	r19, 0x011D	; 0x80011d <g_startclock_interval+0x1>
    2284:	bc 01       	movw	r22, r24
    2286:	cd 01       	movw	r24, r26
    2288:	65 5f       	subi	r22, 0xF5	; 245
    228a:	7f 4f       	sbci	r23, 0xFF	; 255
    228c:	8f 4f       	sbci	r24, 0xFF	; 255
    228e:	9f 4f       	sbci	r25, 0xFF	; 255
    2290:	03 2e       	mov	r0, r19
    2292:	00 0c       	add	r0, r0
    2294:	44 0b       	sbc	r20, r20
    2296:	55 0b       	sbc	r21, r21
    2298:	0e 94 70 28 	call	0x50e0	; 0x50e0 <__divmodsi4>
    229c:	6b 30       	cpi	r22, 0x0B	; 11
    229e:	71 05       	cpc	r23, r1
    22a0:	81 05       	cpc	r24, r1
    22a2:	91 05       	cpc	r25, r1
    22a4:	f4 f0       	brlt	.+60     	; 0x22e2 <__vector_1+0x2d0>
    22a6:	38 c0       	rjmp	.+112    	; 0x2318 <__vector_1+0x306>
	{
		if(g_use_rtc_to_start)
		{
			if((g_current_epoch >= g_event_start_epoch) && (g_current_epoch < g_event_finish_epoch))
			{
				setupForFox(NULL);
    22a8:	80 e0       	ldi	r24, 0x00	; 0
    22aa:	90 e0       	ldi	r25, 0x00	; 0
    22ac:	0e 94 b1 0e 	call	0x1d62	; 0x1d62 <_Z11setupForFoxP5Fox_t>
				g_transmissions_disabled = FALSE;
    22b0:	10 92 20 01 	sts	0x0120, r1	; 0x800120 <g_transmissions_disabled>
    22b4:	33 c0       	rjmp	.+102    	; 0x231c <__vector_1+0x30a>
				id_countdown--;
			}

			if(g_number_of_foxes && ((g_seconds_since_sync % g_on_air_interval) == 0))
			{
				g_fox_counter++;
    22b6:	80 91 1e 01 	lds	r24, 0x011E	; 0x80011e <g_fox_counter>
    22ba:	90 91 1f 01 	lds	r25, 0x011F	; 0x80011f <g_fox_counter+0x1>
    22be:	01 96       	adiw	r24, 0x01	; 1
    22c0:	90 93 1f 01 	sts	0x011F, r25	; 0x80011f <g_fox_counter+0x1>
    22c4:	80 93 1e 01 	sts	0x011E, r24	; 0x80011e <g_fox_counter>

				if(g_fox_counter > g_number_of_foxes)
    22c8:	20 91 1e 01 	lds	r18, 0x011E	; 0x80011e <g_fox_counter>
    22cc:	30 91 1f 01 	lds	r19, 0x011F	; 0x80011f <g_fox_counter+0x1>
    22d0:	80 91 e4 05 	lds	r24, 0x05E4	; 0x8005e4 <g_number_of_foxes>
    22d4:	90 91 e5 05 	lds	r25, 0x05E5	; 0x8005e5 <g_number_of_foxes+0x1>
    22d8:	82 17       	cp	r24, r18
    22da:	93 07       	cpc	r25, r19
    22dc:	0c f4       	brge	.+2      	; 0x22e0 <__vector_1+0x2ce>
    22de:	84 cf       	rjmp	.-248    	; 0x21e8 <__vector_1+0x1d6>
    22e0:	a8 cf       	rjmp	.-176    	; 0x2232 <__vector_1+0x220>
				}
			}

			if(g_enable_start_timer && ((g_seconds_since_sync + 11) % g_startclock_interval <= 10))
			{
				g_lastSeconds = (uint8_t)((g_seconds_since_sync + 11) % g_startclock_interval);
    22e2:	80 91 fd 05 	lds	r24, 0x05FD	; 0x8005fd <g_seconds_since_sync>
    22e6:	90 91 fe 05 	lds	r25, 0x05FE	; 0x8005fe <g_seconds_since_sync+0x1>
    22ea:	a0 91 ff 05 	lds	r26, 0x05FF	; 0x8005ff <g_seconds_since_sync+0x2>
    22ee:	b0 91 00 06 	lds	r27, 0x0600	; 0x800600 <g_seconds_since_sync+0x3>
    22f2:	20 91 1c 01 	lds	r18, 0x011C	; 0x80011c <g_startclock_interval>
    22f6:	30 91 1d 01 	lds	r19, 0x011D	; 0x80011d <g_startclock_interval+0x1>
    22fa:	bc 01       	movw	r22, r24
    22fc:	cd 01       	movw	r24, r26
    22fe:	65 5f       	subi	r22, 0xF5	; 245
    2300:	7f 4f       	sbci	r23, 0xFF	; 255
    2302:	8f 4f       	sbci	r24, 0xFF	; 255
    2304:	9f 4f       	sbci	r25, 0xFF	; 255
    2306:	03 2e       	mov	r0, r19
    2308:	00 0c       	add	r0, r0
    230a:	44 0b       	sbc	r20, r20
    230c:	55 0b       	sbc	r21, r21
    230e:	0e 94 70 28 	call	0x50e0	; 0x50e0 <__divmodsi4>
    2312:	60 93 dc 05 	sts	0x05DC, r22	; 0x8005dc <g_lastSeconds>
    2316:	02 c0       	rjmp	.+4      	; 0x231c <__vector_1+0x30a>
			}
			else
			{
				g_lastSeconds = 0;
    2318:	10 92 dc 05 	sts	0x05DC, r1	; 0x8005dc <g_lastSeconds>
			}
		}
	}
}   /* end of Timer1 ISR */
    231c:	ff 91       	pop	r31
    231e:	ef 91       	pop	r30
    2320:	bf 91       	pop	r27
    2322:	af 91       	pop	r26
    2324:	9f 91       	pop	r25
    2326:	8f 91       	pop	r24
    2328:	7f 91       	pop	r23
    232a:	6f 91       	pop	r22
    232c:	5f 91       	pop	r21
    232e:	4f 91       	pop	r20
    2330:	3f 91       	pop	r19
    2332:	2f 91       	pop	r18
    2334:	0f 90       	pop	r0
    2336:	0f be       	out	0x3f, r0	; 63
    2338:	0f 90       	pop	r0
    233a:	1f 90       	pop	r1
    233c:	18 95       	reti

0000233e <_Z12permCallsignPc>:
	g_LEDs_Timed_Out = !g_enable_LEDs;
	digitalWrite(PIN_LED2,OFF); /*  LED Off - in case it was on in the middle of a transmission */
}

void permCallsign(char* call)
{
    233e:	0f 93       	push	r16
    2340:	1f 93       	push	r17
    2342:	cf 93       	push	r28
	uint8_t i;

	strncpy(g_messages_text[STATION_ID],call,MAX_PATTERN_TEXT_LENGTH);
    2344:	44 e1       	ldi	r20, 0x14	; 20
    2346:	50 e0       	ldi	r21, 0x00	; 0
    2348:	bc 01       	movw	r22, r24
    234a:	80 ec       	ldi	r24, 0xC0	; 192
    234c:	95 e0       	ldi	r25, 0x05	; 5
    234e:	0e 94 3e 2a 	call	0x547c	; 0x547c <strncpy>

	for(i = 0; i < strlen(g_messages_text[STATION_ID]); i++)
    2352:	c0 e0       	ldi	r28, 0x00	; 0
    2354:	00 ec       	ldi	r16, 0xC0	; 192
    2356:	15 e0       	ldi	r17, 0x05	; 5
    2358:	f8 01       	movw	r30, r16
    235a:	01 90       	ld	r0, Z+
    235c:	00 20       	and	r0, r0
    235e:	e9 f7       	brne	.-6      	; 0x235a <_Z12permCallsignPc+0x1c>
    2360:	cf 01       	movw	r24, r30
    2362:	81 5c       	subi	r24, 0xC1	; 193
    2364:	95 40       	sbci	r25, 0x05	; 5
    2366:	2c 2f       	mov	r18, r28
    2368:	30 e0       	ldi	r19, 0x00	; 0
    236a:	28 17       	cp	r18, r24
    236c:	39 07       	cpc	r19, r25
    236e:	58 f4       	brcc	.+22     	; 0x2386 <_Z12permCallsignPc+0x48>
	{
		eeprom_update_byte((uint8_t*)&ee_stationID_text[i],(uint8_t)g_messages_text[STATION_ID][i]);
    2370:	c9 01       	movw	r24, r18
    2372:	fc 01       	movw	r30, r24
    2374:	e5 55       	subi	r30, 0x55	; 85
    2376:	fa 4f       	sbci	r31, 0xFA	; 250
    2378:	65 89       	ldd	r22, Z+21	; 0x15
    237a:	8f 5d       	subi	r24, 0xDF	; 223
    237c:	9d 4f       	sbci	r25, 0xFD	; 253
    237e:	0e 94 31 2d 	call	0x5a62	; 0x5a62 <eeprom_update_byte>
{
	uint8_t i;

	strncpy(g_messages_text[STATION_ID],call,MAX_PATTERN_TEXT_LENGTH);

	for(i = 0; i < strlen(g_messages_text[STATION_ID]); i++)
    2382:	cf 5f       	subi	r28, 0xFF	; 255
    2384:	e9 cf       	rjmp	.-46     	; 0x2358 <_Z12permCallsignPc+0x1a>
	{
		eeprom_update_byte((uint8_t*)&ee_stationID_text[i],(uint8_t)g_messages_text[STATION_ID][i]);
	}

	eeprom_update_byte((uint8_t*)&ee_stationID_text[i],0);
    2386:	8c 2f       	mov	r24, r28
    2388:	90 e0       	ldi	r25, 0x00	; 0
    238a:	60 e0       	ldi	r22, 0x00	; 0
    238c:	8f 5d       	subi	r24, 0xDF	; 223
    238e:	9d 4f       	sbci	r25, 0xFD	; 253
    2390:	0e 94 31 2d 	call	0x5a62	; 0x5a62 <eeprom_update_byte>
}
    2394:	cf 91       	pop	r28
    2396:	1f 91       	pop	r17
    2398:	0f 91       	pop	r16
    239a:	08 95       	ret

0000239c <_Z7permFox5Fox_t>:

void permFox(Fox_t fox)
{
	eeprom_update_byte((uint8_t*)&ee_fox_setting,(uint8_t)fox);
    239c:	68 2f       	mov	r22, r24
    239e:	87 ea       	ldi	r24, 0xA7	; 167
    23a0:	91 e0       	ldi	r25, 0x01	; 1
    23a2:	0e 94 31 2d 	call	0x5a62	; 0x5a62 <eeprom_update_byte>
    23a6:	08 95       	ret

000023a8 <_Z10processKeyc>:
 *  *B nn # - Address the following command to only those foxes in the specified competition format (used in case more than one competition's foxes might be listening)
 *  *D c...c # - Unlock Arducon (re-enable DTMF commands) where c...c is the password
 *  *D# - Lock Arducon (disables all DTMF commands except *Dc...c#)
 */
void processKey(char key)
{
    23a8:	cf 93       	push	r28
    23aa:	df 93       	push	r29
    23ac:	1f 92       	push	r1
    23ae:	cd b7       	in	r28, 0x3d	; 61
    23b0:	de b7       	in	r29, 0x3e	; 62
	static int digits;
	static int value;
	static int stringLength;
	static char receivedString[MAX_PATTERN_TEXT_LENGTH + 1] = { '\0' };

	switch(state)
    23b2:	e0 91 08 01 	lds	r30, 0x0108	; 0x800108 <_ZZ10processKeycE5state>
    23b6:	f0 91 09 01 	lds	r31, 0x0109	; 0x800109 <_ZZ10processKeycE5state+0x1>
    23ba:	ed 30       	cpi	r30, 0x0D	; 13
    23bc:	f1 05       	cpc	r31, r1
    23be:	08 f0       	brcs	.+2      	; 0x23c2 <_Z10processKeyc+0x1a>
    23c0:	53 c1       	rjmp	.+678    	; 0x2668 <_Z10processKeyc+0x2c0>
    23c2:	e5 58       	subi	r30, 0x85	; 133
    23c4:	ff 4f       	sbci	r31, 0xFF	; 255
    23c6:	0c 94 8f 28 	jmp	0x511e	; 0x511e <__tablejump2__>
	{
		case STATE_SHUTDOWN:
		{
			if(key == '*')
    23ca:	8a 32       	cpi	r24, 0x2A	; 42
    23cc:	09 f0       	breq	.+2      	; 0x23d0 <_Z10processKeyc+0x28>
    23ce:	4c c1       	rjmp	.+664    	; 0x2668 <_Z10processKeyc+0x2c0>
			{
				state = STATE_SENTENCE_START;
    23d0:	81 e0       	ldi	r24, 0x01	; 1
    23d2:	90 e0       	ldi	r25, 0x00	; 0
    23d4:	90 93 09 01 	sts	0x0109, r25	; 0x800109 <_ZZ10processKeycE5state+0x1>
    23d8:	80 93 08 01 	sts	0x0108, r24	; 0x800108 <_ZZ10processKeycE5state>
    23dc:	45 c1       	rjmp	.+650    	; 0x2668 <_Z10processKeyc+0x2c0>
		}
		break;

		case STATE_SENTENCE_START:
		{
			stringLength = 0;
    23de:	10 92 16 05 	sts	0x0516, r1	; 0x800516 <_ZZ10processKeycE12stringLength+0x1>
    23e2:	10 92 15 05 	sts	0x0515, r1	; 0x800515 <_ZZ10processKeycE12stringLength>
			value = 0;
    23e6:	10 92 14 05 	sts	0x0514, r1	; 0x800514 <_ZZ10processKeycE5value+0x1>
    23ea:	10 92 13 05 	sts	0x0513, r1	; 0x800513 <_ZZ10processKeycE5value>
			digits = 0;
    23ee:	10 92 12 05 	sts	0x0512, r1	; 0x800512 <_ZZ10processKeycE6digits+0x1>
    23f2:	10 92 11 05 	sts	0x0511, r1	; 0x800511 <_ZZ10processKeycE6digits>

			if(key == 'C')
    23f6:	83 34       	cpi	r24, 0x43	; 67
    23f8:	39 f4       	brne	.+14     	; 0x2408 <_Z10processKeyc+0x60>
			{
				state = STATE_C;
    23fa:	86 e0       	ldi	r24, 0x06	; 6
    23fc:	90 e0       	ldi	r25, 0x00	; 0
    23fe:	90 93 09 01 	sts	0x0109, r25	; 0x800109 <_ZZ10processKeycE5state+0x1>
    2402:	80 93 08 01 	sts	0x0108, r24	; 0x800108 <_ZZ10processKeycE5state>
    2406:	30 c1       	rjmp	.+608    	; 0x2668 <_Z10processKeyc+0x2c0>
			}
			else if(key == 'A')
    2408:	81 34       	cpi	r24, 0x41	; 65
    240a:	09 f0       	breq	.+2      	; 0x240e <_Z10processKeyc+0x66>
    240c:	2d c1       	rjmp	.+602    	; 0x2668 <_Z10processKeyc+0x2c0>
			{
				state = STATE_A;
    240e:	82 e0       	ldi	r24, 0x02	; 2
    2410:	90 e0       	ldi	r25, 0x00	; 0
    2412:	90 93 09 01 	sts	0x0109, r25	; 0x800109 <_ZZ10processKeycE5state+0x1>
    2416:	80 93 08 01 	sts	0x0108, r24	; 0x800108 <_ZZ10processKeycE5state>
    241a:	26 c1       	rjmp	.+588    	; 0x2668 <_Z10processKeyc+0x2c0>
		}
		break;

		case STATE_A:
		{
			if(key == '0')
    241c:	80 33       	cpi	r24, 0x30	; 48
    241e:	39 f4       	brne	.+14     	; 0x242e <_Z10processKeyc+0x86>
			{
				state = STATE_PAUSE_TRANSMISSIONS;
    2420:	83 e0       	ldi	r24, 0x03	; 3
    2422:	90 e0       	ldi	r25, 0x00	; 0
    2424:	90 93 09 01 	sts	0x0109, r25	; 0x800109 <_ZZ10processKeycE5state+0x1>
    2428:	80 93 08 01 	sts	0x0108, r24	; 0x800108 <_ZZ10processKeycE5state>
    242c:	1d c1       	rjmp	.+570    	; 0x2668 <_Z10processKeyc+0x2c0>
			}
			else if(key == '1')
    242e:	81 33       	cpi	r24, 0x31	; 49
    2430:	39 f4       	brne	.+14     	; 0x2440 <_Z10processKeyc+0x98>
			{
				state = STATE_START_TRANSMISSIONS;
    2432:	84 e0       	ldi	r24, 0x04	; 4
    2434:	90 e0       	ldi	r25, 0x00	; 0
    2436:	90 93 09 01 	sts	0x0109, r25	; 0x800109 <_ZZ10processKeycE5state+0x1>
    243a:	80 93 08 01 	sts	0x0108, r24	; 0x800108 <_ZZ10processKeycE5state>
    243e:	14 c1       	rjmp	.+552    	; 0x2668 <_Z10processKeyc+0x2c0>
			}
			else if(key == '2')
    2440:	82 33       	cpi	r24, 0x32	; 50
    2442:	09 f0       	breq	.+2      	; 0x2446 <_Z10processKeyc+0x9e>
    2444:	11 c1       	rjmp	.+546    	; 0x2668 <_Z10processKeyc+0x2c0>
			{
				state = STATE_RESTART_TRANSMISSIONS;
    2446:	85 e0       	ldi	r24, 0x05	; 5
    2448:	90 e0       	ldi	r25, 0x00	; 0
    244a:	90 93 09 01 	sts	0x0109, r25	; 0x800109 <_ZZ10processKeycE5state+0x1>
    244e:	80 93 08 01 	sts	0x0108, r24	; 0x800108 <_ZZ10processKeycE5state>
    2452:	0a c1       	rjmp	.+532    	; 0x2668 <_Z10processKeyc+0x2c0>
		}
		break;

		case STATE_PAUSE_TRANSMISSIONS:
		{
			if(key == '#')
    2454:	83 32       	cpi	r24, 0x23	; 35
    2456:	09 f0       	breq	.+2      	; 0x245a <_Z10processKeyc+0xb2>
    2458:	07 c1       	rjmp	.+526    	; 0x2668 <_Z10processKeyc+0x2c0>
			{
				state = STATE_SHUTDOWN;
    245a:	10 92 09 01 	sts	0x0109, r1	; 0x800109 <_ZZ10processKeycE5state+0x1>
    245e:	10 92 08 01 	sts	0x0108, r1	; 0x800108 <_ZZ10processKeycE5state>
    2462:	02 c1       	rjmp	.+516    	; 0x2668 <_Z10processKeyc+0x2c0>
		}
		break;

		case STATE_C:
		{
			if(key == '1')
    2464:	81 33       	cpi	r24, 0x31	; 49
    2466:	39 f4       	brne	.+14     	; 0x2476 <_Z10processKeyc+0xce>
			{
				state = STATE_RECEIVING_CALLSIGN;
    2468:	87 e0       	ldi	r24, 0x07	; 7
    246a:	90 e0       	ldi	r25, 0x00	; 0
    246c:	90 93 09 01 	sts	0x0109, r25	; 0x800109 <_ZZ10processKeycE5state+0x1>
    2470:	80 93 08 01 	sts	0x0108, r24	; 0x800108 <_ZZ10processKeycE5state>
    2474:	f9 c0       	rjmp	.+498    	; 0x2668 <_Z10processKeyc+0x2c0>
			}
			else if(key == '2')
    2476:	82 33       	cpi	r24, 0x32	; 50
    2478:	39 f4       	brne	.+14     	; 0x2488 <_Z10processKeyc+0xe0>
			{
				state = STATE_RECEIVING_FOXFORMATANDID;
    247a:	88 e0       	ldi	r24, 0x08	; 8
    247c:	90 e0       	ldi	r25, 0x00	; 0
    247e:	90 93 09 01 	sts	0x0109, r25	; 0x800109 <_ZZ10processKeycE5state+0x1>
    2482:	80 93 08 01 	sts	0x0108, r24	; 0x800108 <_ZZ10processKeycE5state>
    2486:	f0 c0       	rjmp	.+480    	; 0x2668 <_Z10processKeyc+0x2c0>
			}
			else if(key == '4')
    2488:	84 33       	cpi	r24, 0x34	; 52
    248a:	39 f4       	brne	.+14     	; 0x249a <_Z10processKeyc+0xf2>
			{
				state = STATE_RECEIVING_START_TIME;
    248c:	89 e0       	ldi	r24, 0x09	; 9
    248e:	90 e0       	ldi	r25, 0x00	; 0
    2490:	90 93 09 01 	sts	0x0109, r25	; 0x800109 <_ZZ10processKeycE5state+0x1>
    2494:	80 93 08 01 	sts	0x0108, r24	; 0x800108 <_ZZ10processKeycE5state>
    2498:	e7 c0       	rjmp	.+462    	; 0x2668 <_Z10processKeyc+0x2c0>
			}
			else if(key == '5')
    249a:	85 33       	cpi	r24, 0x35	; 53
    249c:	39 f4       	brne	.+14     	; 0x24ac <_Z10processKeyc+0x104>
			{
				state = STATE_RECEIVING_FINISH_TIME;
    249e:	8a e0       	ldi	r24, 0x0A	; 10
    24a0:	90 e0       	ldi	r25, 0x00	; 0
    24a2:	90 93 09 01 	sts	0x0109, r25	; 0x800109 <_ZZ10processKeycE5state+0x1>
    24a6:	80 93 08 01 	sts	0x0108, r24	; 0x800108 <_ZZ10processKeycE5state>
    24aa:	de c0       	rjmp	.+444    	; 0x2668 <_Z10processKeyc+0x2c0>
			}
			else if(key == '6')
    24ac:	86 33       	cpi	r24, 0x36	; 54
    24ae:	39 f4       	brne	.+14     	; 0x24be <_Z10processKeyc+0x116>
			{
				state = STATE_RECEIVING_START_NOW;
    24b0:	8b e0       	ldi	r24, 0x0B	; 11
    24b2:	90 e0       	ldi	r25, 0x00	; 0
    24b4:	90 93 09 01 	sts	0x0109, r25	; 0x800109 <_ZZ10processKeycE5state+0x1>
    24b8:	80 93 08 01 	sts	0x0108, r24	; 0x800108 <_ZZ10processKeycE5state>
    24bc:	d5 c0       	rjmp	.+426    	; 0x2668 <_Z10processKeyc+0x2c0>
			}
			else if(key == '7') /* *C7YYMMDDhhmmss# Set RTC to this time and date */
    24be:	87 33       	cpi	r24, 0x37	; 55
    24c0:	09 f0       	breq	.+2      	; 0x24c4 <_Z10processKeyc+0x11c>
    24c2:	d2 c0       	rjmp	.+420    	; 0x2668 <_Z10processKeyc+0x2c0>
			{
				state = STATE_RECEIVING_SET_CLOCK;
    24c4:	8c e0       	ldi	r24, 0x0C	; 12
    24c6:	90 e0       	ldi	r25, 0x00	; 0
    24c8:	90 93 09 01 	sts	0x0109, r25	; 0x800109 <_ZZ10processKeycE5state+0x1>
    24cc:	80 93 08 01 	sts	0x0108, r24	; 0x800108 <_ZZ10processKeycE5state>
    24d0:	cb c0       	rjmp	.+406    	; 0x2668 <_Z10processKeyc+0x2c0>
		}
		break;

		case STATE_RECEIVING_CALLSIGN:
		{
			if(key == '#')
    24d2:	83 32       	cpi	r24, 0x23	; 35
    24d4:	71 f4       	brne	.+28     	; 0x24f2 <_Z10processKeyc+0x14a>
			{
				permCallsign(receivedString);
    24d6:	8c ef       	ldi	r24, 0xFC	; 252
    24d8:	94 e0       	ldi	r25, 0x04	; 4
    24da:	0e 94 9f 11 	call	0x233e	; 0x233e <_Z12permCallsignPc>
				lb_send_string(receivedString,FALSE);
    24de:	60 e0       	ldi	r22, 0x00	; 0
    24e0:	8c ef       	ldi	r24, 0xFC	; 252
    24e2:	94 e0       	ldi	r25, 0x04	; 4
    24e4:	0e 94 30 07 	call	0xe60	; 0xe60 <_Z14lb_send_stringPch>
				state = STATE_SHUTDOWN;
    24e8:	10 92 09 01 	sts	0x0109, r1	; 0x800109 <_ZZ10processKeycE5state+0x1>
    24ec:	10 92 08 01 	sts	0x0108, r1	; 0x800108 <_ZZ10processKeycE5state>
    24f0:	bb c0       	rjmp	.+374    	; 0x2668 <_Z10processKeyc+0x2c0>
			}
			else if((key >= '0') && (key <= '9'))
    24f2:	90 ed       	ldi	r25, 0xD0	; 208
    24f4:	98 0f       	add	r25, r24
    24f6:	9a 30       	cpi	r25, 0x0A	; 10
    24f8:	08 f0       	brcs	.+2      	; 0x24fc <_Z10processKeyc+0x154>
    24fa:	b6 c0       	rjmp	.+364    	; 0x2668 <_Z10processKeyc+0x2c0>
			{
				if(digits)
    24fc:	20 91 11 05 	lds	r18, 0x0511	; 0x800511 <_ZZ10processKeycE6digits>
    2500:	30 91 12 05 	lds	r19, 0x0512	; 0x800512 <_ZZ10processKeycE6digits+0x1>
    2504:	23 2b       	or	r18, r19
    2506:	c1 f1       	breq	.+112    	; 0x2578 <_Z10processKeyc+0x1d0>
				{
					value = value * 10 + (key - '0');
    2508:	20 91 13 05 	lds	r18, 0x0513	; 0x800513 <_ZZ10processKeycE5value>
    250c:	30 91 14 05 	lds	r19, 0x0514	; 0x800514 <_ZZ10processKeycE5value+0x1>
    2510:	a9 01       	movw	r20, r18
    2512:	44 0f       	add	r20, r20
    2514:	55 1f       	adc	r21, r21
    2516:	22 0f       	add	r18, r18
    2518:	33 1f       	adc	r19, r19
    251a:	22 0f       	add	r18, r18
    251c:	33 1f       	adc	r19, r19
    251e:	22 0f       	add	r18, r18
    2520:	33 1f       	adc	r19, r19
    2522:	24 0f       	add	r18, r20
    2524:	35 1f       	adc	r19, r21
    2526:	90 e0       	ldi	r25, 0x00	; 0
    2528:	c0 97       	sbiw	r24, 0x30	; 48
    252a:	82 0f       	add	r24, r18
    252c:	93 1f       	adc	r25, r19
    252e:	90 93 14 05 	sts	0x0514, r25	; 0x800514 <_ZZ10processKeycE5value+0x1>
    2532:	80 93 13 05 	sts	0x0513, r24	; 0x800513 <_ZZ10processKeycE5value>
					if((value < numMorseChars) && (stringLength < MAX_PATTERN_TEXT_LENGTH))
    2536:	87 32       	cpi	r24, 0x27	; 39
    2538:	91 05       	cpc	r25, r1
    253a:	cc f4       	brge	.+50     	; 0x256e <_Z10processKeyc+0x1c6>
    253c:	20 91 15 05 	lds	r18, 0x0515	; 0x800515 <_ZZ10processKeycE12stringLength>
    2540:	30 91 16 05 	lds	r19, 0x0516	; 0x800516 <_ZZ10processKeycE12stringLength+0x1>
    2544:	24 31       	cpi	r18, 0x14	; 20
    2546:	31 05       	cpc	r19, r1
    2548:	94 f4       	brge	.+36     	; 0x256e <_Z10processKeyc+0x1c6>
					{
						receivedString[stringLength] = keyMorse[value];
    254a:	f9 01       	movw	r30, r18
    254c:	e4 50       	subi	r30, 0x04	; 4
    254e:	fb 4f       	sbci	r31, 0xFB	; 251
    2550:	dc 01       	movw	r26, r24
    2552:	ae 52       	subi	r26, 0x2E	; 46
    2554:	bd 4f       	sbci	r27, 0xFD	; 253
    2556:	8c 91       	ld	r24, X
    2558:	80 83       	st	Z, r24
						stringLength++;
    255a:	2f 5f       	subi	r18, 0xFF	; 255
    255c:	3f 4f       	sbci	r19, 0xFF	; 255
    255e:	30 93 16 05 	sts	0x0516, r19	; 0x800516 <_ZZ10processKeycE12stringLength+0x1>
    2562:	20 93 15 05 	sts	0x0515, r18	; 0x800515 <_ZZ10processKeycE12stringLength>
						receivedString[stringLength] = '\0';
    2566:	f9 01       	movw	r30, r18
    2568:	e4 50       	subi	r30, 0x04	; 4
    256a:	fb 4f       	sbci	r31, 0xFB	; 251
    256c:	10 82       	st	Z, r1
					}

					digits = 0;
    256e:	10 92 12 05 	sts	0x0512, r1	; 0x800512 <_ZZ10processKeycE6digits+0x1>
    2572:	10 92 11 05 	sts	0x0511, r1	; 0x800511 <_ZZ10processKeycE6digits>
    2576:	78 c0       	rjmp	.+240    	; 0x2668 <_Z10processKeyc+0x2c0>
				}
				else
				{
					value = key - '0';
    2578:	90 e0       	ldi	r25, 0x00	; 0
    257a:	c0 97       	sbiw	r24, 0x30	; 48
    257c:	90 93 14 05 	sts	0x0514, r25	; 0x800514 <_ZZ10processKeycE5value+0x1>
    2580:	80 93 13 05 	sts	0x0513, r24	; 0x800513 <_ZZ10processKeycE5value>
					digits = 1;
    2584:	81 e0       	ldi	r24, 0x01	; 1
    2586:	90 e0       	ldi	r25, 0x00	; 0
    2588:	90 93 12 05 	sts	0x0512, r25	; 0x800512 <_ZZ10processKeycE6digits+0x1>
    258c:	80 93 11 05 	sts	0x0511, r24	; 0x800511 <_ZZ10processKeycE6digits>
    2590:	6b c0       	rjmp	.+214    	; 0x2668 <_Z10processKeyc+0x2c0>
		}
		break;

		case STATE_RECEIVING_FOXFORMATANDID:
		{
			if(key == '#')
    2592:	83 32       	cpi	r24, 0x23	; 35
    2594:	c1 f4       	brne	.+48     	; 0x25c6 <_Z10processKeyc+0x21e>
			{
				if((value >= BEACON) && (value < INVALID_FOX))
    2596:	80 91 13 05 	lds	r24, 0x0513	; 0x800513 <_ZZ10processKeycE5value>
    259a:	90 91 14 05 	lds	r25, 0x0514	; 0x800514 <_ZZ10processKeycE5value+0x1>
    259e:	86 31       	cpi	r24, 0x16	; 22
    25a0:	91 05       	cpc	r25, r1
    25a2:	60 f4       	brcc	.+24     	; 0x25bc <_Z10processKeyc+0x214>
				{
					Fox_t holdFox = (Fox_t)value;
    25a4:	89 83       	std	Y+1, r24	; 0x01
					permFox(holdFox);
    25a6:	0e 94 ce 11 	call	0x239c	; 0x239c <_Z7permFox5Fox_t>
					if(holdFox != g_fox)
    25aa:	80 91 fc 05 	lds	r24, 0x05FC	; 0x8005fc <g_fox>
    25ae:	99 81       	ldd	r25, Y+1	; 0x01
    25b0:	98 17       	cp	r25, r24
    25b2:	21 f0       	breq	.+8      	; 0x25bc <_Z10processKeyc+0x214>
					{
						setupForFox(&holdFox);
    25b4:	ce 01       	movw	r24, r28
    25b6:	01 96       	adiw	r24, 0x01	; 1
    25b8:	0e 94 b1 0e 	call	0x1d62	; 0x1d62 <_Z11setupForFoxP5Fox_t>
					}
				}
				state = STATE_SHUTDOWN;
    25bc:	10 92 09 01 	sts	0x0109, r1	; 0x800109 <_ZZ10processKeycE5state+0x1>
    25c0:	10 92 08 01 	sts	0x0108, r1	; 0x800108 <_ZZ10processKeycE5state>
    25c4:	51 c0       	rjmp	.+162    	; 0x2668 <_Z10processKeyc+0x2c0>
			}
			else if((key >= '0') && (key <= '9'))
    25c6:	90 ed       	ldi	r25, 0xD0	; 208
    25c8:	98 0f       	add	r25, r24
    25ca:	9a 30       	cpi	r25, 0x0A	; 10
    25cc:	08 f0       	brcs	.+2      	; 0x25d0 <_Z10processKeyc+0x228>
    25ce:	4c c0       	rjmp	.+152    	; 0x2668 <_Z10processKeyc+0x2c0>
			{
				value += key - '0';
    25d0:	90 e0       	ldi	r25, 0x00	; 0
    25d2:	c0 97       	sbiw	r24, 0x30	; 48
    25d4:	20 91 13 05 	lds	r18, 0x0513	; 0x800513 <_ZZ10processKeycE5value>
    25d8:	30 91 14 05 	lds	r19, 0x0514	; 0x800514 <_ZZ10processKeycE5value+0x1>
    25dc:	82 0f       	add	r24, r18
    25de:	93 1f       	adc	r25, r19
    25e0:	90 93 14 05 	sts	0x0514, r25	; 0x800514 <_ZZ10processKeycE5value+0x1>
    25e4:	80 93 13 05 	sts	0x0513, r24	; 0x800513 <_ZZ10processKeycE5value>
    25e8:	3f c0       	rjmp	.+126    	; 0x2668 <_Z10processKeyc+0x2c0>
		}
		break;

		case STATE_RECEIVING_START_TIME:
		{
			if(key == '#')
    25ea:	83 32       	cpi	r24, 0x23	; 35
    25ec:	e9 f5       	brne	.+122    	; 0x2668 <_Z10processKeyc+0x2c0>
			{
				state = STATE_SHUTDOWN;
    25ee:	10 92 09 01 	sts	0x0109, r1	; 0x800109 <_ZZ10processKeycE5state+0x1>
    25f2:	10 92 08 01 	sts	0x0108, r1	; 0x800108 <_ZZ10processKeycE5state>
    25f6:	38 c0       	rjmp	.+112    	; 0x2668 <_Z10processKeyc+0x2c0>
		}
		break;

		case STATE_RECEIVING_FINISH_TIME:
		{
			if(key == '#')
    25f8:	83 32       	cpi	r24, 0x23	; 35
    25fa:	b1 f5       	brne	.+108    	; 0x2668 <_Z10processKeyc+0x2c0>
			{
				state = STATE_SHUTDOWN;
    25fc:	10 92 09 01 	sts	0x0109, r1	; 0x800109 <_ZZ10processKeycE5state+0x1>
    2600:	10 92 08 01 	sts	0x0108, r1	; 0x800108 <_ZZ10processKeycE5state>
    2604:	31 c0       	rjmp	.+98     	; 0x2668 <_Z10processKeyc+0x2c0>
		}
		break;

		case STATE_RECEIVING_START_NOW:
		{
			if(key == '#')
    2606:	83 32       	cpi	r24, 0x23	; 35
    2608:	79 f5       	brne	.+94     	; 0x2668 <_Z10processKeyc+0x2c0>
			{
				state = STATE_SHUTDOWN;
    260a:	10 92 09 01 	sts	0x0109, r1	; 0x800109 <_ZZ10processKeycE5state+0x1>
    260e:	10 92 08 01 	sts	0x0108, r1	; 0x800108 <_ZZ10processKeycE5state>
    2612:	2a c0       	rjmp	.+84     	; 0x2668 <_Z10processKeyc+0x2c0>
		}
		break;

		case STATE_RECEIVING_SET_CLOCK:
		{
			if(key == '#')
    2614:	83 32       	cpi	r24, 0x23	; 35
    2616:	79 f4       	brne	.+30     	; 0x2636 <_Z10processKeyc+0x28e>
			{
				if(stringLength == 12)
    2618:	80 91 15 05 	lds	r24, 0x0515	; 0x800515 <_ZZ10processKeycE12stringLength>
    261c:	90 91 16 05 	lds	r25, 0x0516	; 0x800516 <_ZZ10processKeycE12stringLength+0x1>
    2620:	0c 97       	sbiw	r24, 0x0c	; 12
    2622:	11 f5       	brne	.+68     	; 0x2668 <_Z10processKeyc+0x2c0>
				{
					rv3028_set_date_time(receivedString);   /* String format "YYMMDDhhmmss" */
    2624:	8c ef       	ldi	r24, 0xFC	; 252
    2626:	94 e0       	ldi	r25, 0x04	; 4
    2628:	0e 94 61 23 	call	0x46c2	; 0x46c2 <_Z20rv3028_set_date_timePc>
					state = STATE_SHUTDOWN;
    262c:	10 92 09 01 	sts	0x0109, r1	; 0x800109 <_ZZ10processKeycE5state+0x1>
    2630:	10 92 08 01 	sts	0x0108, r1	; 0x800108 <_ZZ10processKeycE5state>
    2634:	19 c0       	rjmp	.+50     	; 0x2668 <_Z10processKeyc+0x2c0>
				}
			}
			else if((key >= '0') && (key <= '9'))
    2636:	90 ed       	ldi	r25, 0xD0	; 208
    2638:	98 0f       	add	r25, r24
    263a:	9a 30       	cpi	r25, 0x0A	; 10
    263c:	a8 f4       	brcc	.+42     	; 0x2668 <_Z10processKeyc+0x2c0>
			{
				if(stringLength < MAX_DTMF_ARG_LENGTH)
    263e:	20 91 15 05 	lds	r18, 0x0515	; 0x800515 <_ZZ10processKeycE12stringLength>
    2642:	30 91 16 05 	lds	r19, 0x0516	; 0x800516 <_ZZ10processKeycE12stringLength+0x1>
    2646:	28 32       	cpi	r18, 0x28	; 40
    2648:	31 05       	cpc	r19, r1
    264a:	74 f4       	brge	.+28     	; 0x2668 <_Z10processKeyc+0x2c0>
				{
					receivedString[stringLength] = key;
    264c:	f9 01       	movw	r30, r18
    264e:	e4 50       	subi	r30, 0x04	; 4
    2650:	fb 4f       	sbci	r31, 0xFB	; 251
    2652:	80 83       	st	Z, r24
					stringLength++;
    2654:	2f 5f       	subi	r18, 0xFF	; 255
    2656:	3f 4f       	sbci	r19, 0xFF	; 255
    2658:	30 93 16 05 	sts	0x0516, r19	; 0x800516 <_ZZ10processKeycE12stringLength+0x1>
    265c:	20 93 15 05 	sts	0x0515, r18	; 0x800515 <_ZZ10processKeycE12stringLength>
					receivedString[stringLength] = '\0';
    2660:	f9 01       	movw	r30, r18
    2662:	e4 50       	subi	r30, 0x04	; 4
    2664:	fb 4f       	sbci	r31, 0xFB	; 251
    2666:	10 82       	st	Z, r1
				}
			}
		}
		break;
	}
}
    2668:	0f 90       	pop	r0
    266a:	df 91       	pop	r29
    266c:	cf 91       	pop	r28
    266e:	08 95       	ret

00002670 <_Z7readADCv>:
 * Read the temperature ADC value
 */
uint16_t readADC()
{
	/* Make sure the most recent ADC read is complete. */
	while((ADCSRA & (1 << ADSC)))
    2670:	ea e7       	ldi	r30, 0x7A	; 122
    2672:	f0 e0       	ldi	r31, 0x00	; 0
    2674:	80 81       	ld	r24, Z
    2676:	86 fd       	sbrc	r24, 6
    2678:	fd cf       	rjmp	.-6      	; 0x2674 <_Z7readADCv+0x4>
	{
		;   /* Just wait for ADC to finish. */
	}
	uint16_t result = ADCW;
    267a:	20 91 78 00 	lds	r18, 0x0078	; 0x800078 <__TEXT_REGION_LENGTH__+0x7f8078>
    267e:	30 91 79 00 	lds	r19, 0x0079	; 0x800079 <__TEXT_REGION_LENGTH__+0x7f8079>
	/* Initiate another reading. */
	ADCSRA |= (1 << ADSC);
    2682:	ea e7       	ldi	r30, 0x7A	; 122
    2684:	f0 e0       	ldi	r31, 0x00	; 0
    2686:	90 81       	ld	r25, Z
    2688:	90 64       	ori	r25, 0x40	; 64
    268a:	90 83       	st	Z, r25
	return( result);
}
    268c:	c9 01       	movw	r24, r18
    268e:	08 95       	ret

00002690 <_Z9setUpTempv>:
	/* The internal temperature has to be used
	 * with the internal reference of 1.1V.
	 * Channel 8 can not be selected with
	 * the analogRead function yet. */
	/* Set the internal reference and mux. */
	ADMUX = ((1 << REFS1) | (1 << REFS0) | (1 << MUX3));
    2690:	88 ec       	ldi	r24, 0xC8	; 200
    2692:	80 93 7c 00 	sts	0x007C, r24	; 0x80007c <__TEXT_REGION_LENGTH__+0x7f807c>

	/* Slow the ADC clock down to 125 KHz
	 * by dividing by 128. Assumes that the
	 * standard Arduino 16 MHz clock is in use. */
	ADCSRA = (1 << ADPS2) | (1 << ADPS1) | (1 << ADPS0);
    2696:	ea e7       	ldi	r30, 0x7A	; 122
    2698:	f0 e0       	ldi	r31, 0x00	; 0
    269a:	87 e0       	ldi	r24, 0x07	; 7
    269c:	80 83       	st	Z, r24
	ADCSRA |= (1 << ADEN);  /* enable the ADC */
    269e:	80 81       	ld	r24, Z
    26a0:	80 68       	ori	r24, 0x80	; 128
    26a2:	80 83       	st	Z, r24
	ADCSRA |= (1 << ADSC);  /* Start the ADC */
    26a4:	80 81       	ld	r24, Z
    26a6:	80 64       	ori	r24, 0x40	; 64
    26a8:	80 83       	st	Z, r24
	readADC();
    26aa:	0e 94 38 13 	call	0x2670	; 0x2670 <_Z7readADCv>
    26ae:	08 95       	ret

000026b0 <_Z7getTempv>:

/*
 * Returns the most recent temperature reading
 */
float getTemp(void)
{
    26b0:	0f 93       	push	r16
    26b2:	1f 93       	push	r17
    26b4:	cf 93       	push	r28
    26b6:	df 93       	push	r29
	float offset = CLAMP(-200.,(float)g_temp_calibration / 10.,200.);
    26b8:	60 91 15 01 	lds	r22, 0x0115	; 0x800115 <_ZL18g_temp_calibration>
    26bc:	70 91 16 01 	lds	r23, 0x0116	; 0x800116 <_ZL18g_temp_calibration+0x1>
    26c0:	07 2e       	mov	r0, r23
    26c2:	00 0c       	add	r0, r0
    26c4:	88 0b       	sbc	r24, r24
    26c6:	99 0b       	sbc	r25, r25
    26c8:	0e 94 2d 26 	call	0x4c5a	; 0x4c5a <__floatsisf>
    26cc:	20 e0       	ldi	r18, 0x00	; 0
    26ce:	30 e0       	ldi	r19, 0x00	; 0
    26d0:	40 e2       	ldi	r20, 0x20	; 32
    26d2:	51 e4       	ldi	r21, 0x41	; 65
    26d4:	0e 94 83 25 	call	0x4b06	; 0x4b06 <__divsf3>
    26d8:	06 2f       	mov	r16, r22
    26da:	17 2f       	mov	r17, r23
    26dc:	d8 2f       	mov	r29, r24
    26de:	c9 2f       	mov	r28, r25
    26e0:	20 e0       	ldi	r18, 0x00	; 0
    26e2:	30 e0       	ldi	r19, 0x00	; 0
    26e4:	48 e4       	ldi	r20, 0x48	; 72
    26e6:	53 e4       	ldi	r21, 0x43	; 67
    26e8:	0e 94 1c 27 	call	0x4e38	; 0x4e38 <__gesf2>
    26ec:	18 16       	cp	r1, r24
    26ee:	6c f0       	brlt	.+26     	; 0x270a <_Z7getTempv+0x5a>
    26f0:	20 e0       	ldi	r18, 0x00	; 0
    26f2:	30 e0       	ldi	r19, 0x00	; 0
    26f4:	48 e4       	ldi	r20, 0x48	; 72
    26f6:	53 ec       	ldi	r21, 0xC3	; 195
    26f8:	60 2f       	mov	r22, r16
    26fa:	71 2f       	mov	r23, r17
    26fc:	8d 2f       	mov	r24, r29
    26fe:	9c 2f       	mov	r25, r28
    2700:	0e 94 79 25 	call	0x4af2	; 0x4af2 <__cmpsf2>
    2704:	88 23       	and	r24, r24
    2706:	34 f0       	brlt	.+12     	; 0x2714 <_Z7getTempv+0x64>
    2708:	09 c0       	rjmp	.+18     	; 0x271c <_Z7getTempv+0x6c>
    270a:	00 e0       	ldi	r16, 0x00	; 0
    270c:	10 e0       	ldi	r17, 0x00	; 0
    270e:	d8 e4       	ldi	r29, 0x48	; 72
    2710:	c3 e4       	ldi	r28, 0x43	; 67
    2712:	04 c0       	rjmp	.+8      	; 0x271c <_Z7getTempv+0x6c>
    2714:	00 e0       	ldi	r16, 0x00	; 0
    2716:	10 e0       	ldi	r17, 0x00	; 0
    2718:	d8 e4       	ldi	r29, 0x48	; 72
    271a:	c3 ec       	ldi	r28, 0xC3	; 195

	/* The offset in 1/10ths C (first term) was determined empirically */
	readADC();  /* throw away first reading */
    271c:	0e 94 38 13 	call	0x2670	; 0x2670 <_Z7readADCv>
	return(roundf(offset + (readADC() - 324.31) / 1.22));
    2720:	0e 94 38 13 	call	0x2670	; 0x2670 <_Z7readADCv>
    2724:	bc 01       	movw	r22, r24
    2726:	80 e0       	ldi	r24, 0x00	; 0
    2728:	90 e0       	ldi	r25, 0x00	; 0
    272a:	0e 94 2b 26 	call	0x4c56	; 0x4c56 <__floatunsisf>
    272e:	2e ea       	ldi	r18, 0xAE	; 174
    2730:	37 e2       	ldi	r19, 0x27	; 39
    2732:	42 ea       	ldi	r20, 0xA2	; 162
    2734:	53 e4       	ldi	r21, 0x43	; 67
    2736:	0e 94 0c 25 	call	0x4a18	; 0x4a18 <__subsf3>
    273a:	26 ef       	ldi	r18, 0xF6	; 246
    273c:	38 e2       	ldi	r19, 0x28	; 40
    273e:	4c e9       	ldi	r20, 0x9C	; 156
    2740:	5f e3       	ldi	r21, 0x3F	; 63
    2742:	0e 94 83 25 	call	0x4b06	; 0x4b06 <__divsf3>
    2746:	20 2f       	mov	r18, r16
    2748:	31 2f       	mov	r19, r17
    274a:	4d 2f       	mov	r20, r29
    274c:	5c 2f       	mov	r21, r28
    274e:	0e 94 0d 25 	call	0x4a1a	; 0x4a1a <__addsf3>
    2752:	0e 94 8e 27 	call	0x4f1c	; 0x4f1c <round>
}
    2756:	df 91       	pop	r29
    2758:	cf 91       	pop	r28
    275a:	1f 91       	pop	r17
    275c:	0f 91       	pop	r16
    275e:	08 95       	ret

00002760 <_Z18setUpAudioSamplingh>:

void setUpAudioSampling(BOOL enableSampling)
{
	ADCSRA = 0;                             /* clear ADCSRA register */
    2760:	ea e7       	ldi	r30, 0x7A	; 122
    2762:	f0 e0       	ldi	r31, 0x00	; 0
    2764:	10 82       	st	Z, r1
	ADCSRB = 0;                             /* clear ADCSRB register */
    2766:	10 92 7b 00 	sts	0x007B, r1	; 0x80007b <__TEXT_REGION_LENGTH__+0x7f807b>
	ADMUX = 0;
    276a:	ac e7       	ldi	r26, 0x7C	; 124
    276c:	b0 e0       	ldi	r27, 0x00	; 0
    276e:	1c 92       	st	X, r1
	ADMUX |= 0x06;                          /* set A6 analog input pin */
    2770:	9c 91       	ld	r25, X
    2772:	96 60       	ori	r25, 0x06	; 6
    2774:	9c 93       	st	X, r25
	ADMUX |= (1 << REFS1) | (1 << REFS0);   /* set reference voltage to internal 1.1V */
    2776:	9c 91       	ld	r25, X
    2778:	90 6c       	ori	r25, 0xC0	; 192
    277a:	9c 93       	st	X, r25
	ADMUX |= (1 << ADLAR);                  /* left align ADC value to 8 bits from ADCH register */
    277c:	9c 91       	ld	r25, X
    277e:	90 62       	ori	r25, 0x20	; 32
    2780:	9c 93       	st	X, r25
#elif SAMPLE_RATE == 77040
		ADCSRA |= (1 << ADPS2);                                 /* 16 prescaler for 76900 sps */
#elif SAMPLE_RATE == 38520
		ADCSRA |= (1 << ADPS2) | (1 << ADPS0);                  /* 32 prescaler for 38500 sps */
#elif SAMPLE_RATE == 19260
		ADCSRA |= (1 << ADPS2) | (1 << ADPS1);                  /* 64 prescaler for 19250 sps */
    2782:	90 81       	ld	r25, Z
    2784:	96 60       	ori	r25, 0x06	; 6
    2786:	90 83       	st	Z, r25
		ADCSRA |= (1 << ADPS2) | (1 << ADPS1) | (1 << ADPS0);   /* 128 prescaler for 9630 sps */
#else
#error "Select a valid sample rate."
#endif

	ADCSRA |= (1 << ADATE);     /* enable auto trigger */
    2788:	90 81       	ld	r25, Z
    278a:	90 62       	ori	r25, 0x20	; 32
    278c:	90 83       	st	Z, r25
	ADCSRA |= (1 << ADIE);      /* enable interrupts when measurement complete */
    278e:	90 81       	ld	r25, Z
    2790:	98 60       	ori	r25, 0x08	; 8
    2792:	90 83       	st	Z, r25
	ADCSRA |= (1 << ADEN);      /* enable ADC */
    2794:	90 81       	ld	r25, Z
    2796:	90 68       	ori	r25, 0x80	; 128
    2798:	90 83       	st	Z, r25

	if(enableSampling)
    279a:	88 23       	and	r24, r24
    279c:	31 f0       	breq	.+12     	; 0x27aa <_Z18setUpAudioSamplingh+0x4a>
	{
		ADCSRA |= (1 << ADIE);  /* enable interrupts when measurement complete */
    279e:	80 81       	ld	r24, Z
    27a0:	88 60       	ori	r24, 0x08	; 8
    27a2:	80 83       	st	Z, r24
		ADCSRA |= (1 << ADSC);  /* start ADC measurements */
    27a4:	80 81       	ld	r24, Z
    27a6:	80 64       	ori	r24, 0x40	; 64
    27a8:	80 83       	st	Z, r24
    27aa:	08 95       	ret

000027ac <_Z11only_digitsPc>:
	}
}

BOOL only_digits(char *s)
{
    27ac:	fc 01       	movw	r30, r24
	while(*s)
    27ae:	21 91       	ld	r18, Z+
    27b0:	22 23       	and	r18, r18
    27b2:	41 f0       	breq	.+16     	; 0x27c4 <_Z11only_digitsPc+0x18>
	{
		if(isdigit(*s++) == 0)
    27b4:	30 e0       	ldi	r19, 0x00	; 0
    27b6:	20 53       	subi	r18, 0x30	; 48
    27b8:	31 09       	sbc	r19, r1
    27ba:	2a 30       	cpi	r18, 0x0A	; 10
    27bc:	31 05       	cpc	r19, r1
    27be:	b8 f3       	brcs	.-18     	; 0x27ae <_Z11only_digitsPc+0x2>
		{
			return( FALSE);
    27c0:	80 e0       	ldi	r24, 0x00	; 0
    27c2:	08 95       	ret
		}
	}

	return( TRUE);
    27c4:	81 e0       	ldi	r24, 0x01	; 1
}
    27c6:	08 95       	ret

000027c8 <_Z13startEventNowv>:

void startEventNow(void)
{
	setupForFox(NULL);
    27c8:	80 e0       	ldi	r24, 0x00	; 0
    27ca:	90 e0       	ldi	r25, 0x00	; 0
    27cc:	0e 94 b1 0e 	call	0x1d62	; 0x1d62 <_Z11setupForFoxP5Fox_t>
	g_transmissions_disabled = FALSE;
    27d0:	10 92 20 01 	sts	0x0120, r1	; 0x800120 <g_transmissions_disabled>
	lb_send_string((char*)"Synchronized\n> ",FALSE);
    27d4:	60 e0       	ldi	r22, 0x00	; 0
    27d6:	8f e2       	ldi	r24, 0x2F	; 47
    27d8:	91 e0       	ldi	r25, 0x01	; 1
    27da:	0e 94 30 07 	call	0xe60	; 0xe60 <_Z14lb_send_stringPch>
    27de:	08 95       	ret

000027e0 <__vector_5>:
 *
 * Handles pushbutton presses
 *
 ************************************************************************/
ISR(PCINT2_vect)
{
    27e0:	1f 92       	push	r1
    27e2:	0f 92       	push	r0
    27e4:	0f b6       	in	r0, 0x3f	; 63
    27e6:	0f 92       	push	r0
    27e8:	11 24       	eor	r1, r1
    27ea:	2f 93       	push	r18
    27ec:	3f 93       	push	r19
    27ee:	4f 93       	push	r20
    27f0:	5f 93       	push	r21
    27f2:	6f 93       	push	r22
    27f4:	7f 93       	push	r23
    27f6:	8f 93       	push	r24
    27f8:	9f 93       	push	r25
    27fa:	af 93       	push	r26
    27fc:	bf 93       	push	r27
    27fe:	ef 93       	push	r30
    2800:	ff 93       	push	r31
	BOOL pinVal = digitalRead(PIN_SYNC);
    2802:	84 e0       	ldi	r24, 0x04	; 4
    2804:	0e 94 f0 01 	call	0x3e0	; 0x3e0 <_Z11digitalReadh>

	if(pinVal)  /* Sync is high */
    2808:	88 23       	and	r24, r24
    280a:	61 f0       	breq	.+24     	; 0x2824 <__vector_5+0x44>
	{
		if(g_sync_pin_stable)
    280c:	80 91 d9 05 	lds	r24, 0x05D9	; 0x8005d9 <g_sync_pin_stable>
    2810:	88 23       	and	r24, r24
    2812:	41 f0       	breq	.+16     	; 0x2824 <__vector_5+0x44>
		{
			startEventNow();
    2814:	0e 94 e4 13 	call	0x27c8	; 0x27c8 <_Z13startEventNowv>
			g_sync_pin_stable = FALSE;
    2818:	10 92 d9 05 	sts	0x05D9, r1	; 0x8005d9 <g_sync_pin_stable>
			digitalWrite(PIN_LED2, OFF);    /*  LED */
    281c:	60 e0       	ldi	r22, 0x00	; 0
    281e:	87 e0       	ldi	r24, 0x07	; 7
    2820:	0e 94 2f 02 	call	0x45e	; 0x45e <_Z12digitalWritehh>
		}
	}

	g_sync_pin_timer = 0;
    2824:	10 92 db 05 	sts	0x05DB, r1	; 0x8005db <g_sync_pin_timer+0x1>
    2828:	10 92 da 05 	sts	0x05DA, r1	; 0x8005da <g_sync_pin_timer>
}
    282c:	ff 91       	pop	r31
    282e:	ef 91       	pop	r30
    2830:	bf 91       	pop	r27
    2832:	af 91       	pop	r26
    2834:	9f 91       	pop	r25
    2836:	8f 91       	pop	r24
    2838:	7f 91       	pop	r23
    283a:	6f 91       	pop	r22
    283c:	5f 91       	pop	r21
    283e:	4f 91       	pop	r20
    2840:	3f 91       	pop	r19
    2842:	2f 91       	pop	r18
    2844:	0f 90       	pop	r0
    2846:	0f be       	out	0x3f, r0	; 63
    2848:	0f 90       	pop	r0
    284a:	1f 90       	pop	r1
    284c:	18 95       	reti

0000284e <_Z23reportClockConfigErrorsv>:
	lb_send_string((char*)"Synchronized\n> ",FALSE);
}

void reportClockConfigErrors(void)
{
	if(g_current_epoch < MINIMUM_EPOCH) /* Current time is invalid */
    284e:	80 91 f2 05 	lds	r24, 0x05F2	; 0x8005f2 <g_current_epoch>
    2852:	90 91 f3 05 	lds	r25, 0x05F3	; 0x8005f3 <g_current_epoch+0x1>
    2856:	a0 91 f4 05 	lds	r26, 0x05F4	; 0x8005f4 <g_current_epoch+0x2>
    285a:	b0 91 f5 05 	lds	r27, 0x05F5	; 0x8005f5 <g_current_epoch+0x3>
    285e:	81 15       	cp	r24, r1
    2860:	96 46       	sbci	r25, 0x66	; 102
    2862:	ae 4e       	sbci	r26, 0xEE	; 238
    2864:	bf 45       	sbci	r27, 0x5F	; 95
    2866:	20 f4       	brcc	.+8      	; 0x2870 <_Z23reportClockConfigErrorsv+0x22>
	{
		sendEEPROMString(&ee_textSetTime[0]);
    2868:	8d e4       	ldi	r24, 0x4D	; 77
    286a:	90 e0       	ldi	r25, 0x00	; 0
    286c:	0e 94 82 02 	call	0x504	; 0x504 <_Z16sendEEPROMStringPc>
	}

	if(g_event_start_epoch < g_current_epoch)   /* Event has already started */
    2870:	40 91 ee 05 	lds	r20, 0x05EE	; 0x8005ee <g_event_start_epoch>
    2874:	50 91 ef 05 	lds	r21, 0x05EF	; 0x8005ef <g_event_start_epoch+0x1>
    2878:	60 91 f0 05 	lds	r22, 0x05F0	; 0x8005f0 <g_event_start_epoch+0x2>
    287c:	70 91 f1 05 	lds	r23, 0x05F1	; 0x8005f1 <g_event_start_epoch+0x3>
    2880:	80 91 f2 05 	lds	r24, 0x05F2	; 0x8005f2 <g_current_epoch>
    2884:	90 91 f3 05 	lds	r25, 0x05F3	; 0x8005f3 <g_current_epoch+0x1>
    2888:	a0 91 f4 05 	lds	r26, 0x05F4	; 0x8005f4 <g_current_epoch+0x2>
    288c:	b0 91 f5 05 	lds	r27, 0x05F5	; 0x8005f5 <g_current_epoch+0x3>
    2890:	48 17       	cp	r20, r24
    2892:	59 07       	cpc	r21, r25
    2894:	6a 07       	cpc	r22, r26
    2896:	7b 07       	cpc	r23, r27
    2898:	20 f4       	brcc	.+8      	; 0x28a2 <_Z23reportClockConfigErrorsv+0x54>
	{
		sendEEPROMString(&ee_textSetStart[0]);
    289a:	87 e2       	ldi	r24, 0x27	; 39
    289c:	90 e0       	ldi	r25, 0x00	; 0
    289e:	0e 94 82 02 	call	0x504	; 0x504 <_Z16sendEEPROMStringPc>
	}

	if(g_event_finish_epoch < g_current_epoch)  /* Event has already finished */
    28a2:	40 91 ea 05 	lds	r20, 0x05EA	; 0x8005ea <g_event_finish_epoch>
    28a6:	50 91 eb 05 	lds	r21, 0x05EB	; 0x8005eb <g_event_finish_epoch+0x1>
    28aa:	60 91 ec 05 	lds	r22, 0x05EC	; 0x8005ec <g_event_finish_epoch+0x2>
    28ae:	70 91 ed 05 	lds	r23, 0x05ED	; 0x8005ed <g_event_finish_epoch+0x3>
    28b2:	80 91 f2 05 	lds	r24, 0x05F2	; 0x8005f2 <g_current_epoch>
    28b6:	90 91 f3 05 	lds	r25, 0x05F3	; 0x8005f3 <g_current_epoch+0x1>
    28ba:	a0 91 f4 05 	lds	r26, 0x05F4	; 0x8005f4 <g_current_epoch+0x2>
    28be:	b0 91 f5 05 	lds	r27, 0x05F5	; 0x8005f5 <g_current_epoch+0x3>
    28c2:	48 17       	cp	r20, r24
    28c4:	59 07       	cpc	r21, r25
    28c6:	6a 07       	cpc	r22, r26
    28c8:	7b 07       	cpc	r23, r27
    28ca:	20 f4       	brcc	.+8      	; 0x28d4 <_Z23reportClockConfigErrorsv+0x86>
	{
		sendEEPROMString(&ee_textSetFinish[0]);
    28cc:	80 e0       	ldi	r24, 0x00	; 0
    28ce:	90 e0       	ldi	r25, 0x00	; 0
    28d0:	0e 94 82 02 	call	0x504	; 0x504 <_Z16sendEEPROMStringPc>
    28d4:	08 95       	ret

000028d6 <_Z14reportTimeTillmmPKcS0_>:
	}
}

BOOL reportTimeTill(time_t from,time_t until,const char* prefix,const char* failMsg)
{
    28d6:	2f 92       	push	r2
    28d8:	3f 92       	push	r3
    28da:	4f 92       	push	r4
    28dc:	5f 92       	push	r5
    28de:	6f 92       	push	r6
    28e0:	7f 92       	push	r7
    28e2:	8f 92       	push	r8
    28e4:	9f 92       	push	r9
    28e6:	af 92       	push	r10
    28e8:	bf 92       	push	r11
    28ea:	cf 92       	push	r12
    28ec:	df 92       	push	r13
    28ee:	ef 92       	push	r14
    28f0:	ff 92       	push	r15
    28f2:	0f 93       	push	r16
    28f4:	1f 93       	push	r17
    28f6:	cf 93       	push	r28
    28f8:	df 93       	push	r29
    28fa:	cd b7       	in	r28, 0x3d	; 61
    28fc:	de b7       	in	r29, 0x3e	; 62
    28fe:	2c 97       	sbiw	r28, 0x0c	; 12
    2900:	0f b6       	in	r0, 0x3f	; 63
    2902:	f8 94       	cli
    2904:	de bf       	out	0x3e, r29	; 62
    2906:	0f be       	out	0x3f, r0	; 63
    2908:	cd bf       	out	0x3d, r28	; 61
    290a:	2b 01       	movw	r4, r22
    290c:	3c 01       	movw	r6, r24
    290e:	49 01       	movw	r8, r18
    2910:	5a 01       	movw	r10, r20
	BOOL failure = FALSE;

	if(from >= until)   /* Negative time */
    2912:	62 17       	cp	r22, r18
    2914:	73 07       	cpc	r23, r19
    2916:	84 07       	cpc	r24, r20
    2918:	95 07       	cpc	r25, r21
    291a:	50 f0       	brcs	.+20     	; 0x2930 <_Z14reportTimeTillmmPKcS0_+0x5a>
	{
		failure = TRUE;
		if(failMsg)
    291c:	e1 14       	cp	r14, r1
    291e:	f1 04       	cpc	r15, r1
    2920:	09 f4       	brne	.+2      	; 0x2924 <_Z14reportTimeTillmmPKcS0_+0x4e>
    2922:	04 c1       	rjmp	.+520    	; 0x2b2c <_Z14reportTimeTillmmPKcS0_+0x256>
		{
			lb_send_string((char*)failMsg,TRUE);
    2924:	61 e0       	ldi	r22, 0x01	; 1
    2926:	c7 01       	movw	r24, r14
    2928:	0e 94 30 07 	call	0xe60	; 0xe60 <_Z14lb_send_stringPch>
{
	BOOL failure = FALSE;

	if(from >= until)   /* Negative time */
	{
		failure = TRUE;
    292c:	81 e0       	ldi	r24, 0x01	; 1
    292e:	ff c0       	rjmp	.+510    	; 0x2b2e <_Z14reportTimeTillmmPKcS0_+0x258>
			lb_send_string((char*)failMsg,TRUE);
		}
	}
	else
	{
		if(prefix)
    2930:	01 15       	cp	r16, r1
    2932:	11 05       	cpc	r17, r1
    2934:	21 f0       	breq	.+8      	; 0x293e <_Z14reportTimeTillmmPKcS0_+0x68>
		{
			lb_send_string((char*)prefix,TRUE);
    2936:	61 e0       	ldi	r22, 0x01	; 1
    2938:	c8 01       	movw	r24, r16
    293a:	0e 94 30 07 	call	0xe60	; 0xe60 <_Z14lb_send_stringPch>
		}
		time_t dif = until - from;
    293e:	75 01       	movw	r14, r10
    2940:	64 01       	movw	r12, r8
    2942:	c4 18       	sub	r12, r4
    2944:	d5 08       	sbc	r13, r5
    2946:	e6 08       	sbc	r14, r6
    2948:	f7 08       	sbc	r15, r7
		uint16_t years = dif / YEAR;
    294a:	c7 01       	movw	r24, r14
    294c:	b6 01       	movw	r22, r12
    294e:	20 e8       	ldi	r18, 0x80	; 128
    2950:	33 e3       	ldi	r19, 0x33	; 51
    2952:	41 ee       	ldi	r20, 0xE1	; 225
    2954:	51 e0       	ldi	r21, 0x01	; 1
    2956:	0e 94 4e 28 	call	0x509c	; 0x509c <__udivmodsi4>
    295a:	29 01       	movw	r4, r18
    295c:	3a 01       	movw	r6, r20
		time_t hold = dif - (years * YEAR);
    295e:	44 27       	eor	r20, r20
    2960:	55 27       	eor	r21, r21
    2962:	60 e8       	ldi	r22, 0x80	; 128
    2964:	73 e3       	ldi	r23, 0x33	; 51
    2966:	81 ee       	ldi	r24, 0xE1	; 225
    2968:	91 e0       	ldi	r25, 0x01	; 1
    296a:	0e 94 16 28 	call	0x502c	; 0x502c <__mulsi3>
    296e:	c6 1a       	sub	r12, r22
    2970:	d7 0a       	sbc	r13, r23
    2972:	e8 0a       	sbc	r14, r24
    2974:	f9 0a       	sbc	r15, r25
		uint16_t days = hold / DAY;
    2976:	c7 01       	movw	r24, r14
    2978:	b6 01       	movw	r22, r12
    297a:	20 e8       	ldi	r18, 0x80	; 128
    297c:	31 e5       	ldi	r19, 0x51	; 81
    297e:	41 e0       	ldi	r20, 0x01	; 1
    2980:	50 e0       	ldi	r21, 0x00	; 0
    2982:	0e 94 4e 28 	call	0x509c	; 0x509c <__udivmodsi4>
    2986:	49 01       	movw	r8, r18
    2988:	5a 01       	movw	r10, r20
    298a:	19 01       	movw	r2, r18
		hold -= (days * DAY);
    298c:	44 27       	eor	r20, r20
    298e:	55 27       	eor	r21, r21
    2990:	60 e8       	ldi	r22, 0x80	; 128
    2992:	71 e5       	ldi	r23, 0x51	; 81
    2994:	81 e0       	ldi	r24, 0x01	; 1
    2996:	90 e0       	ldi	r25, 0x00	; 0
    2998:	0e 94 16 28 	call	0x502c	; 0x502c <__mulsi3>
    299c:	c6 1a       	sub	r12, r22
    299e:	d7 0a       	sbc	r13, r23
    29a0:	e8 0a       	sbc	r14, r24
    29a2:	f9 0a       	sbc	r15, r25
		uint16_t hours = hold / HOUR;
    29a4:	c7 01       	movw	r24, r14
    29a6:	b6 01       	movw	r22, r12
    29a8:	20 e1       	ldi	r18, 0x10	; 16
    29aa:	3e e0       	ldi	r19, 0x0E	; 14
    29ac:	40 e0       	ldi	r20, 0x00	; 0
    29ae:	50 e0       	ldi	r21, 0x00	; 0
    29b0:	0e 94 4e 28 	call	0x509c	; 0x509c <__udivmodsi4>
    29b4:	29 83       	std	Y+1, r18	; 0x01
    29b6:	3a 83       	std	Y+2, r19	; 0x02
    29b8:	4b 83       	std	Y+3, r20	; 0x03
    29ba:	5c 83       	std	Y+4, r21	; 0x04
    29bc:	29 81       	ldd	r18, Y+1	; 0x01
    29be:	3a 81       	ldd	r19, Y+2	; 0x02
    29c0:	3a 87       	std	Y+10, r19	; 0x0a
    29c2:	29 87       	std	Y+9, r18	; 0x09
		hold -= (hours * HOUR);
    29c4:	29 81       	ldd	r18, Y+1	; 0x01
    29c6:	3a 81       	ldd	r19, Y+2	; 0x02
    29c8:	4b 81       	ldd	r20, Y+3	; 0x03
    29ca:	5c 81       	ldd	r21, Y+4	; 0x04
    29cc:	44 27       	eor	r20, r20
    29ce:	55 27       	eor	r21, r21
    29d0:	a0 e1       	ldi	r26, 0x10	; 16
    29d2:	be e0       	ldi	r27, 0x0E	; 14
    29d4:	0e 94 ab 28 	call	0x5156	; 0x5156 <__muluhisi3>
    29d8:	c6 1a       	sub	r12, r22
    29da:	d7 0a       	sbc	r13, r23
    29dc:	e8 0a       	sbc	r14, r24
    29de:	f9 0a       	sbc	r15, r25
		uint16_t minutes = hold / MINUTE;
    29e0:	c7 01       	movw	r24, r14
    29e2:	b6 01       	movw	r22, r12
    29e4:	2c e3       	ldi	r18, 0x3C	; 60
    29e6:	30 e0       	ldi	r19, 0x00	; 0
    29e8:	40 e0       	ldi	r20, 0x00	; 0
    29ea:	50 e0       	ldi	r21, 0x00	; 0
    29ec:	0e 94 4e 28 	call	0x509c	; 0x509c <__udivmodsi4>
    29f0:	2d 83       	std	Y+5, r18	; 0x05
    29f2:	3e 83       	std	Y+6, r19	; 0x06
    29f4:	4f 83       	std	Y+7, r20	; 0x07
    29f6:	58 87       	std	Y+8, r21	; 0x08
    29f8:	0d 81       	ldd	r16, Y+5	; 0x05
    29fa:	1e 81       	ldd	r17, Y+6	; 0x06
		uint16_t seconds = hold - (minutes * MINUTE);
    29fc:	2c e3       	ldi	r18, 0x3C	; 60
    29fe:	20 9f       	mul	r18, r16
    2a00:	c0 01       	movw	r24, r0
    2a02:	21 9f       	mul	r18, r17
    2a04:	90 0d       	add	r25, r0
    2a06:	11 24       	eor	r1, r1
    2a08:	a6 01       	movw	r20, r12
    2a0a:	48 1b       	sub	r20, r24
    2a0c:	59 0b       	sbc	r21, r25
    2a0e:	5c 87       	std	Y+12, r21	; 0x0c
    2a10:	4b 87       	std	Y+11, r20	; 0x0b

		g_tempStr[0] = '\0';
    2a12:	10 92 72 05 	sts	0x0572, r1	; 0x800572 <_ZL9g_tempStr>

		if(years)
    2a16:	41 14       	cp	r4, r1
    2a18:	51 04       	cpc	r5, r1
    2a1a:	b9 f0       	breq	.+46     	; 0x2a4a <_Z14reportTimeTillmmPKcS0_+0x174>
		{
			sprintf(g_tempStr,"%d yrs ",years);
    2a1c:	5f 92       	push	r5
    2a1e:	4f 92       	push	r4
    2a20:	8f e3       	ldi	r24, 0x3F	; 63
    2a22:	91 e0       	ldi	r25, 0x01	; 1
    2a24:	9f 93       	push	r25
    2a26:	8f 93       	push	r24
    2a28:	82 e7       	ldi	r24, 0x72	; 114
    2a2a:	95 e0       	ldi	r25, 0x05	; 5
    2a2c:	9f 93       	push	r25
    2a2e:	8f 93       	push	r24
    2a30:	0e 94 6a 2a 	call	0x54d4	; 0x54d4 <sprintf>
			lb_send_string(g_tempStr,TRUE);
    2a34:	61 e0       	ldi	r22, 0x01	; 1
    2a36:	82 e7       	ldi	r24, 0x72	; 114
    2a38:	95 e0       	ldi	r25, 0x05	; 5
    2a3a:	0e 94 30 07 	call	0xe60	; 0xe60 <_Z14lb_send_stringPch>
    2a3e:	0f 90       	pop	r0
    2a40:	0f 90       	pop	r0
    2a42:	0f 90       	pop	r0
    2a44:	0f 90       	pop	r0
    2a46:	0f 90       	pop	r0
    2a48:	0f 90       	pop	r0
		}

		if(days)
    2a4a:	23 28       	or	r2, r3
    2a4c:	b9 f0       	breq	.+46     	; 0x2a7c <_Z14reportTimeTillmmPKcS0_+0x1a6>
		{
			sprintf(g_tempStr,"%d days ",days);
    2a4e:	9f 92       	push	r9
    2a50:	8f 92       	push	r8
    2a52:	87 e4       	ldi	r24, 0x47	; 71
    2a54:	91 e0       	ldi	r25, 0x01	; 1
    2a56:	9f 93       	push	r25
    2a58:	8f 93       	push	r24
    2a5a:	82 e7       	ldi	r24, 0x72	; 114
    2a5c:	95 e0       	ldi	r25, 0x05	; 5
    2a5e:	9f 93       	push	r25
    2a60:	8f 93       	push	r24
    2a62:	0e 94 6a 2a 	call	0x54d4	; 0x54d4 <sprintf>
			lb_send_string(g_tempStr,TRUE);
    2a66:	61 e0       	ldi	r22, 0x01	; 1
    2a68:	82 e7       	ldi	r24, 0x72	; 114
    2a6a:	95 e0       	ldi	r25, 0x05	; 5
    2a6c:	0e 94 30 07 	call	0xe60	; 0xe60 <_Z14lb_send_stringPch>
    2a70:	0f 90       	pop	r0
    2a72:	0f 90       	pop	r0
    2a74:	0f 90       	pop	r0
    2a76:	0f 90       	pop	r0
    2a78:	0f 90       	pop	r0
    2a7a:	0f 90       	pop	r0
		}

		if(hours)
    2a7c:	89 85       	ldd	r24, Y+9	; 0x09
    2a7e:	9a 85       	ldd	r25, Y+10	; 0x0a
    2a80:	89 2b       	or	r24, r25
    2a82:	c9 f0       	breq	.+50     	; 0x2ab6 <_Z14reportTimeTillmmPKcS0_+0x1e0>
		{
			sprintf(g_tempStr,"%d hrs ",hours);
    2a84:	9a 81       	ldd	r25, Y+2	; 0x02
    2a86:	9f 93       	push	r25
    2a88:	e9 81       	ldd	r30, Y+1	; 0x01
    2a8a:	ef 93       	push	r30
    2a8c:	80 e5       	ldi	r24, 0x50	; 80
    2a8e:	91 e0       	ldi	r25, 0x01	; 1
    2a90:	9f 93       	push	r25
    2a92:	8f 93       	push	r24
    2a94:	82 e7       	ldi	r24, 0x72	; 114
    2a96:	95 e0       	ldi	r25, 0x05	; 5
    2a98:	9f 93       	push	r25
    2a9a:	8f 93       	push	r24
    2a9c:	0e 94 6a 2a 	call	0x54d4	; 0x54d4 <sprintf>
			lb_send_string(g_tempStr,TRUE);
    2aa0:	61 e0       	ldi	r22, 0x01	; 1
    2aa2:	82 e7       	ldi	r24, 0x72	; 114
    2aa4:	95 e0       	ldi	r25, 0x05	; 5
    2aa6:	0e 94 30 07 	call	0xe60	; 0xe60 <_Z14lb_send_stringPch>
    2aaa:	0f 90       	pop	r0
    2aac:	0f 90       	pop	r0
    2aae:	0f 90       	pop	r0
    2ab0:	0f 90       	pop	r0
    2ab2:	0f 90       	pop	r0
    2ab4:	0f 90       	pop	r0
		}

		if(minutes)
    2ab6:	01 2b       	or	r16, r17
    2ab8:	c9 f0       	breq	.+50     	; 0x2aec <_Z14reportTimeTillmmPKcS0_+0x216>
		{
			sprintf(g_tempStr,"%d min ",minutes);
    2aba:	fe 81       	ldd	r31, Y+6	; 0x06
    2abc:	ff 93       	push	r31
    2abe:	2d 81       	ldd	r18, Y+5	; 0x05
    2ac0:	2f 93       	push	r18
    2ac2:	88 e5       	ldi	r24, 0x58	; 88
    2ac4:	91 e0       	ldi	r25, 0x01	; 1
    2ac6:	9f 93       	push	r25
    2ac8:	8f 93       	push	r24
    2aca:	82 e7       	ldi	r24, 0x72	; 114
    2acc:	95 e0       	ldi	r25, 0x05	; 5
    2ace:	9f 93       	push	r25
    2ad0:	8f 93       	push	r24
    2ad2:	0e 94 6a 2a 	call	0x54d4	; 0x54d4 <sprintf>
			lb_send_string(g_tempStr,TRUE);
    2ad6:	61 e0       	ldi	r22, 0x01	; 1
    2ad8:	82 e7       	ldi	r24, 0x72	; 114
    2ada:	95 e0       	ldi	r25, 0x05	; 5
    2adc:	0e 94 30 07 	call	0xe60	; 0xe60 <_Z14lb_send_stringPch>
    2ae0:	0f 90       	pop	r0
    2ae2:	0f 90       	pop	r0
    2ae4:	0f 90       	pop	r0
    2ae6:	0f 90       	pop	r0
    2ae8:	0f 90       	pop	r0
    2aea:	0f 90       	pop	r0
		}

		sprintf(g_tempStr,"%d sec",seconds);
    2aec:	3c 85       	ldd	r19, Y+12	; 0x0c
    2aee:	3f 93       	push	r19
    2af0:	4b 85       	ldd	r20, Y+11	; 0x0b
    2af2:	4f 93       	push	r20
    2af4:	80 e6       	ldi	r24, 0x60	; 96
    2af6:	91 e0       	ldi	r25, 0x01	; 1
    2af8:	9f 93       	push	r25
    2afa:	8f 93       	push	r24
    2afc:	82 e7       	ldi	r24, 0x72	; 114
    2afe:	95 e0       	ldi	r25, 0x05	; 5
    2b00:	9f 93       	push	r25
    2b02:	8f 93       	push	r24
    2b04:	0e 94 6a 2a 	call	0x54d4	; 0x54d4 <sprintf>
		lb_send_string(g_tempStr,TRUE);
    2b08:	61 e0       	ldi	r22, 0x01	; 1
    2b0a:	82 e7       	ldi	r24, 0x72	; 114
    2b0c:	95 e0       	ldi	r25, 0x05	; 5
    2b0e:	0e 94 30 07 	call	0xe60	; 0xe60 <_Z14lb_send_stringPch>

		lb_send_NewLine();
    2b12:	0e 94 23 07 	call	0xe46	; 0xe46 <_Z15lb_send_NewLinev>
		g_tempStr[0] = '\0';
    2b16:	e2 e7       	ldi	r30, 0x72	; 114
    2b18:	f5 e0       	ldi	r31, 0x05	; 5
    2b1a:	10 82       	st	Z, r1
    2b1c:	0f 90       	pop	r0
    2b1e:	0f 90       	pop	r0
    2b20:	0f 90       	pop	r0
    2b22:	0f 90       	pop	r0
    2b24:	0f 90       	pop	r0
    2b26:	0f 90       	pop	r0
	}
}

BOOL reportTimeTill(time_t from,time_t until,const char* prefix,const char* failMsg)
{
	BOOL failure = FALSE;
    2b28:	80 e0       	ldi	r24, 0x00	; 0
    2b2a:	01 c0       	rjmp	.+2      	; 0x2b2e <_Z14reportTimeTillmmPKcS0_+0x258>

	if(from >= until)   /* Negative time */
	{
		failure = TRUE;
    2b2c:	81 e0       	ldi	r24, 0x01	; 1
		lb_send_NewLine();
		g_tempStr[0] = '\0';
	}

	return( failure);
}
    2b2e:	2c 96       	adiw	r28, 0x0c	; 12
    2b30:	0f b6       	in	r0, 0x3f	; 63
    2b32:	f8 94       	cli
    2b34:	de bf       	out	0x3e, r29	; 62
    2b36:	0f be       	out	0x3f, r0	; 63
    2b38:	cd bf       	out	0x3d, r28	; 61
    2b3a:	df 91       	pop	r29
    2b3c:	cf 91       	pop	r28
    2b3e:	1f 91       	pop	r17
    2b40:	0f 91       	pop	r16
    2b42:	ff 90       	pop	r15
    2b44:	ef 90       	pop	r14
    2b46:	df 90       	pop	r13
    2b48:	cf 90       	pop	r12
    2b4a:	bf 90       	pop	r11
    2b4c:	af 90       	pop	r10
    2b4e:	9f 90       	pop	r9
    2b50:	8f 90       	pop	r8
    2b52:	7f 90       	pop	r7
    2b54:	6f 90       	pop	r6
    2b56:	5f 90       	pop	r5
    2b58:	4f 90       	pop	r4
    2b5a:	3f 90       	pop	r3
    2b5c:	2f 90       	pop	r2
    2b5e:	08 95       	ret

00002b60 <_Z17handleLinkBusMsgsv>:


/* The compiler does not seem to optimize large switch statements correctly
 * void __attribute__((optimize("O0"))) handleLinkBusMsgs() */
void handleLinkBusMsgs()
{
    2b60:	2f 92       	push	r2
    2b62:	3f 92       	push	r3
    2b64:	4f 92       	push	r4
    2b66:	5f 92       	push	r5
    2b68:	6f 92       	push	r6
    2b6a:	7f 92       	push	r7
    2b6c:	8f 92       	push	r8
    2b6e:	9f 92       	push	r9
    2b70:	af 92       	push	r10
    2b72:	bf 92       	push	r11
    2b74:	cf 92       	push	r12
    2b76:	df 92       	push	r13
    2b78:	ef 92       	push	r14
    2b7a:	ff 92       	push	r15
    2b7c:	0f 93       	push	r16
    2b7e:	1f 93       	push	r17
    2b80:	cf 93       	push	r28
    2b82:	df 93       	push	r29
    2b84:	cd b7       	in	r28, 0x3d	; 61
    2b86:	de b7       	in	r29, 0x3e	; 62
    2b88:	28 97       	sbiw	r28, 0x08	; 8
    2b8a:	0f b6       	in	r0, 0x3f	; 63
    2b8c:	f8 94       	cli
    2b8e:	de bf       	out	0x3e, r29	; 62
    2b90:	0f be       	out	0x3f, r0	; 63
    2b92:	cd bf       	out	0x3d, r28	; 61
					}

					eeprom_update_byte(&ee_enable_start_timer,g_enable_start_timer);
				}

				sprintf(g_tempStr,"STA:%s\n",g_enable_start_timer ? "ON" : "OFF");
    2b94:	0f 2e       	mov	r0, r31
    2b96:	fe e7       	ldi	r31, 0x7E	; 126
    2b98:	6f 2e       	mov	r6, r31
    2b9a:	f1 e0       	ldi	r31, 0x01	; 1
    2b9c:	7f 2e       	mov	r7, r31
    2b9e:	f0 2d       	mov	r31, r0
    2ba0:	0f 2e       	mov	r0, r31
    2ba2:	f2 e7       	ldi	r31, 0x72	; 114
    2ba4:	af 2e       	mov	r10, r31
    2ba6:	f5 e0       	ldi	r31, 0x05	; 5
    2ba8:	bf 2e       	mov	r11, r31
    2baa:	f0 2d       	mov	r31, r0

					sprintf(g_tempStr,"T Cal= %d\n",g_temp_calibration);
					lb_send_string(g_tempStr,FALSE);
				}

				sprintf(g_tempStr,"T=%d\n",g_temperature);
    2bac:	0f 2e       	mov	r0, r31
    2bae:	fb e7       	ldi	r31, 0x7B	; 123
    2bb0:	8f 2e       	mov	r8, r31
    2bb2:	f2 e0       	ldi	r31, 0x02	; 2
    2bb4:	9f 2e       	mov	r9, r31
    2bb6:	f0 2d       	mov	r31, r0
						{
							g_time_needed_for_ID = (500 + timeRequiredToSendStrAtWPM(g_messages_text[STATION_ID],g_id_codespeed)) / 1000;
						}
					}
				}
				sprintf(g_tempStr,"ID:  %d wpm\n",g_id_codespeed);
    2bb8:	0f 2e       	mov	r0, r31
    2bba:	ff eb       	ldi	r31, 0xBF	; 191
    2bbc:	4f 2e       	mov	r4, r31
    2bbe:	f1 e0       	ldi	r31, 0x01	; 1
    2bc0:	5f 2e       	mov	r5, r31
    2bc2:	f0 2d       	mov	r31, r0
							setupForFox(&holdFox);
						}
					}
				}

				sprintf(g_tempStr,"Fox=%u\n",g_fox);
    2bc4:	0f 2e       	mov	r0, r31
    2bc6:	fe e6       	ldi	r31, 0x6E	; 110
    2bc8:	2f 2e       	mov	r2, r31
    2bca:	f1 e0       	ldi	r31, 0x01	; 1
    2bcc:	3f 2e       	mov	r3, r31
    2bce:	f0 2d       	mov	r31, r0
void handleLinkBusMsgs()
{
	LinkbusRxBuffer* lb_buff;
	BOOL send_ack = TRUE;

	while((lb_buff = nextFullRxBuffer()))
    2bd0:	0e 94 6b 06 	call	0xcd6	; 0xcd6 <_Z16nextFullRxBufferv>
    2bd4:	6c 01       	movw	r12, r24
    2bd6:	00 97       	sbiw	r24, 0x00	; 0
    2bd8:	09 f4       	brne	.+2      	; 0x2bdc <_Z17handleLinkBusMsgsv+0x7c>
    2bda:	cf c5       	rjmp	.+2974   	; 0x377a <_Z17handleLinkBusMsgsv+0xc1a>
	{
		LBMessageID msg_id = lb_buff->id;

		switch(msg_id)
    2bdc:	fc 01       	movw	r30, r24
    2bde:	81 81       	ldd	r24, Z+1	; 0x01
    2be0:	92 81       	ldd	r25, Z+2	; 0x02
    2be2:	8a 39       	cpi	r24, 0x9A	; 154
    2be4:	f3 e2       	ldi	r31, 0x23	; 35
    2be6:	9f 07       	cpc	r25, r31
    2be8:	09 f4       	brne	.+2      	; 0x2bec <_Z17handleLinkBusMsgsv+0x8c>
    2bea:	af c5       	rjmp	.+2910   	; 0x374a <_Z17handleLinkBusMsgsv+0xbea>
    2bec:	c8 f4       	brcc	.+50     	; 0x2c20 <_Z17handleLinkBusMsgsv+0xc0>
    2bee:	85 32       	cpi	r24, 0x25	; 37
    2bf0:	3e e1       	ldi	r19, 0x1E	; 30
    2bf2:	93 07       	cpc	r25, r19
    2bf4:	09 f4       	brne	.+2      	; 0x2bf8 <_Z17handleLinkBusMsgsv+0x98>
    2bf6:	a9 c5       	rjmp	.+2898   	; 0x374a <_Z17handleLinkBusMsgsv+0xbea>
    2bf8:	50 f4       	brcc	.+20     	; 0x2c0e <_Z17handleLinkBusMsgsv+0xae>
    2bfa:	8e 31       	cpi	r24, 0x1E	; 30
    2bfc:	e3 e0       	ldi	r30, 0x03	; 3
    2bfe:	9e 07       	cpc	r25, r30
    2c00:	09 f4       	brne	.+2      	; 0x2c04 <_Z17handleLinkBusMsgsv+0xa4>
    2c02:	c8 c1       	rjmp	.+912    	; 0x2f94 <_Z17handleLinkBusMsgsv+0x434>
    2c04:	8f 36       	cpi	r24, 0x6F	; 111
    2c06:	9d 41       	sbci	r25, 0x1D	; 29
    2c08:	09 f4       	brne	.+2      	; 0x2c0c <_Z17handleLinkBusMsgsv+0xac>
    2c0a:	a9 c2       	rjmp	.+1362   	; 0x315e <_Z17handleLinkBusMsgsv+0x5fe>
    2c0c:	9c c5       	rjmp	.+2872   	; 0x3746 <_Z17handleLinkBusMsgsv+0xbe6>
    2c0e:	86 3c       	cpi	r24, 0xC6	; 198
    2c10:	2e e1       	ldi	r18, 0x1E	; 30
    2c12:	92 07       	cpc	r25, r18
    2c14:	f9 f0       	breq	.+62     	; 0x2c54 <_Z17handleLinkBusMsgsv+0xf4>
    2c16:	86 3a       	cpi	r24, 0xA6	; 166
    2c18:	90 42       	sbci	r25, 0x20	; 32
    2c1a:	09 f4       	brne	.+2      	; 0x2c1e <_Z17handleLinkBusMsgsv+0xbe>
    2c1c:	c5 c0       	rjmp	.+394    	; 0x2da8 <_Z17handleLinkBusMsgsv+0x248>
    2c1e:	93 c5       	rjmp	.+2854   	; 0x3746 <_Z17handleLinkBusMsgsv+0xbe6>
    2c20:	85 3f       	cpi	r24, 0xF5	; 245
    2c22:	43 e2       	ldi	r20, 0x23	; 35
    2c24:	94 07       	cpc	r25, r20
    2c26:	09 f4       	brne	.+2      	; 0x2c2a <_Z17handleLinkBusMsgsv+0xca>
    2c28:	05 c1       	rjmp	.+522    	; 0x2e34 <_Z17handleLinkBusMsgsv+0x2d4>
    2c2a:	50 f4       	brcc	.+20     	; 0x2c40 <_Z17handleLinkBusMsgsv+0xe0>
    2c2c:	8f 3c       	cpi	r24, 0xCF	; 207
    2c2e:	f3 e2       	ldi	r31, 0x23	; 35
    2c30:	9f 07       	cpc	r25, r31
    2c32:	09 f4       	brne	.+2      	; 0x2c36 <_Z17handleLinkBusMsgsv+0xd6>
    2c34:	3a c5       	rjmp	.+2676   	; 0x36aa <_Z17handleLinkBusMsgsv+0xb4a>
    2c36:	80 3d       	cpi	r24, 0xD0	; 208
    2c38:	93 42       	sbci	r25, 0x23	; 35
    2c3a:	09 f4       	brne	.+2      	; 0x2c3e <_Z17handleLinkBusMsgsv+0xde>
    2c3c:	36 c2       	rjmp	.+1132   	; 0x30aa <_Z17handleLinkBusMsgsv+0x54a>
    2c3e:	83 c5       	rjmp	.+2822   	; 0x3746 <_Z17handleLinkBusMsgsv+0xbe6>
    2c40:	84 33       	cpi	r24, 0x34	; 52
    2c42:	34 e2       	ldi	r19, 0x24	; 36
    2c44:	93 07       	cpc	r25, r19
    2c46:	09 f4       	brne	.+2      	; 0x2c4a <_Z17handleLinkBusMsgsv+0xea>
    2c48:	2a c1       	rjmp	.+596    	; 0x2e9e <_Z17handleLinkBusMsgsv+0x33e>
    2c4a:	8c 39       	cpi	r24, 0x9C	; 156
    2c4c:	94 42       	sbci	r25, 0x24	; 36
    2c4e:	09 f4       	brne	.+2      	; 0x2c52 <_Z17handleLinkBusMsgsv+0xf2>
    2c50:	81 c2       	rjmp	.+1282   	; 0x3154 <_Z17handleLinkBusMsgsv+0x5f4>
    2c52:	79 c5       	rjmp	.+2802   	; 0x3746 <_Z17handleLinkBusMsgsv+0xbe6>
			}
			break;

			case MESSAGE_SET_FOX:
			{
				int c = (int)(lb_buff->fields[FIELD1][0]);
    2c54:	f6 01       	movw	r30, r12
    2c56:	83 81       	ldd	r24, Z+3	; 0x03
    2c58:	90 e0       	ldi	r25, 0x00	; 0

				if(c)
    2c5a:	00 97       	sbiw	r24, 0x00	; 0
    2c5c:	09 f4       	brne	.+2      	; 0x2c60 <_Z17handleLinkBusMsgsv+0x100>
    2c5e:	8f c0       	rjmp	.+286    	; 0x2d7e <_Z17handleLinkBusMsgsv+0x21e>
				{
					if(c == 'B')
    2c60:	82 34       	cpi	r24, 0x42	; 66
    2c62:	91 05       	cpc	r25, r1
    2c64:	09 f4       	brne	.+2      	; 0x2c68 <_Z17handleLinkBusMsgsv+0x108>
    2c66:	77 c5       	rjmp	.+2798   	; 0x3756 <_Z17handleLinkBusMsgsv+0xbf6>
					{
						c = BEACON;
					}
					else if(c == 'D')
    2c68:	84 34       	cpi	r24, 0x44	; 68
    2c6a:	91 05       	cpc	r25, r1
    2c6c:	39 f4       	brne	.+14     	; 0x2c7c <_Z17handleLinkBusMsgsv+0x11c>
					{
						char t = lb_buff->fields[FIELD2][0];

						if(t == 'S')
    2c6e:	87 89       	ldd	r24, Z+23	; 0x17
    2c70:	83 35       	cpi	r24, 0x53	; 83
    2c72:	09 f4       	brne	.+2      	; 0x2c76 <_Z17handleLinkBusMsgsv+0x116>
    2c74:	73 c5       	rjmp	.+2790   	; 0x375c <_Z17handleLinkBusMsgsv+0xbfc>
						{
							c = SPRINT_DEMO;
						}
						else
						{
							c = FOX_DEMO;
    2c76:	86 e0       	ldi	r24, 0x06	; 6
    2c78:	90 e0       	ldi	r25, 0x00	; 0
    2c7a:	75 c0       	rjmp	.+234    	; 0x2d66 <_Z17handleLinkBusMsgsv+0x206>
						}
					}
					else if(c == 'F')
    2c7c:	86 34       	cpi	r24, 0x46	; 70
    2c7e:	91 05       	cpc	r25, r1
    2c80:	09 f4       	brne	.+2      	; 0x2c84 <_Z17handleLinkBusMsgsv+0x124>
    2c82:	6f c5       	rjmp	.+2782   	; 0x3762 <_Z17handleLinkBusMsgsv+0xc02>
					{
						c = FOXORING;
					}
					else if(c == 'C')
    2c84:	83 34       	cpi	r24, 0x43	; 67
    2c86:	91 05       	cpc	r25, r1
    2c88:	c9 f4       	brne	.+50     	; 0x2cbc <_Z17handleLinkBusMsgsv+0x15c>
					{
						char t = lb_buff->fields[FIELD2][0];
    2c8a:	f6 01       	movw	r30, r12
    2c8c:	87 89       	ldd	r24, Z+23	; 0x17
						lb_buff->fields[FIELD2][1] = '\0';
    2c8e:	10 8e       	std	Z+24, r1	; 0x18

						if(t == 'B')
    2c90:	82 34       	cpi	r24, 0x42	; 66
    2c92:	29 f0       	breq	.+10     	; 0x2c9e <_Z17handleLinkBusMsgsv+0x13e>
						{
							t = '0';
						}

						if(isdigit(t))
    2c94:	90 e0       	ldi	r25, 0x00	; 0
    2c96:	c0 97       	sbiw	r24, 0x30	; 48
    2c98:	0a 97       	sbiw	r24, 0x0a	; 10
    2c9a:	08 f0       	brcs	.+2      	; 0x2c9e <_Z17handleLinkBusMsgsv+0x13e>
    2c9c:	70 c0       	rjmp	.+224    	; 0x2d7e <_Z17handleLinkBusMsgsv+0x21e>
						{
							c = CLAMP(BEACON,atoi(lb_buff->fields[FIELD2]),FOX_5);
    2c9e:	c6 01       	movw	r24, r12
    2ca0:	47 96       	adiw	r24, 0x17	; 23
    2ca2:	0e 94 df 29 	call	0x53be	; 0x53be <atoi>
    2ca6:	99 23       	and	r25, r25
    2ca8:	14 f4       	brge	.+4      	; 0x2cae <_Z17handleLinkBusMsgsv+0x14e>
    2caa:	80 e0       	ldi	r24, 0x00	; 0
    2cac:	90 e0       	ldi	r25, 0x00	; 0
    2cae:	86 30       	cpi	r24, 0x06	; 6
    2cb0:	91 05       	cpc	r25, r1
    2cb2:	0c f4       	brge	.+2      	; 0x2cb6 <_Z17handleLinkBusMsgsv+0x156>
    2cb4:	55 c0       	rjmp	.+170    	; 0x2d60 <_Z17handleLinkBusMsgsv+0x200>
    2cb6:	85 e0       	ldi	r24, 0x05	; 5
    2cb8:	90 e0       	ldi	r25, 0x00	; 0
    2cba:	52 c0       	rjmp	.+164    	; 0x2d60 <_Z17handleLinkBusMsgsv+0x200>
						}
					}
					else if(c == 'S')
    2cbc:	83 35       	cpi	r24, 0x53	; 83
    2cbe:	91 05       	cpc	r25, r1
    2cc0:	e9 f5       	brne	.+122    	; 0x2d3c <_Z17handleLinkBusMsgsv+0x1dc>
					{
						int x = 0;
						char t = lb_buff->fields[FIELD2][0];
    2cc2:	f6 01       	movw	r30, r12
    2cc4:	87 89       	ldd	r24, Z+23	; 0x17
						char u = lb_buff->fields[FIELD2][1];
    2cc6:	90 8d       	ldd	r25, Z+24	; 0x18
						lb_buff->fields[FIELD2][2] = '\0';
    2cc8:	11 8e       	std	Z+25, r1	; 0x19

						if(t == 'B')
    2cca:	82 34       	cpi	r24, 0x42	; 66
    2ccc:	09 f4       	brne	.+2      	; 0x2cd0 <_Z17handleLinkBusMsgsv+0x170>
    2cce:	57 c0       	rjmp	.+174    	; 0x2d7e <_Z17handleLinkBusMsgsv+0x21e>
						{
							x = BEACON;
						}
						else if(t == 'F')
    2cd0:	86 34       	cpi	r24, 0x46	; 70
    2cd2:	49 f4       	brne	.+18     	; 0x2ce6 <_Z17handleLinkBusMsgsv+0x186>
						{
							if((u > '0') && (u < '6'))
    2cd4:	8f ec       	ldi	r24, 0xCF	; 207
    2cd6:	89 0f       	add	r24, r25
    2cd8:	85 30       	cpi	r24, 0x05	; 5
    2cda:	08 f0       	brcs	.+2      	; 0x2cde <_Z17handleLinkBusMsgsv+0x17e>
    2cdc:	50 c0       	rjmp	.+160    	; 0x2d7e <_Z17handleLinkBusMsgsv+0x21e>
							{
								x = SPRINT_F1 + (u - '1');
    2cde:	89 2f       	mov	r24, r25
    2ce0:	90 e0       	ldi	r25, 0x00	; 0
    2ce2:	83 97       	sbiw	r24, 0x23	; 35
    2ce4:	1b c0       	rjmp	.+54     	; 0x2d1c <_Z17handleLinkBusMsgsv+0x1bc>
							}
						}
						else if(t == 'S')
    2ce6:	83 35       	cpi	r24, 0x53	; 83
    2ce8:	41 f4       	brne	.+16     	; 0x2cfa <_Z17handleLinkBusMsgsv+0x19a>
						{
							if((u > '0') && (u < '6'))
    2cea:	8f ec       	ldi	r24, 0xCF	; 207
    2cec:	89 0f       	add	r24, r25
    2cee:	85 30       	cpi	r24, 0x05	; 5
    2cf0:	c0 f4       	brcc	.+48     	; 0x2d22 <_Z17handleLinkBusMsgsv+0x1c2>
							{
								x = SPRINT_S1 + (u - '1');
    2cf2:	89 2f       	mov	r24, r25
    2cf4:	90 e0       	ldi	r25, 0x00	; 0
    2cf6:	88 97       	sbiw	r24, 0x28	; 40
    2cf8:	11 c0       	rjmp	.+34     	; 0x2d1c <_Z17handleLinkBusMsgsv+0x1bc>
							else
							{
								x = SPECTATOR;
							}
						}
						else if(u == 'F')
    2cfa:	96 34       	cpi	r25, 0x46	; 70
    2cfc:	39 f4       	brne	.+14     	; 0x2d0c <_Z17handleLinkBusMsgsv+0x1ac>
						{
							if((t > '0') && (t < '6'))
    2cfe:	9f ec       	ldi	r25, 0xCF	; 207
    2d00:	98 0f       	add	r25, r24
    2d02:	95 30       	cpi	r25, 0x05	; 5
    2d04:	e0 f5       	brcc	.+120    	; 0x2d7e <_Z17handleLinkBusMsgsv+0x21e>
							{
								x = SPRINT_F1 + (t - '1');
    2d06:	90 e0       	ldi	r25, 0x00	; 0
    2d08:	83 97       	sbiw	r24, 0x23	; 35
    2d0a:	08 c0       	rjmp	.+16     	; 0x2d1c <_Z17handleLinkBusMsgsv+0x1bc>
							}
						}
						else if(u == 'S')
    2d0c:	93 35       	cpi	r25, 0x53	; 83
    2d0e:	b9 f5       	brne	.+110    	; 0x2d7e <_Z17handleLinkBusMsgsv+0x21e>
						{
							if((t > '0') && (t < '6'))
    2d10:	9f ec       	ldi	r25, 0xCF	; 207
    2d12:	98 0f       	add	r25, r24
    2d14:	95 30       	cpi	r25, 0x05	; 5
    2d16:	98 f5       	brcc	.+102    	; 0x2d7e <_Z17handleLinkBusMsgsv+0x21e>
							{
								x = SPRINT_S1 + (t - '1');
    2d18:	90 e0       	ldi	r25, 0x00	; 0
    2d1a:	88 97       	sbiw	r24, 0x28	; 40
							}
						}

						if(x != BEACON)
    2d1c:	00 97       	sbiw	r24, 0x00	; 0
    2d1e:	19 f4       	brne	.+6      	; 0x2d26 <_Z17handleLinkBusMsgsv+0x1c6>
    2d20:	2e c0       	rjmp	.+92     	; 0x2d7e <_Z17handleLinkBusMsgsv+0x21e>
							{
								x = SPRINT_S1 + (u - '1');
							}
							else
							{
								x = SPECTATOR;
    2d22:	88 e0       	ldi	r24, 0x08	; 8
    2d24:	90 e0       	ldi	r25, 0x00	; 0
							}
						}

						if(x != BEACON)
						{
							c = CLAMP(SPECTATOR,x,SPRINT_F5);
    2d26:	88 30       	cpi	r24, 0x08	; 8
    2d28:	91 05       	cpc	r25, r1
    2d2a:	14 f4       	brge	.+4      	; 0x2d30 <_Z17handleLinkBusMsgsv+0x1d0>
    2d2c:	88 e0       	ldi	r24, 0x08	; 8
    2d2e:	90 e0       	ldi	r25, 0x00	; 0
    2d30:	83 31       	cpi	r24, 0x13	; 19
    2d32:	91 05       	cpc	r25, r1
    2d34:	ac f0       	brlt	.+42     	; 0x2d60 <_Z17handleLinkBusMsgsv+0x200>
    2d36:	82 e1       	ldi	r24, 0x12	; 18
    2d38:	90 e0       	ldi	r25, 0x00	; 0
    2d3a:	12 c0       	rjmp	.+36     	; 0x2d60 <_Z17handleLinkBusMsgsv+0x200>
						}
					}
					else if(c == 'N')
    2d3c:	8e 34       	cpi	r24, 0x4E	; 78
    2d3e:	91 05       	cpc	r25, r1
    2d40:	59 f4       	brne	.+22     	; 0x2d58 <_Z17handleLinkBusMsgsv+0x1f8>
					{
						char t = lb_buff->fields[FIELD2][0];
    2d42:	f6 01       	movw	r30, r12
    2d44:	87 89       	ldd	r24, Z+23	; 0x17

						if(t == '2')
    2d46:	82 33       	cpi	r24, 0x32	; 50
    2d48:	09 f4       	brne	.+2      	; 0x2d4c <_Z17handleLinkBusMsgsv+0x1ec>
    2d4a:	0d c5       	rjmp	.+2586   	; 0x3766 <_Z17handleLinkBusMsgsv+0xc06>
						{
							c = NO_CODE_START_TONES_2M;
						}
						else if(t == '5')
    2d4c:	85 33       	cpi	r24, 0x35	; 53
    2d4e:	09 f4       	brne	.+2      	; 0x2d52 <_Z17handleLinkBusMsgsv+0x1f2>
    2d50:	0c c5       	rjmp	.+2584   	; 0x376a <_Z17handleLinkBusMsgsv+0xc0a>
						{
							c = NO_CODE_START_TONES_5M;
						}
						else
						{
							c = BEACON;
    2d52:	80 e0       	ldi	r24, 0x00	; 0
    2d54:	90 e0       	ldi	r25, 0x00	; 0
    2d56:	07 c0       	rjmp	.+14     	; 0x2d66 <_Z17handleLinkBusMsgsv+0x206>
						}
					}
					else
					{
						c = atoi(lb_buff->fields[FIELD1]);
    2d58:	c6 01       	movw	r24, r12
    2d5a:	03 96       	adiw	r24, 0x03	; 3
    2d5c:	0e 94 df 29 	call	0x53be	; 0x53be <atoi>
					}

					if((c >= BEACON) && (c < INVALID_FOX))
    2d60:	86 31       	cpi	r24, 0x16	; 22
    2d62:	91 05       	cpc	r25, r1
    2d64:	60 f4       	brcc	.+24     	; 0x2d7e <_Z17handleLinkBusMsgsv+0x21e>
					{
						Fox_t holdFox = (Fox_t)c;
    2d66:	89 83       	std	Y+1, r24	; 0x01
						permFox(holdFox);
    2d68:	0e 94 ce 11 	call	0x239c	; 0x239c <_Z7permFox5Fox_t>
						if(holdFox != g_fox)
    2d6c:	80 91 fc 05 	lds	r24, 0x05FC	; 0x8005fc <g_fox>
    2d70:	99 81       	ldd	r25, Y+1	; 0x01
    2d72:	98 17       	cp	r25, r24
    2d74:	21 f0       	breq	.+8      	; 0x2d7e <_Z17handleLinkBusMsgsv+0x21e>
						{
							setupForFox(&holdFox);
    2d76:	ce 01       	movw	r24, r28
    2d78:	01 96       	adiw	r24, 0x01	; 1
    2d7a:	0e 94 b1 0e 	call	0x1d62	; 0x1d62 <_Z11setupForFoxP5Fox_t>
						}
					}
				}

				sprintf(g_tempStr,"Fox=%u\n",g_fox);
    2d7e:	80 91 fc 05 	lds	r24, 0x05FC	; 0x8005fc <g_fox>
    2d82:	1f 92       	push	r1
    2d84:	8f 93       	push	r24
    2d86:	3f 92       	push	r3
    2d88:	2f 92       	push	r2
    2d8a:	bf 92       	push	r11
    2d8c:	af 92       	push	r10
    2d8e:	0e 94 6a 2a 	call	0x54d4	; 0x54d4 <sprintf>
				lb_send_string(g_tempStr,FALSE);
    2d92:	60 e0       	ldi	r22, 0x00	; 0
    2d94:	c5 01       	movw	r24, r10
    2d96:	0e 94 30 07 	call	0xe60	; 0xe60 <_Z14lb_send_stringPch>
			}
			break;
    2d9a:	0f 90       	pop	r0
    2d9c:	0f 90       	pop	r0
    2d9e:	0f 90       	pop	r0
    2da0:	0f 90       	pop	r0
    2da2:	0f 90       	pop	r0
    2da4:	0f 90       	pop	r0
    2da6:	d1 c4       	rjmp	.+2466   	; 0x374a <_Z17handleLinkBusMsgsv+0xbea>

			case MESSAGE_LEDS:
			{
				if(lb_buff->fields[FIELD1][0])
    2da8:	f6 01       	movw	r30, r12
    2daa:	83 81       	ldd	r24, Z+3	; 0x03
    2dac:	88 23       	and	r24, r24
    2dae:	01 f1       	breq	.+64     	; 0x2df0 <_Z17handleLinkBusMsgsv+0x290>
				{
					if((lb_buff->fields[FIELD1][1] == 'F') || (lb_buff->fields[FIELD1][0] == '0'))
    2db0:	94 81       	ldd	r25, Z+4	; 0x04
    2db2:	96 34       	cpi	r25, 0x46	; 70
    2db4:	11 f0       	breq	.+4      	; 0x2dba <_Z17handleLinkBusMsgsv+0x25a>
    2db6:	80 33       	cpi	r24, 0x30	; 48
    2db8:	59 f4       	brne	.+22     	; 0x2dd0 <_Z17handleLinkBusMsgsv+0x270>
					{
						g_enable_LEDs = FALSE;
    2dba:	10 92 a8 05 	sts	0x05A8, r1	; 0x8005a8 <_ZL13g_enable_LEDs>
						digitalWrite(PIN_LED1,OFF); /*  LED Off */
    2dbe:	60 e0       	ldi	r22, 0x00	; 0
    2dc0:	8d e0       	ldi	r24, 0x0D	; 13
    2dc2:	0e 94 2f 02 	call	0x45e	; 0x45e <_Z12digitalWritehh>
						digitalWrite(PIN_LED2,OFF);
    2dc6:	60 e0       	ldi	r22, 0x00	; 0
    2dc8:	87 e0       	ldi	r24, 0x07	; 7
    2dca:	0e 94 2f 02 	call	0x45e	; 0x45e <_Z12digitalWritehh>
    2dce:	03 c0       	rjmp	.+6      	; 0x2dd6 <_Z17handleLinkBusMsgsv+0x276>
					}
					else
					{
						g_enable_LEDs = TRUE;
    2dd0:	81 e0       	ldi	r24, 0x01	; 1
    2dd2:	80 93 a8 05 	sts	0x05A8, r24	; 0x8005a8 <_ZL13g_enable_LEDs>
					}

					eeprom_update_byte(&ee_enable_LEDs,g_enable_LEDs);
    2dd6:	60 91 a8 05 	lds	r22, 0x05A8	; 0x8005a8 <_ZL13g_enable_LEDs>
    2dda:	86 ea       	ldi	r24, 0xA6	; 166
    2ddc:	91 e0       	ldi	r25, 0x01	; 1
    2dde:	0e 94 31 2d 	call	0x5a62	; 0x5a62 <eeprom_update_byte>
					g_LEDs_Timed_Out = !g_enable_LEDs;
    2de2:	90 91 a8 05 	lds	r25, 0x05A8	; 0x8005a8 <_ZL13g_enable_LEDs>
    2de6:	81 e0       	ldi	r24, 0x01	; 1
    2de8:	91 11       	cpse	r25, r1
    2dea:	80 e0       	ldi	r24, 0x00	; 0
    2dec:	80 93 71 05 	sts	0x0571, r24	; 0x800571 <_ZL16g_LEDs_Timed_Out>
				}

				sprintf(g_tempStr,"LED:%s\n",g_enable_LEDs ? "ON" : "OFF");
    2df0:	80 91 a8 05 	lds	r24, 0x05A8	; 0x8005a8 <_ZL13g_enable_LEDs>
    2df4:	81 11       	cpse	r24, r1
    2df6:	05 c0       	rjmp	.+10     	; 0x2e02 <_Z17handleLinkBusMsgsv+0x2a2>
    2df8:	2a e6       	ldi	r18, 0x6A	; 106
    2dfa:	31 e0       	ldi	r19, 0x01	; 1
    2dfc:	82 2f       	mov	r24, r18
    2dfe:	93 2f       	mov	r25, r19
    2e00:	04 c0       	rjmp	.+8      	; 0x2e0a <_Z17handleLinkBusMsgsv+0x2aa>
    2e02:	e7 e6       	ldi	r30, 0x67	; 103
    2e04:	f1 e0       	ldi	r31, 0x01	; 1
    2e06:	8e 2f       	mov	r24, r30
    2e08:	9f 2f       	mov	r25, r31
    2e0a:	9f 93       	push	r25
    2e0c:	8f 93       	push	r24
    2e0e:	86 e7       	ldi	r24, 0x76	; 118
    2e10:	91 e0       	ldi	r25, 0x01	; 1
    2e12:	9f 93       	push	r25
    2e14:	8f 93       	push	r24
    2e16:	bf 92       	push	r11
    2e18:	af 92       	push	r10
    2e1a:	0e 94 6a 2a 	call	0x54d4	; 0x54d4 <sprintf>
				lb_send_string(g_tempStr,FALSE);
    2e1e:	60 e0       	ldi	r22, 0x00	; 0
    2e20:	c5 01       	movw	r24, r10
    2e22:	0e 94 30 07 	call	0xe60	; 0xe60 <_Z14lb_send_stringPch>
			}
			break;
    2e26:	0f 90       	pop	r0
    2e28:	0f 90       	pop	r0
    2e2a:	0f 90       	pop	r0
    2e2c:	0f 90       	pop	r0
    2e2e:	0f 90       	pop	r0
    2e30:	0f 90       	pop	r0
    2e32:	8b c4       	rjmp	.+2326   	; 0x374a <_Z17handleLinkBusMsgsv+0xbea>

			case MESSAGE_STARTTONES_ENABLE:
			{
				if(lb_buff->fields[FIELD1][0])
    2e34:	f6 01       	movw	r30, r12
    2e36:	83 81       	ldd	r24, Z+3	; 0x03
    2e38:	88 23       	and	r24, r24
    2e3a:	89 f0       	breq	.+34     	; 0x2e5e <_Z17handleLinkBusMsgsv+0x2fe>
				{
					if((lb_buff->fields[FIELD1][1] == 'F') || (lb_buff->fields[FIELD1][0] == '0'))
    2e3c:	94 81       	ldd	r25, Z+4	; 0x04
    2e3e:	96 34       	cpi	r25, 0x46	; 70
    2e40:	11 f0       	breq	.+4      	; 0x2e46 <_Z17handleLinkBusMsgsv+0x2e6>
    2e42:	80 33       	cpi	r24, 0x30	; 48
    2e44:	19 f4       	brne	.+6      	; 0x2e4c <_Z17handleLinkBusMsgsv+0x2ec>
					{
						g_enable_start_timer = FALSE;
    2e46:	10 92 a7 05 	sts	0x05A7, r1	; 0x8005a7 <_ZL20g_enable_start_timer>
    2e4a:	03 c0       	rjmp	.+6      	; 0x2e52 <_Z17handleLinkBusMsgsv+0x2f2>
					}
					else
					{
						g_enable_start_timer = TRUE;
    2e4c:	81 e0       	ldi	r24, 0x01	; 1
    2e4e:	80 93 a7 05 	sts	0x05A7, r24	; 0x8005a7 <_ZL20g_enable_start_timer>
					}

					eeprom_update_byte(&ee_enable_start_timer,g_enable_start_timer);
    2e52:	60 91 a7 05 	lds	r22, 0x05A7	; 0x8005a7 <_ZL20g_enable_start_timer>
    2e56:	81 ea       	ldi	r24, 0xA1	; 161
    2e58:	91 e0       	ldi	r25, 0x01	; 1
    2e5a:	0e 94 31 2d 	call	0x5a62	; 0x5a62 <eeprom_update_byte>
				}

				sprintf(g_tempStr,"STA:%s\n",g_enable_start_timer ? "ON" : "OFF");
    2e5e:	80 91 a7 05 	lds	r24, 0x05A7	; 0x8005a7 <_ZL20g_enable_start_timer>
    2e62:	81 11       	cpse	r24, r1
    2e64:	05 c0       	rjmp	.+10     	; 0x2e70 <_Z17handleLinkBusMsgsv+0x310>
    2e66:	2a e6       	ldi	r18, 0x6A	; 106
    2e68:	31 e0       	ldi	r19, 0x01	; 1
    2e6a:	82 2f       	mov	r24, r18
    2e6c:	93 2f       	mov	r25, r19
    2e6e:	04 c0       	rjmp	.+8      	; 0x2e78 <_Z17handleLinkBusMsgsv+0x318>
    2e70:	e7 e6       	ldi	r30, 0x67	; 103
    2e72:	f1 e0       	ldi	r31, 0x01	; 1
    2e74:	8e 2f       	mov	r24, r30
    2e76:	9f 2f       	mov	r25, r31
    2e78:	9f 93       	push	r25
    2e7a:	8f 93       	push	r24
    2e7c:	7f 92       	push	r7
    2e7e:	6f 92       	push	r6
    2e80:	bf 92       	push	r11
    2e82:	af 92       	push	r10
    2e84:	0e 94 6a 2a 	call	0x54d4	; 0x54d4 <sprintf>
				lb_send_string(g_tempStr,FALSE);
    2e88:	60 e0       	ldi	r22, 0x00	; 0
    2e8a:	c5 01       	movw	r24, r10
    2e8c:	0e 94 30 07 	call	0xe60	; 0xe60 <_Z14lb_send_stringPch>
			}
			break;
    2e90:	0f 90       	pop	r0
    2e92:	0f 90       	pop	r0
    2e94:	0f 90       	pop	r0
    2e96:	0f 90       	pop	r0
    2e98:	0f 90       	pop	r0
    2e9a:	0f 90       	pop	r0
    2e9c:	56 c4       	rjmp	.+2220   	; 0x374a <_Z17handleLinkBusMsgsv+0xbea>

			case MESSAGE_SYNC:
			{
				if(lb_buff->fields[FIELD1][0])
    2e9e:	f6 01       	movw	r30, r12
    2ea0:	83 81       	ldd	r24, Z+3	; 0x03
    2ea2:	88 23       	and	r24, r24
    2ea4:	09 f4       	brne	.+2      	; 0x2ea8 <_Z17handleLinkBusMsgsv+0x348>
    2ea6:	51 c4       	rjmp	.+2210   	; 0x374a <_Z17handleLinkBusMsgsv+0xbea>
				{
					if(lb_buff->fields[FIELD1][0] == '0')       /* Stop the event. Re-sync will occur on next start */
    2ea8:	80 33       	cpi	r24, 0x30	; 48
    2eaa:	21 f4       	brne	.+8      	; 0x2eb4 <_Z17handleLinkBusMsgsv+0x354>
					{
						g_transmissions_disabled = TRUE;
    2eac:	81 e0       	ldi	r24, 0x01	; 1
    2eae:	80 93 20 01 	sts	0x0120, r24	; 0x800120 <g_transmissions_disabled>
    2eb2:	4b c4       	rjmp	.+2198   	; 0x374a <_Z17handleLinkBusMsgsv+0xbea>
					}
					else if(lb_buff->fields[FIELD1][0] == '1')  /* Start the event, re-syncing to a start time of now - same as a button press */
    2eb4:	81 33       	cpi	r24, 0x31	; 49
    2eb6:	19 f4       	brne	.+6      	; 0x2ebe <_Z17handleLinkBusMsgsv+0x35e>
					{
						startEventNow();
    2eb8:	0e 94 e4 13 	call	0x27c8	; 0x27c8 <_Z13startEventNowv>
    2ebc:	46 c4       	rjmp	.+2188   	; 0x374a <_Z17handleLinkBusMsgsv+0xbea>
					}
					else if(lb_buff->fields[FIELD1][0] == '2')  /* Start the event at the programmed start time */
    2ebe:	82 33       	cpi	r24, 0x32	; 50
    2ec0:	09 f0       	breq	.+2      	; 0x2ec4 <_Z17handleLinkBusMsgsv+0x364>
    2ec2:	43 c4       	rjmp	.+2182   	; 0x374a <_Z17handleLinkBusMsgsv+0xbea>
					{
						g_transmissions_disabled = TRUE;
    2ec4:	81 e0       	ldi	r24, 0x01	; 1
    2ec6:	80 93 20 01 	sts	0x0120, r24	; 0x800120 <g_transmissions_disabled>

						if(!clockConfigurationError())
    2eca:	0e 94 ce 09 	call	0x139c	; 0x139c <_Z23clockConfigurationErrorv>
    2ece:	81 11       	cpse	r24, r1
    2ed0:	5e c0       	rjmp	.+188    	; 0x2f8e <_Z17handleLinkBusMsgsv+0x42e>
						{
							g_use_rtc_to_start = TRUE;
    2ed2:	81 e0       	ldi	r24, 0x01	; 1
    2ed4:	80 93 d5 05 	sts	0x05D5, r24	; 0x8005d5 <g_use_rtc_to_start>
							reportTimeTill(g_current_epoch,g_event_start_epoch,"Starts in: ","In progress\n");
    2ed8:	20 91 ee 05 	lds	r18, 0x05EE	; 0x8005ee <g_event_start_epoch>
    2edc:	30 91 ef 05 	lds	r19, 0x05EF	; 0x8005ef <g_event_start_epoch+0x1>
    2ee0:	40 91 f0 05 	lds	r20, 0x05F0	; 0x8005f0 <g_event_start_epoch+0x2>
    2ee4:	50 91 f1 05 	lds	r21, 0x05F1	; 0x8005f1 <g_event_start_epoch+0x3>
    2ee8:	60 91 f2 05 	lds	r22, 0x05F2	; 0x8005f2 <g_current_epoch>
    2eec:	70 91 f3 05 	lds	r23, 0x05F3	; 0x8005f3 <g_current_epoch+0x1>
    2ef0:	80 91 f4 05 	lds	r24, 0x05F4	; 0x8005f4 <g_current_epoch+0x2>
    2ef4:	90 91 f5 05 	lds	r25, 0x05F5	; 0x8005f5 <g_current_epoch+0x3>
    2ef8:	0f 2e       	mov	r0, r31
    2efa:	f6 e8       	ldi	r31, 0x86	; 134
    2efc:	ef 2e       	mov	r14, r31
    2efe:	f1 e0       	ldi	r31, 0x01	; 1
    2f00:	ff 2e       	mov	r15, r31
    2f02:	f0 2d       	mov	r31, r0
    2f04:	03 e9       	ldi	r16, 0x93	; 147
    2f06:	11 e0       	ldi	r17, 0x01	; 1
    2f08:	0e 94 6b 14 	call	0x28d6	; 0x28d6 <_Z14reportTimeTillmmPKcS0_>
							reportTimeTill(g_event_start_epoch,g_event_finish_epoch,"Lasts: ",NULL);
    2f0c:	20 91 ea 05 	lds	r18, 0x05EA	; 0x8005ea <g_event_finish_epoch>
    2f10:	30 91 eb 05 	lds	r19, 0x05EB	; 0x8005eb <g_event_finish_epoch+0x1>
    2f14:	40 91 ec 05 	lds	r20, 0x05EC	; 0x8005ec <g_event_finish_epoch+0x2>
    2f18:	50 91 ed 05 	lds	r21, 0x05ED	; 0x8005ed <g_event_finish_epoch+0x3>
    2f1c:	60 91 ee 05 	lds	r22, 0x05EE	; 0x8005ee <g_event_start_epoch>
    2f20:	70 91 ef 05 	lds	r23, 0x05EF	; 0x8005ef <g_event_start_epoch+0x1>
    2f24:	80 91 f0 05 	lds	r24, 0x05F0	; 0x8005f0 <g_event_start_epoch+0x2>
    2f28:	90 91 f1 05 	lds	r25, 0x05F1	; 0x8005f1 <g_event_start_epoch+0x3>
    2f2c:	e1 2c       	mov	r14, r1
    2f2e:	f1 2c       	mov	r15, r1
    2f30:	0f e9       	ldi	r16, 0x9F	; 159
    2f32:	11 e0       	ldi	r17, 0x01	; 1
    2f34:	0e 94 6b 14 	call	0x28d6	; 0x28d6 <_Z14reportTimeTillmmPKcS0_>
							if(g_event_start_epoch < g_current_epoch)
    2f38:	40 91 ee 05 	lds	r20, 0x05EE	; 0x8005ee <g_event_start_epoch>
    2f3c:	50 91 ef 05 	lds	r21, 0x05EF	; 0x8005ef <g_event_start_epoch+0x1>
    2f40:	60 91 f0 05 	lds	r22, 0x05F0	; 0x8005f0 <g_event_start_epoch+0x2>
    2f44:	70 91 f1 05 	lds	r23, 0x05F1	; 0x8005f1 <g_event_start_epoch+0x3>
    2f48:	80 91 f2 05 	lds	r24, 0x05F2	; 0x8005f2 <g_current_epoch>
    2f4c:	90 91 f3 05 	lds	r25, 0x05F3	; 0x8005f3 <g_current_epoch+0x1>
    2f50:	a0 91 f4 05 	lds	r26, 0x05F4	; 0x8005f4 <g_current_epoch+0x2>
    2f54:	b0 91 f5 05 	lds	r27, 0x05F5	; 0x8005f5 <g_current_epoch+0x3>
    2f58:	48 17       	cp	r20, r24
    2f5a:	59 07       	cpc	r21, r25
    2f5c:	6a 07       	cpc	r22, r26
    2f5e:	7b 07       	cpc	r23, r27
    2f60:	08 f0       	brcs	.+2      	; 0x2f64 <_Z17handleLinkBusMsgsv+0x404>
    2f62:	f3 c3       	rjmp	.+2022   	; 0x374a <_Z17handleLinkBusMsgsv+0xbea>
							{
								reportTimeTill(g_current_epoch,g_event_finish_epoch,"Time Remaining: ",NULL);
    2f64:	20 91 ea 05 	lds	r18, 0x05EA	; 0x8005ea <g_event_finish_epoch>
    2f68:	30 91 eb 05 	lds	r19, 0x05EB	; 0x8005eb <g_event_finish_epoch+0x1>
    2f6c:	40 91 ec 05 	lds	r20, 0x05EC	; 0x8005ec <g_event_finish_epoch+0x2>
    2f70:	50 91 ed 05 	lds	r21, 0x05ED	; 0x8005ed <g_event_finish_epoch+0x3>
    2f74:	60 91 f2 05 	lds	r22, 0x05F2	; 0x8005f2 <g_current_epoch>
    2f78:	70 91 f3 05 	lds	r23, 0x05F3	; 0x8005f3 <g_current_epoch+0x1>
    2f7c:	80 91 f4 05 	lds	r24, 0x05F4	; 0x8005f4 <g_current_epoch+0x2>
    2f80:	90 91 f5 05 	lds	r25, 0x05F5	; 0x8005f5 <g_current_epoch+0x3>
    2f84:	07 ea       	ldi	r16, 0xA7	; 167
    2f86:	11 e0       	ldi	r17, 0x01	; 1
    2f88:	0e 94 6b 14 	call	0x28d6	; 0x28d6 <_Z14reportTimeTillmmPKcS0_>
    2f8c:	de c3       	rjmp	.+1980   	; 0x374a <_Z17handleLinkBusMsgsv+0xbea>
							}
						}
						else
						{
							reportClockConfigErrors();
    2f8e:	0e 94 27 14 	call	0x284e	; 0x284e <_Z23reportClockConfigErrorsv>
    2f92:	db c3       	rjmp	.+1974   	; 0x374a <_Z17handleLinkBusMsgsv+0xbea>
			}
			break;

			case MESSAGE_SET_STATION_ID:
			{
				if(lb_buff->fields[FIELD1][0])
    2f94:	f6 01       	movw	r30, r12
    2f96:	83 81       	ldd	r24, Z+3	; 0x03
    2f98:	88 23       	and	r24, r24
    2f9a:	09 f4       	brne	.+2      	; 0x2f9e <_Z17handleLinkBusMsgsv+0x43e>
    2f9c:	4d c0       	rjmp	.+154    	; 0x3038 <_Z17handleLinkBusMsgsv+0x4d8>
				{
					strcpy(g_tempStr," ");  /* Space before ID gets sent */
    2f9e:	80 e2       	ldi	r24, 0x20	; 32
    2fa0:	90 e0       	ldi	r25, 0x00	; 0
    2fa2:	f5 01       	movw	r30, r10
    2fa4:	91 83       	std	Z+1, r25	; 0x01
    2fa6:	80 83       	st	Z, r24
					strcat(g_tempStr,lb_buff->fields[FIELD1]);
    2fa8:	b6 01       	movw	r22, r12
    2faa:	6d 5f       	subi	r22, 0xFD	; 253
    2fac:	7f 4f       	sbci	r23, 0xFF	; 255
    2fae:	c5 01       	movw	r24, r10
    2fb0:	0e 94 2c 2a 	call	0x5458	; 0x5458 <strcat>

					if(lb_buff->fields[FIELD2][0])
    2fb4:	f6 01       	movw	r30, r12
    2fb6:	87 89       	ldd	r24, Z+23	; 0x17
    2fb8:	88 23       	and	r24, r24
    2fba:	79 f0       	breq	.+30     	; 0x2fda <_Z17handleLinkBusMsgsv+0x47a>
					{
						strcat(g_tempStr," ");
    2fbc:	f5 01       	movw	r30, r10
    2fbe:	01 90       	ld	r0, Z+
    2fc0:	00 20       	and	r0, r0
    2fc2:	e9 f7       	brne	.-6      	; 0x2fbe <_Z17handleLinkBusMsgsv+0x45e>
    2fc4:	31 97       	sbiw	r30, 0x01	; 1
    2fc6:	80 e2       	ldi	r24, 0x20	; 32
    2fc8:	90 e0       	ldi	r25, 0x00	; 0
    2fca:	91 83       	std	Z+1, r25	; 0x01
    2fcc:	80 83       	st	Z, r24
						strcat(g_tempStr,lb_buff->fields[FIELD2]);
    2fce:	b6 01       	movw	r22, r12
    2fd0:	69 5e       	subi	r22, 0xE9	; 233
    2fd2:	7f 4f       	sbci	r23, 0xFF	; 255
    2fd4:	c5 01       	movw	r24, r10
    2fd6:	0e 94 2c 2a 	call	0x5458	; 0x5458 <strcat>
					}

					if(strlen(g_tempStr) <= MAX_PATTERN_TEXT_LENGTH)
    2fda:	f5 01       	movw	r30, r10
    2fdc:	01 90       	ld	r0, Z+
    2fde:	00 20       	and	r0, r0
    2fe0:	e9 f7       	brne	.-6      	; 0x2fdc <_Z17handleLinkBusMsgsv+0x47c>
    2fe2:	31 97       	sbiw	r30, 0x01	; 1
    2fe4:	e2 57       	subi	r30, 0x72	; 114
    2fe6:	f5 40       	sbci	r31, 0x05	; 5
    2fe8:	75 97       	sbiw	r30, 0x15	; 21
    2fea:	30 f5       	brcc	.+76     	; 0x3038 <_Z17handleLinkBusMsgsv+0x4d8>
					{
						uint8_t i;
						strcpy(g_messages_text[STATION_ID],g_tempStr);
    2fec:	b5 01       	movw	r22, r10
    2fee:	80 ec       	ldi	r24, 0xC0	; 192
    2ff0:	95 e0       	ldi	r25, 0x05	; 5
    2ff2:	0e 94 37 2a 	call	0x546e	; 0x546e <strcpy>

						for(i = 0; i < strlen(g_messages_text[STATION_ID]); i++)
    2ff6:	f1 2c       	mov	r15, r1
    2ff8:	00 ec       	ldi	r16, 0xC0	; 192
    2ffa:	15 e0       	ldi	r17, 0x05	; 5
    2ffc:	f8 01       	movw	r30, r16
    2ffe:	01 90       	ld	r0, Z+
    3000:	00 20       	and	r0, r0
    3002:	e9 f7       	brne	.-6      	; 0x2ffe <_Z17handleLinkBusMsgsv+0x49e>
    3004:	cf 01       	movw	r24, r30
    3006:	81 5c       	subi	r24, 0xC1	; 193
    3008:	95 40       	sbci	r25, 0x05	; 5
    300a:	2f 2d       	mov	r18, r15
    300c:	30 e0       	ldi	r19, 0x00	; 0
    300e:	28 17       	cp	r18, r24
    3010:	39 07       	cpc	r19, r25
    3012:	58 f4       	brcc	.+22     	; 0x302a <_Z17handleLinkBusMsgsv+0x4ca>
						{
							eeprom_update_byte((uint8_t*)&ee_stationID_text[i],(uint8_t)g_messages_text[STATION_ID][i]);
    3014:	c9 01       	movw	r24, r18
    3016:	fc 01       	movw	r30, r24
    3018:	e5 55       	subi	r30, 0x55	; 85
    301a:	fa 4f       	sbci	r31, 0xFA	; 250
    301c:	65 89       	ldd	r22, Z+21	; 0x15
    301e:	8f 5d       	subi	r24, 0xDF	; 223
    3020:	9d 4f       	sbci	r25, 0xFD	; 253
    3022:	0e 94 31 2d 	call	0x5a62	; 0x5a62 <eeprom_update_byte>
					if(strlen(g_tempStr) <= MAX_PATTERN_TEXT_LENGTH)
					{
						uint8_t i;
						strcpy(g_messages_text[STATION_ID],g_tempStr);

						for(i = 0; i < strlen(g_messages_text[STATION_ID]); i++)
    3026:	f3 94       	inc	r15
    3028:	e9 cf       	rjmp	.-46     	; 0x2ffc <_Z17handleLinkBusMsgsv+0x49c>
						{
							eeprom_update_byte((uint8_t*)&ee_stationID_text[i],(uint8_t)g_messages_text[STATION_ID][i]);
						}

						eeprom_update_byte((uint8_t*)&ee_stationID_text[i],0);
    302a:	8f 2d       	mov	r24, r15
    302c:	90 e0       	ldi	r25, 0x00	; 0
    302e:	60 e0       	ldi	r22, 0x00	; 0
    3030:	8f 5d       	subi	r24, 0xDF	; 223
    3032:	9d 4f       	sbci	r25, 0xFD	; 253
    3034:	0e 94 31 2d 	call	0x5a62	; 0x5a62 <eeprom_update_byte>
					}
				}

				if(g_messages_text[STATION_ID][0])
    3038:	80 91 c0 05 	lds	r24, 0x05C0	; 0x8005c0 <_ZL15g_messages_text+0x15>
    303c:	88 23       	and	r24, r24
    303e:	f1 f0       	breq	.+60     	; 0x307c <_Z17handleLinkBusMsgsv+0x51c>
				{
					g_time_needed_for_ID = (500 + timeRequiredToSendStrAtWPM(g_messages_text[STATION_ID],g_id_codespeed)) / 1000;
    3040:	60 91 18 01 	lds	r22, 0x0118	; 0x800118 <_ZL14g_id_codespeed>
    3044:	70 e0       	ldi	r23, 0x00	; 0
    3046:	80 ec       	ldi	r24, 0xC0	; 192
    3048:	95 e0       	ldi	r25, 0x05	; 5
    304a:	0e 94 0a 22 	call	0x4414	; 0x4414 <_Z26timeRequiredToSendStrAtWPMPcj>
    304e:	8c 50       	subi	r24, 0x0C	; 12
    3050:	9e 4f       	sbci	r25, 0xFE	; 254
    3052:	9c 01       	movw	r18, r24
    3054:	36 95       	lsr	r19
    3056:	27 95       	ror	r18
    3058:	36 95       	lsr	r19
    305a:	27 95       	ror	r18
    305c:	36 95       	lsr	r19
    305e:	27 95       	ror	r18
    3060:	a5 ec       	ldi	r26, 0xC5	; 197
    3062:	b0 e2       	ldi	r27, 0x20	; 32
    3064:	0e 94 95 28 	call	0x512a	; 0x512a <__umulhisi3>
    3068:	92 95       	swap	r25
    306a:	82 95       	swap	r24
    306c:	8f 70       	andi	r24, 0x0F	; 15
    306e:	89 27       	eor	r24, r25
    3070:	9f 70       	andi	r25, 0x0F	; 15
    3072:	89 27       	eor	r24, r25
    3074:	90 93 aa 05 	sts	0x05AA, r25	; 0x8005aa <_ZL20g_time_needed_for_ID+0x1>
    3078:	80 93 a9 05 	sts	0x05A9, r24	; 0x8005a9 <_ZL20g_time_needed_for_ID>
				}

				sprintf(g_tempStr,"ID:%s\n",g_messages_text[STATION_ID]);
    307c:	80 ec       	ldi	r24, 0xC0	; 192
    307e:	95 e0       	ldi	r25, 0x05	; 5
    3080:	9f 93       	push	r25
    3082:	8f 93       	push	r24
    3084:	88 eb       	ldi	r24, 0xB8	; 184
    3086:	91 e0       	ldi	r25, 0x01	; 1
    3088:	9f 93       	push	r25
    308a:	8f 93       	push	r24
    308c:	bf 92       	push	r11
    308e:	af 92       	push	r10
    3090:	0e 94 6a 2a 	call	0x54d4	; 0x54d4 <sprintf>
				lb_send_string(g_tempStr,TRUE);
    3094:	61 e0       	ldi	r22, 0x01	; 1
    3096:	c5 01       	movw	r24, r10
    3098:	0e 94 30 07 	call	0xe60	; 0xe60 <_Z14lb_send_stringPch>
			}
			break;
    309c:	0f 90       	pop	r0
    309e:	0f 90       	pop	r0
    30a0:	0f 90       	pop	r0
    30a2:	0f 90       	pop	r0
    30a4:	0f 90       	pop	r0
    30a6:	0f 90       	pop	r0
    30a8:	50 c3       	rjmp	.+1696   	; 0x374a <_Z17handleLinkBusMsgsv+0xbea>


			case MESSAGE_CODE_SPEED:
			{
				if(lb_buff->fields[FIELD1][0] == 'I')
    30aa:	f6 01       	movw	r30, r12
    30ac:	83 81       	ldd	r24, Z+3	; 0x03
    30ae:	89 34       	cpi	r24, 0x49	; 73
    30b0:	e1 f5       	brne	.+120    	; 0x312a <_Z17handleLinkBusMsgsv+0x5ca>
				{
					if(lb_buff->fields[FIELD2][0])
    30b2:	87 89       	ldd	r24, Z+23	; 0x17
    30b4:	88 23       	and	r24, r24
    30b6:	c9 f1       	breq	.+114    	; 0x312a <_Z17handleLinkBusMsgsv+0x5ca>
					{
						uint8_t speed = atol(lb_buff->fields[FIELD2]);
    30b8:	c6 01       	movw	r24, r12
    30ba:	47 96       	adiw	r24, 0x17	; 23
    30bc:	0e 94 fd 29 	call	0x53fa	; 0x53fa <atol>
						g_id_codespeed = CLAMP(MIN_CODE_SPEED_WPM,speed,MAX_CODE_SPEED_WPM);
    30c0:	86 2f       	mov	r24, r22
    30c2:	90 e0       	ldi	r25, 0x00	; 0
    30c4:	85 30       	cpi	r24, 0x05	; 5
    30c6:	91 05       	cpc	r25, r1
    30c8:	14 f4       	brge	.+4      	; 0x30ce <_Z17handleLinkBusMsgsv+0x56e>
    30ca:	85 e0       	ldi	r24, 0x05	; 5
    30cc:	90 e0       	ldi	r25, 0x00	; 0
    30ce:	85 31       	cpi	r24, 0x15	; 21
    30d0:	91 05       	cpc	r25, r1
    30d2:	0c f0       	brlt	.+2      	; 0x30d6 <_Z17handleLinkBusMsgsv+0x576>
    30d4:	84 e1       	ldi	r24, 0x14	; 20
    30d6:	80 93 18 01 	sts	0x0118, r24	; 0x800118 <_ZL14g_id_codespeed>
						eeprom_update_byte(&ee_id_codespeed,g_id_codespeed);
    30da:	60 91 18 01 	lds	r22, 0x0118	; 0x800118 <_ZL14g_id_codespeed>
    30de:	88 ea       	ldi	r24, 0xA8	; 168
    30e0:	91 e0       	ldi	r25, 0x01	; 1
    30e2:	0e 94 31 2d 	call	0x5a62	; 0x5a62 <eeprom_update_byte>

						if(g_messages_text[STATION_ID][0])
    30e6:	80 91 c0 05 	lds	r24, 0x05C0	; 0x8005c0 <_ZL15g_messages_text+0x15>
    30ea:	88 23       	and	r24, r24
    30ec:	f1 f0       	breq	.+60     	; 0x312a <_Z17handleLinkBusMsgsv+0x5ca>
						{
							g_time_needed_for_ID = (500 + timeRequiredToSendStrAtWPM(g_messages_text[STATION_ID],g_id_codespeed)) / 1000;
    30ee:	60 91 18 01 	lds	r22, 0x0118	; 0x800118 <_ZL14g_id_codespeed>
    30f2:	70 e0       	ldi	r23, 0x00	; 0
    30f4:	80 ec       	ldi	r24, 0xC0	; 192
    30f6:	95 e0       	ldi	r25, 0x05	; 5
    30f8:	0e 94 0a 22 	call	0x4414	; 0x4414 <_Z26timeRequiredToSendStrAtWPMPcj>
    30fc:	8c 50       	subi	r24, 0x0C	; 12
    30fe:	9e 4f       	sbci	r25, 0xFE	; 254
    3100:	9c 01       	movw	r18, r24
    3102:	36 95       	lsr	r19
    3104:	27 95       	ror	r18
    3106:	36 95       	lsr	r19
    3108:	27 95       	ror	r18
    310a:	36 95       	lsr	r19
    310c:	27 95       	ror	r18
    310e:	a5 ec       	ldi	r26, 0xC5	; 197
    3110:	b0 e2       	ldi	r27, 0x20	; 32
    3112:	0e 94 95 28 	call	0x512a	; 0x512a <__umulhisi3>
    3116:	92 95       	swap	r25
    3118:	82 95       	swap	r24
    311a:	8f 70       	andi	r24, 0x0F	; 15
    311c:	89 27       	eor	r24, r25
    311e:	9f 70       	andi	r25, 0x0F	; 15
    3120:	89 27       	eor	r24, r25
    3122:	90 93 aa 05 	sts	0x05AA, r25	; 0x8005aa <_ZL20g_time_needed_for_ID+0x1>
    3126:	80 93 a9 05 	sts	0x05A9, r24	; 0x8005a9 <_ZL20g_time_needed_for_ID>
						}
					}
				}
				sprintf(g_tempStr,"ID:  %d wpm\n",g_id_codespeed);
    312a:	80 91 18 01 	lds	r24, 0x0118	; 0x800118 <_ZL14g_id_codespeed>
    312e:	1f 92       	push	r1
    3130:	8f 93       	push	r24
    3132:	5f 92       	push	r5
    3134:	4f 92       	push	r4
    3136:	bf 92       	push	r11
    3138:	af 92       	push	r10
    313a:	0e 94 6a 2a 	call	0x54d4	; 0x54d4 <sprintf>
				lb_send_string(g_tempStr,FALSE);
    313e:	60 e0       	ldi	r22, 0x00	; 0
    3140:	c5 01       	movw	r24, r10
    3142:	0e 94 30 07 	call	0xe60	; 0xe60 <_Z14lb_send_stringPch>
			}
			break;
    3146:	0f 90       	pop	r0
    3148:	0f 90       	pop	r0
    314a:	0f 90       	pop	r0
    314c:	0f 90       	pop	r0
    314e:	0f 90       	pop	r0
    3150:	0f 90       	pop	r0
    3152:	fb c2       	rjmp	.+1526   	; 0x374a <_Z17handleLinkBusMsgsv+0xbea>

			case MESSAGE_VERSION:
			{
				sendEEPROMString(&ee_textVersion[0]);
    3154:	80 e7       	ldi	r24, 0x70	; 112
    3156:	91 e0       	ldi	r25, 0x01	; 1
    3158:	0e 94 82 02 	call	0x504	; 0x504 <_Z16sendEEPROMStringPc>
			}
			break;
    315c:	f6 c2       	rjmp	.+1516   	; 0x374a <_Z17handleLinkBusMsgsv+0xbea>

			case MESSAGE_CLOCK:
			{
				BOOL doprint = false;

				if(lb_buff->fields[FIELD1][0] == 'T')   /* Current time format "YYMMDDhhmmss" */
    315e:	f6 01       	movw	r30, r12
    3160:	83 81       	ldd	r24, Z+3	; 0x03
    3162:	84 35       	cpi	r24, 0x54	; 84
    3164:	09 f0       	breq	.+2      	; 0x3168 <_Z17handleLinkBusMsgsv+0x608>
    3166:	93 c0       	rjmp	.+294    	; 0x328e <_Z17handleLinkBusMsgsv+0x72e>
				{
					strncpy(g_tempStr,lb_buff->fields[FIELD2],12);
    3168:	4c e0       	ldi	r20, 0x0C	; 12
    316a:	50 e0       	ldi	r21, 0x00	; 0
    316c:	b6 01       	movw	r22, r12
    316e:	69 5e       	subi	r22, 0xE9	; 233
    3170:	7f 4f       	sbci	r23, 0xFF	; 255
    3172:	c5 01       	movw	r24, r10
    3174:	0e 94 3e 2a 	call	0x547c	; 0x547c <strncpy>
					g_tempStr[12] = '\0';               /* truncate to no more than 12 characters */
    3178:	f5 01       	movw	r30, r10
    317a:	14 86       	std	Z+12, r1	; 0x0c
					int len = strlen(g_tempStr);
    317c:	01 90       	ld	r0, Z+
    317e:	00 20       	and	r0, r0
    3180:	e9 f7       	brne	.-6      	; 0x317c <_Z17handleLinkBusMsgsv+0x61c>
    3182:	31 97       	sbiw	r30, 0x01	; 1
    3184:	e2 57       	subi	r30, 0x72	; 114
    3186:	f5 40       	sbci	r31, 0x05	; 5

					if(len > 0)
    3188:	1e 16       	cp	r1, r30
    318a:	1f 06       	cpc	r1, r31
    318c:	0c f0       	brlt	.+2      	; 0x3190 <_Z17handleLinkBusMsgsv+0x630>
    318e:	4f c0       	rjmp	.+158    	; 0x322e <_Z17handleLinkBusMsgsv+0x6ce>
					{
						if((len == 12) && (only_digits(g_tempStr)))
    3190:	3c 97       	sbiw	r30, 0x0c	; 12
    3192:	09 f0       	breq	.+2      	; 0x3196 <_Z17handleLinkBusMsgsv+0x636>
    3194:	43 c0       	rjmp	.+134    	; 0x321c <_Z17handleLinkBusMsgsv+0x6bc>
    3196:	c5 01       	movw	r24, r10
    3198:	0e 94 d6 13 	call	0x27ac	; 0x27ac <_Z11only_digitsPc>
    319c:	88 23       	and	r24, r24
    319e:	f1 f1       	breq	.+124    	; 0x321c <_Z17handleLinkBusMsgsv+0x6bc>
						{
							time_t t = rv3028_get_epoch(NULL,g_tempStr);    /* String format "YYMMDDhhmmss" */
    31a0:	b5 01       	movw	r22, r10
    31a2:	80 e0       	ldi	r24, 0x00	; 0
    31a4:	90 e0       	ldi	r25, 0x00	; 0
    31a6:	0e 94 56 22 	call	0x44ac	; 0x44ac <_Z16rv3028_get_epochPbPc>

							if(t > MINIMUM_EPOCH)
    31aa:	61 30       	cpi	r22, 0x01	; 1
    31ac:	76 46       	sbci	r23, 0x66	; 102
    31ae:	8e 4e       	sbci	r24, 0xEE	; 238
    31b0:	9f 45       	sbci	r25, 0x5F	; 95
    31b2:	58 f1       	brcs	.+86     	; 0x320a <_Z17handleLinkBusMsgsv+0x6aa>
							{
								rv3028_set_date_time(g_tempStr);            /* String format "YYMMDDhhmmss" */
    31b4:	c5 01       	movw	r24, r10
    31b6:	0e 94 61 23 	call	0x46c2	; 0x46c2 <_Z20rv3028_set_date_timePc>
								g_current_epoch = rv3028_get_epoch(NULL,NULL);
    31ba:	60 e0       	ldi	r22, 0x00	; 0
    31bc:	70 e0       	ldi	r23, 0x00	; 0
    31be:	80 e0       	ldi	r24, 0x00	; 0
    31c0:	90 e0       	ldi	r25, 0x00	; 0
    31c2:	0e 94 56 22 	call	0x44ac	; 0x44ac <_Z16rv3028_get_epochPbPc>
    31c6:	60 93 f2 05 	sts	0x05F2, r22	; 0x8005f2 <g_current_epoch>
    31ca:	70 93 f3 05 	sts	0x05F3, r23	; 0x8005f3 <g_current_epoch+0x1>
    31ce:	80 93 f4 05 	sts	0x05F4, r24	; 0x8005f4 <g_current_epoch+0x2>
    31d2:	90 93 f5 05 	sts	0x05F5, r25	; 0x8005f5 <g_current_epoch+0x3>
								sprintf(g_tempStr,"Time:%lu\n",g_current_epoch);
    31d6:	80 91 f2 05 	lds	r24, 0x05F2	; 0x8005f2 <g_current_epoch>
    31da:	90 91 f3 05 	lds	r25, 0x05F3	; 0x8005f3 <g_current_epoch+0x1>
    31de:	a0 91 f4 05 	lds	r26, 0x05F4	; 0x8005f4 <g_current_epoch+0x2>
    31e2:	b0 91 f5 05 	lds	r27, 0x05F5	; 0x8005f5 <g_current_epoch+0x3>
    31e6:	bf 93       	push	r27
    31e8:	af 93       	push	r26
    31ea:	9f 93       	push	r25
    31ec:	8f 93       	push	r24
    31ee:	89 ef       	ldi	r24, 0xF9	; 249
    31f0:	91 e0       	ldi	r25, 0x01	; 1
    31f2:	9f 93       	push	r25
    31f4:	8f 93       	push	r24
    31f6:	bf 92       	push	r11
    31f8:	af 92       	push	r10
    31fa:	0e 94 6a 2a 	call	0x54d4	; 0x54d4 <sprintf>
    31fe:	0f b6       	in	r0, 0x3f	; 63
    3200:	f8 94       	cli
    3202:	de bf       	out	0x3e, r29	; 62
    3204:	0f be       	out	0x3f, r0	; 63
    3206:	cd bf       	out	0x3d, r28	; 61
    3208:	b3 c2       	rjmp	.+1382   	; 0x3770 <_Z17handleLinkBusMsgsv+0xc10>
							}
							else
							{
								sprintf(g_tempStr,"Err: Time in past!\n");
    320a:	84 e1       	ldi	r24, 0x14	; 20
    320c:	ec ec       	ldi	r30, 0xCC	; 204
    320e:	f1 e0       	ldi	r31, 0x01	; 1
    3210:	d5 01       	movw	r26, r10
    3212:	01 90       	ld	r0, Z+
    3214:	0d 92       	st	X+, r0
    3216:	8a 95       	dec	r24
    3218:	e1 f7       	brne	.-8      	; 0x3212 <_Z17handleLinkBusMsgsv+0x6b2>
    321a:	aa c2       	rjmp	.+1364   	; 0x3770 <_Z17handleLinkBusMsgsv+0xc10>
							}
						}
						else
						{
							sprintf(g_tempStr,"Err: Invalid time!\n");
    321c:	84 e1       	ldi	r24, 0x14	; 20
    321e:	e0 ee       	ldi	r30, 0xE0	; 224
    3220:	f1 e0       	ldi	r31, 0x01	; 1
    3222:	d5 01       	movw	r26, r10
    3224:	01 90       	ld	r0, Z+
    3226:	0d 92       	st	X+, r0
    3228:	8a 95       	dec	r24
    322a:	e1 f7       	brne	.-8      	; 0x3224 <_Z17handleLinkBusMsgsv+0x6c4>
    322c:	a1 c2       	rjmp	.+1346   	; 0x3770 <_Z17handleLinkBusMsgsv+0xc10>
						}
					}
					else
					{
						reportTimeTill(g_current_epoch,g_event_start_epoch,"Starts in: ",NULL);
    322e:	20 91 ee 05 	lds	r18, 0x05EE	; 0x8005ee <g_event_start_epoch>
    3232:	30 91 ef 05 	lds	r19, 0x05EF	; 0x8005ef <g_event_start_epoch+0x1>
    3236:	40 91 f0 05 	lds	r20, 0x05F0	; 0x8005f0 <g_event_start_epoch+0x2>
    323a:	50 91 f1 05 	lds	r21, 0x05F1	; 0x8005f1 <g_event_start_epoch+0x3>
    323e:	60 91 f2 05 	lds	r22, 0x05F2	; 0x8005f2 <g_current_epoch>
    3242:	70 91 f3 05 	lds	r23, 0x05F3	; 0x8005f3 <g_current_epoch+0x1>
    3246:	80 91 f4 05 	lds	r24, 0x05F4	; 0x8005f4 <g_current_epoch+0x2>
    324a:	90 91 f5 05 	lds	r25, 0x05F5	; 0x8005f5 <g_current_epoch+0x3>
    324e:	e1 2c       	mov	r14, r1
    3250:	f1 2c       	mov	r15, r1
    3252:	03 e9       	ldi	r16, 0x93	; 147
    3254:	11 e0       	ldi	r17, 0x01	; 1
    3256:	0e 94 6b 14 	call	0x28d6	; 0x28d6 <_Z14reportTimeTillmmPKcS0_>
						sprintf(g_tempStr,"UNIX Time:%lu\n",g_current_epoch);
    325a:	80 91 f2 05 	lds	r24, 0x05F2	; 0x8005f2 <g_current_epoch>
    325e:	90 91 f3 05 	lds	r25, 0x05F3	; 0x8005f3 <g_current_epoch+0x1>
    3262:	a0 91 f4 05 	lds	r26, 0x05F4	; 0x8005f4 <g_current_epoch+0x2>
    3266:	b0 91 f5 05 	lds	r27, 0x05F5	; 0x8005f5 <g_current_epoch+0x3>
    326a:	bf 93       	push	r27
    326c:	af 93       	push	r26
    326e:	9f 93       	push	r25
    3270:	8f 93       	push	r24
    3272:	84 ef       	ldi	r24, 0xF4	; 244
    3274:	91 e0       	ldi	r25, 0x01	; 1
    3276:	9f 93       	push	r25
    3278:	8f 93       	push	r24
    327a:	bf 92       	push	r11
    327c:	af 92       	push	r10
    327e:	0e 94 6a 2a 	call	0x54d4	; 0x54d4 <sprintf>
    3282:	0f b6       	in	r0, 0x3f	; 63
    3284:	f8 94       	cli
    3286:	de bf       	out	0x3e, r29	; 62
    3288:	0f be       	out	0x3f, r0	; 63
    328a:	cd bf       	out	0x3d, r28	; 61
    328c:	71 c2       	rjmp	.+1250   	; 0x3770 <_Z17handleLinkBusMsgsv+0xc10>
					}

					doprint = true;
				}
				else if(lb_buff->fields[FIELD1][0] == 'S')  /* Event start time */
    328e:	83 35       	cpi	r24, 0x53	; 83
    3290:	09 f0       	breq	.+2      	; 0x3294 <_Z17handleLinkBusMsgsv+0x734>
    3292:	c9 c0       	rjmp	.+402    	; 0x3426 <_Z17handleLinkBusMsgsv+0x8c6>
				{
					strcpy(g_tempStr,lb_buff->fields[FIELD2]);
    3294:	b6 01       	movw	r22, r12
    3296:	69 5e       	subi	r22, 0xE9	; 233
    3298:	7f 4f       	sbci	r23, 0xFF	; 255
    329a:	c5 01       	movw	r24, r10
    329c:	0e 94 37 2a 	call	0x546e	; 0x546e <strcpy>
					int len = strlen(g_tempStr);
    32a0:	f5 01       	movw	r30, r10
    32a2:	01 90       	ld	r0, Z+
    32a4:	00 20       	and	r0, r0
    32a6:	e9 f7       	brne	.-6      	; 0x32a2 <_Z17handleLinkBusMsgsv+0x742>
    32a8:	31 97       	sbiw	r30, 0x01	; 1
    32aa:	e2 57       	subi	r30, 0x72	; 114
    32ac:	f5 40       	sbci	r31, 0x05	; 5

					if(len > 0)
    32ae:	1e 16       	cp	r1, r30
    32b0:	1f 06       	cpc	r1, r31
    32b2:	0c f0       	brlt	.+2      	; 0x32b6 <_Z17handleLinkBusMsgsv+0x756>
    32b4:	9e c0       	rjmp	.+316    	; 0x33f2 <_Z17handleLinkBusMsgsv+0x892>
					{
						if((len == 12) && (only_digits(g_tempStr)))
    32b6:	3c 97       	sbiw	r30, 0x0c	; 12
    32b8:	09 f0       	breq	.+2      	; 0x32bc <_Z17handleLinkBusMsgsv+0x75c>
    32ba:	92 c0       	rjmp	.+292    	; 0x33e0 <_Z17handleLinkBusMsgsv+0x880>
    32bc:	c5 01       	movw	r24, r10
    32be:	0e 94 d6 13 	call	0x27ac	; 0x27ac <_Z11only_digitsPc>
    32c2:	88 23       	and	r24, r24
    32c4:	09 f4       	brne	.+2      	; 0x32c8 <_Z17handleLinkBusMsgsv+0x768>
    32c6:	8c c0       	rjmp	.+280    	; 0x33e0 <_Z17handleLinkBusMsgsv+0x880>
						{
							time_t s;
							s = rv3028_get_epoch(NULL,g_tempStr);   /* String format "YYMMDDhhmmss" */
    32c8:	b5 01       	movw	r22, r10
    32ca:	80 e0       	ldi	r24, 0x00	; 0
    32cc:	90 e0       	ldi	r25, 0x00	; 0
    32ce:	0e 94 56 22 	call	0x44ac	; 0x44ac <_Z16rv3028_get_epochPbPc>

							if(s > g_current_epoch)
    32d2:	00 91 f2 05 	lds	r16, 0x05F2	; 0x8005f2 <g_current_epoch>
    32d6:	10 91 f3 05 	lds	r17, 0x05F3	; 0x8005f3 <g_current_epoch+0x1>
    32da:	20 91 f4 05 	lds	r18, 0x05F4	; 0x8005f4 <g_current_epoch+0x2>
    32de:	30 91 f5 05 	lds	r19, 0x05F5	; 0x8005f5 <g_current_epoch+0x3>
    32e2:	06 17       	cp	r16, r22
    32e4:	17 07       	cpc	r17, r23
    32e6:	28 07       	cpc	r18, r24
    32e8:	39 07       	cpc	r19, r25
    32ea:	08 f0       	brcs	.+2      	; 0x32ee <_Z17handleLinkBusMsgsv+0x78e>
    32ec:	70 c0       	rjmp	.+224    	; 0x33ce <_Z17handleLinkBusMsgsv+0x86e>
							{
								g_event_start_epoch = s;
    32ee:	60 93 ee 05 	sts	0x05EE, r22	; 0x8005ee <g_event_start_epoch>
    32f2:	70 93 ef 05 	sts	0x05EF, r23	; 0x8005ef <g_event_start_epoch+0x1>
    32f6:	80 93 f0 05 	sts	0x05F0, r24	; 0x8005f0 <g_event_start_epoch+0x2>
    32fa:	90 93 f1 05 	sts	0x05F1, r25	; 0x8005f1 <g_event_start_epoch+0x3>
								eeprom_update_dword(&ee_event_start_epoch,g_event_start_epoch);
    32fe:	40 91 ee 05 	lds	r20, 0x05EE	; 0x8005ee <g_event_start_epoch>
    3302:	50 91 ef 05 	lds	r21, 0x05EF	; 0x8005ef <g_event_start_epoch+0x1>
    3306:	60 91 f0 05 	lds	r22, 0x05F0	; 0x8005f0 <g_event_start_epoch+0x2>
    330a:	70 91 f1 05 	lds	r23, 0x05F1	; 0x8005f1 <g_event_start_epoch+0x3>
    330e:	8c e9       	ldi	r24, 0x9C	; 156
    3310:	91 e0       	ldi	r25, 0x01	; 1
    3312:	0e 94 43 2d 	call	0x5a86	; 0x5a86 <eeprom_update_dword>
								g_event_finish_epoch = MAX(g_event_finish_epoch,(g_event_start_epoch + SECONDS_24H));
    3316:	80 91 ea 05 	lds	r24, 0x05EA	; 0x8005ea <g_event_finish_epoch>
    331a:	90 91 eb 05 	lds	r25, 0x05EB	; 0x8005eb <g_event_finish_epoch+0x1>
    331e:	a0 91 ec 05 	lds	r26, 0x05EC	; 0x8005ec <g_event_finish_epoch+0x2>
    3322:	b0 91 ed 05 	lds	r27, 0x05ED	; 0x8005ed <g_event_finish_epoch+0x3>
    3326:	8d 83       	std	Y+5, r24	; 0x05
    3328:	9e 83       	std	Y+6, r25	; 0x06
    332a:	af 83       	std	Y+7, r26	; 0x07
    332c:	b8 87       	std	Y+8, r27	; 0x08
    332e:	80 91 ee 05 	lds	r24, 0x05EE	; 0x8005ee <g_event_start_epoch>
    3332:	90 91 ef 05 	lds	r25, 0x05EF	; 0x8005ef <g_event_start_epoch+0x1>
    3336:	a0 91 f0 05 	lds	r26, 0x05F0	; 0x8005f0 <g_event_start_epoch+0x2>
    333a:	b0 91 f1 05 	lds	r27, 0x05F1	; 0x8005f1 <g_event_start_epoch+0x3>
    333e:	80 58       	subi	r24, 0x80	; 128
    3340:	9e 4a       	sbci	r25, 0xAE	; 174
    3342:	ae 4f       	sbci	r26, 0xFE	; 254
    3344:	bf 4f       	sbci	r27, 0xFF	; 255
    3346:	89 83       	std	Y+1, r24	; 0x01
    3348:	9a 83       	std	Y+2, r25	; 0x02
    334a:	ab 83       	std	Y+3, r26	; 0x03
    334c:	bc 83       	std	Y+4, r27	; 0x04
    334e:	4d 81       	ldd	r20, Y+5	; 0x05
    3350:	5e 81       	ldd	r21, Y+6	; 0x06
    3352:	6f 81       	ldd	r22, Y+7	; 0x07
    3354:	78 85       	ldd	r23, Y+8	; 0x08
    3356:	48 17       	cp	r20, r24
    3358:	59 07       	cpc	r21, r25
    335a:	6a 07       	cpc	r22, r26
    335c:	7b 07       	cpc	r23, r27
    335e:	28 f4       	brcc	.+10     	; 0x336a <_Z17handleLinkBusMsgsv+0x80a>
    3360:	89 81       	ldd	r24, Y+1	; 0x01
    3362:	9a 81       	ldd	r25, Y+2	; 0x02
    3364:	ab 81       	ldd	r26, Y+3	; 0x03
    3366:	bc 81       	ldd	r27, Y+4	; 0x04
    3368:	04 c0       	rjmp	.+8      	; 0x3372 <_Z17handleLinkBusMsgsv+0x812>
    336a:	8d 81       	ldd	r24, Y+5	; 0x05
    336c:	9e 81       	ldd	r25, Y+6	; 0x06
    336e:	af 81       	ldd	r26, Y+7	; 0x07
    3370:	b8 85       	ldd	r27, Y+8	; 0x08
    3372:	80 93 ea 05 	sts	0x05EA, r24	; 0x8005ea <g_event_finish_epoch>
    3376:	90 93 eb 05 	sts	0x05EB, r25	; 0x8005eb <g_event_finish_epoch+0x1>
    337a:	a0 93 ec 05 	sts	0x05EC, r26	; 0x8005ec <g_event_finish_epoch+0x2>
    337e:	b0 93 ed 05 	sts	0x05ED, r27	; 0x8005ed <g_event_finish_epoch+0x3>
								eeprom_update_dword(&ee_event_finish_epoch,g_event_finish_epoch);
    3382:	40 91 ea 05 	lds	r20, 0x05EA	; 0x8005ea <g_event_finish_epoch>
    3386:	50 91 eb 05 	lds	r21, 0x05EB	; 0x8005eb <g_event_finish_epoch+0x1>
    338a:	60 91 ec 05 	lds	r22, 0x05EC	; 0x8005ec <g_event_finish_epoch+0x2>
    338e:	70 91 ed 05 	lds	r23, 0x05ED	; 0x8005ed <g_event_finish_epoch+0x3>
    3392:	88 e9       	ldi	r24, 0x98	; 152
    3394:	91 e0       	ldi	r25, 0x01	; 1
    3396:	0e 94 43 2d 	call	0x5a86	; 0x5a86 <eeprom_update_dword>
								sprintf(g_tempStr,"UNIX Start:%lu\n",g_event_start_epoch);
    339a:	80 91 ee 05 	lds	r24, 0x05EE	; 0x8005ee <g_event_start_epoch>
    339e:	90 91 ef 05 	lds	r25, 0x05EF	; 0x8005ef <g_event_start_epoch+0x1>
    33a2:	a0 91 f0 05 	lds	r26, 0x05F0	; 0x8005f0 <g_event_start_epoch+0x2>
    33a6:	b0 91 f1 05 	lds	r27, 0x05F1	; 0x8005f1 <g_event_start_epoch+0x3>
    33aa:	bf 93       	push	r27
    33ac:	af 93       	push	r26
    33ae:	9f 93       	push	r25
    33b0:	8f 93       	push	r24
    33b2:	83 e0       	ldi	r24, 0x03	; 3
    33b4:	92 e0       	ldi	r25, 0x02	; 2
    33b6:	9f 93       	push	r25
    33b8:	8f 93       	push	r24
    33ba:	bf 92       	push	r11
    33bc:	af 92       	push	r10
    33be:	0e 94 6a 2a 	call	0x54d4	; 0x54d4 <sprintf>
    33c2:	0f b6       	in	r0, 0x3f	; 63
    33c4:	f8 94       	cli
    33c6:	de bf       	out	0x3e, r29	; 62
    33c8:	0f be       	out	0x3f, r0	; 63
    33ca:	cd bf       	out	0x3d, r28	; 61
    33cc:	d1 c1       	rjmp	.+930    	; 0x3770 <_Z17handleLinkBusMsgsv+0xc10>
							}
							else
							{
								sprintf(g_tempStr,"Err: Start in past!\n");
    33ce:	85 e1       	ldi	r24, 0x15	; 21
    33d0:	e3 e1       	ldi	r30, 0x13	; 19
    33d2:	f2 e0       	ldi	r31, 0x02	; 2
    33d4:	d5 01       	movw	r26, r10
    33d6:	01 90       	ld	r0, Z+
    33d8:	0d 92       	st	X+, r0
    33da:	8a 95       	dec	r24
    33dc:	e1 f7       	brne	.-8      	; 0x33d6 <_Z17handleLinkBusMsgsv+0x876>
    33de:	c8 c1       	rjmp	.+912    	; 0x3770 <_Z17handleLinkBusMsgsv+0xc10>
							}
						}
						else
						{
							sprintf(g_tempStr,"Err: Invalid time!\n");
    33e0:	84 e1       	ldi	r24, 0x14	; 20
    33e2:	e0 ee       	ldi	r30, 0xE0	; 224
    33e4:	f1 e0       	ldi	r31, 0x01	; 1
    33e6:	d5 01       	movw	r26, r10
    33e8:	01 90       	ld	r0, Z+
    33ea:	0d 92       	st	X+, r0
    33ec:	8a 95       	dec	r24
    33ee:	e1 f7       	brne	.-8      	; 0x33e8 <_Z17handleLinkBusMsgsv+0x888>
    33f0:	bf c1       	rjmp	.+894    	; 0x3770 <_Z17handleLinkBusMsgsv+0xc10>
						}
					}
					else
					{
						sprintf(g_tempStr,"Start:%lu\n",g_event_start_epoch);
    33f2:	80 91 ee 05 	lds	r24, 0x05EE	; 0x8005ee <g_event_start_epoch>
    33f6:	90 91 ef 05 	lds	r25, 0x05EF	; 0x8005ef <g_event_start_epoch+0x1>
    33fa:	a0 91 f0 05 	lds	r26, 0x05F0	; 0x8005f0 <g_event_start_epoch+0x2>
    33fe:	b0 91 f1 05 	lds	r27, 0x05F1	; 0x8005f1 <g_event_start_epoch+0x3>
    3402:	bf 93       	push	r27
    3404:	af 93       	push	r26
    3406:	9f 93       	push	r25
    3408:	8f 93       	push	r24
    340a:	88 e0       	ldi	r24, 0x08	; 8
    340c:	92 e0       	ldi	r25, 0x02	; 2
    340e:	9f 93       	push	r25
    3410:	8f 93       	push	r24
    3412:	bf 92       	push	r11
    3414:	af 92       	push	r10
    3416:	0e 94 6a 2a 	call	0x54d4	; 0x54d4 <sprintf>
    341a:	0f b6       	in	r0, 0x3f	; 63
    341c:	f8 94       	cli
    341e:	de bf       	out	0x3e, r29	; 62
    3420:	0f be       	out	0x3f, r0	; 63
    3422:	cd bf       	out	0x3d, r28	; 61
    3424:	a5 c1       	rjmp	.+842    	; 0x3770 <_Z17handleLinkBusMsgsv+0xc10>
					}

					doprint = true;
				}
				else if(lb_buff->fields[FIELD1][0] == 'F')  /* Event finish time */
    3426:	86 34       	cpi	r24, 0x46	; 70
    3428:	09 f0       	breq	.+2      	; 0x342c <_Z17handleLinkBusMsgsv+0x8cc>
    342a:	b4 c0       	rjmp	.+360    	; 0x3594 <_Z17handleLinkBusMsgsv+0xa34>
				{
					strcpy(g_tempStr,lb_buff->fields[FIELD2]);
    342c:	b6 01       	movw	r22, r12
    342e:	69 5e       	subi	r22, 0xE9	; 233
    3430:	7f 4f       	sbci	r23, 0xFF	; 255
    3432:	c5 01       	movw	r24, r10
    3434:	0e 94 37 2a 	call	0x546e	; 0x546e <strcpy>
					int len = strlen(g_tempStr);
    3438:	f5 01       	movw	r30, r10
    343a:	01 90       	ld	r0, Z+
    343c:	00 20       	and	r0, r0
    343e:	e9 f7       	brne	.-6      	; 0x343a <_Z17handleLinkBusMsgsv+0x8da>
    3440:	31 97       	sbiw	r30, 0x01	; 1
    3442:	e2 57       	subi	r30, 0x72	; 114
    3444:	f5 40       	sbci	r31, 0x05	; 5

					if(len > 0)
    3446:	1e 16       	cp	r1, r30
    3448:	1f 06       	cpc	r1, r31
    344a:	0c f0       	brlt	.+2      	; 0x344e <_Z17handleLinkBusMsgsv+0x8ee>
    344c:	89 c0       	rjmp	.+274    	; 0x3560 <_Z17handleLinkBusMsgsv+0xa00>
					{
						if((len == 12) && (only_digits(g_tempStr)))
    344e:	3c 97       	sbiw	r30, 0x0c	; 12
    3450:	09 f0       	breq	.+2      	; 0x3454 <_Z17handleLinkBusMsgsv+0x8f4>
    3452:	7d c0       	rjmp	.+250    	; 0x354e <_Z17handleLinkBusMsgsv+0x9ee>
    3454:	c5 01       	movw	r24, r10
    3456:	0e 94 d6 13 	call	0x27ac	; 0x27ac <_Z11only_digitsPc>
    345a:	88 23       	and	r24, r24
    345c:	09 f4       	brne	.+2      	; 0x3460 <_Z17handleLinkBusMsgsv+0x900>
    345e:	77 c0       	rjmp	.+238    	; 0x354e <_Z17handleLinkBusMsgsv+0x9ee>
						{
							time_t f;
							f = rv3028_get_epoch(NULL,g_tempStr);   /* String format "YYMMDDhhmmss" */
    3460:	b5 01       	movw	r22, r10
    3462:	80 e0       	ldi	r24, 0x00	; 0
    3464:	90 e0       	ldi	r25, 0x00	; 0
    3466:	0e 94 56 22 	call	0x44ac	; 0x44ac <_Z16rv3028_get_epochPbPc>

							if(f > g_current_epoch)
    346a:	00 91 f2 05 	lds	r16, 0x05F2	; 0x8005f2 <g_current_epoch>
    346e:	10 91 f3 05 	lds	r17, 0x05F3	; 0x8005f3 <g_current_epoch+0x1>
    3472:	20 91 f4 05 	lds	r18, 0x05F4	; 0x8005f4 <g_current_epoch+0x2>
    3476:	30 91 f5 05 	lds	r19, 0x05F5	; 0x8005f5 <g_current_epoch+0x3>
    347a:	06 17       	cp	r16, r22
    347c:	17 07       	cpc	r17, r23
    347e:	28 07       	cpc	r18, r24
    3480:	39 07       	cpc	r19, r25
    3482:	08 f0       	brcs	.+2      	; 0x3486 <_Z17handleLinkBusMsgsv+0x926>
    3484:	5b c0       	rjmp	.+182    	; 0x353c <_Z17handleLinkBusMsgsv+0x9dc>
							{
								if(f > g_event_start_epoch)
    3486:	00 91 ee 05 	lds	r16, 0x05EE	; 0x8005ee <g_event_start_epoch>
    348a:	10 91 ef 05 	lds	r17, 0x05EF	; 0x8005ef <g_event_start_epoch+0x1>
    348e:	20 91 f0 05 	lds	r18, 0x05F0	; 0x8005f0 <g_event_start_epoch+0x2>
    3492:	30 91 f1 05 	lds	r19, 0x05F1	; 0x8005f1 <g_event_start_epoch+0x3>
    3496:	06 17       	cp	r16, r22
    3498:	17 07       	cpc	r17, r23
    349a:	28 07       	cpc	r18, r24
    349c:	39 07       	cpc	r19, r25
    349e:	08 f0       	brcs	.+2      	; 0x34a2 <_Z17handleLinkBusMsgsv+0x942>
    34a0:	44 c0       	rjmp	.+136    	; 0x352a <_Z17handleLinkBusMsgsv+0x9ca>
								{
									g_event_finish_epoch = f;
    34a2:	60 93 ea 05 	sts	0x05EA, r22	; 0x8005ea <g_event_finish_epoch>
    34a6:	70 93 eb 05 	sts	0x05EB, r23	; 0x8005eb <g_event_finish_epoch+0x1>
    34aa:	80 93 ec 05 	sts	0x05EC, r24	; 0x8005ec <g_event_finish_epoch+0x2>
    34ae:	90 93 ed 05 	sts	0x05ED, r25	; 0x8005ed <g_event_finish_epoch+0x3>
									eeprom_update_dword(&ee_event_finish_epoch,g_event_finish_epoch);
    34b2:	40 91 ea 05 	lds	r20, 0x05EA	; 0x8005ea <g_event_finish_epoch>
    34b6:	50 91 eb 05 	lds	r21, 0x05EB	; 0x8005eb <g_event_finish_epoch+0x1>
    34ba:	60 91 ec 05 	lds	r22, 0x05EC	; 0x8005ec <g_event_finish_epoch+0x2>
    34be:	70 91 ed 05 	lds	r23, 0x05ED	; 0x8005ed <g_event_finish_epoch+0x3>
    34c2:	88 e9       	ldi	r24, 0x98	; 152
    34c4:	91 e0       	ldi	r25, 0x01	; 1
    34c6:	0e 94 43 2d 	call	0x5a86	; 0x5a86 <eeprom_update_dword>
									reportTimeTill(g_event_start_epoch,g_event_finish_epoch,"Lasts: ",NULL);
    34ca:	20 91 ea 05 	lds	r18, 0x05EA	; 0x8005ea <g_event_finish_epoch>
    34ce:	30 91 eb 05 	lds	r19, 0x05EB	; 0x8005eb <g_event_finish_epoch+0x1>
    34d2:	40 91 ec 05 	lds	r20, 0x05EC	; 0x8005ec <g_event_finish_epoch+0x2>
    34d6:	50 91 ed 05 	lds	r21, 0x05ED	; 0x8005ed <g_event_finish_epoch+0x3>
    34da:	60 91 ee 05 	lds	r22, 0x05EE	; 0x8005ee <g_event_start_epoch>
    34de:	70 91 ef 05 	lds	r23, 0x05EF	; 0x8005ef <g_event_start_epoch+0x1>
    34e2:	80 91 f0 05 	lds	r24, 0x05F0	; 0x8005f0 <g_event_start_epoch+0x2>
    34e6:	90 91 f1 05 	lds	r25, 0x05F1	; 0x8005f1 <g_event_start_epoch+0x3>
    34ea:	e1 2c       	mov	r14, r1
    34ec:	f1 2c       	mov	r15, r1
    34ee:	0f e9       	ldi	r16, 0x9F	; 159
    34f0:	11 e0       	ldi	r17, 0x01	; 1
    34f2:	0e 94 6b 14 	call	0x28d6	; 0x28d6 <_Z14reportTimeTillmmPKcS0_>
									sprintf(g_tempStr,"UNIX Finish:%lu\n",g_event_finish_epoch);
    34f6:	80 91 ea 05 	lds	r24, 0x05EA	; 0x8005ea <g_event_finish_epoch>
    34fa:	90 91 eb 05 	lds	r25, 0x05EB	; 0x8005eb <g_event_finish_epoch+0x1>
    34fe:	a0 91 ec 05 	lds	r26, 0x05EC	; 0x8005ec <g_event_finish_epoch+0x2>
    3502:	b0 91 ed 05 	lds	r27, 0x05ED	; 0x8005ed <g_event_finish_epoch+0x3>
    3506:	bf 93       	push	r27
    3508:	af 93       	push	r26
    350a:	9f 93       	push	r25
    350c:	8f 93       	push	r24
    350e:	88 e2       	ldi	r24, 0x28	; 40
    3510:	92 e0       	ldi	r25, 0x02	; 2
    3512:	9f 93       	push	r25
    3514:	8f 93       	push	r24
    3516:	bf 92       	push	r11
    3518:	af 92       	push	r10
    351a:	0e 94 6a 2a 	call	0x54d4	; 0x54d4 <sprintf>
    351e:	0f b6       	in	r0, 0x3f	; 63
    3520:	f8 94       	cli
    3522:	de bf       	out	0x3e, r29	; 62
    3524:	0f be       	out	0x3f, r0	; 63
    3526:	cd bf       	out	0x3d, r28	; 61
    3528:	23 c1       	rjmp	.+582    	; 0x3770 <_Z17handleLinkBusMsgsv+0xc10>
								}
								else
								{
									sprintf(g_tempStr,"Err: Finish before start!\n");
    352a:	8b e1       	ldi	r24, 0x1B	; 27
    352c:	e9 e3       	ldi	r30, 0x39	; 57
    352e:	f2 e0       	ldi	r31, 0x02	; 2
    3530:	d5 01       	movw	r26, r10
    3532:	01 90       	ld	r0, Z+
    3534:	0d 92       	st	X+, r0
    3536:	8a 95       	dec	r24
    3538:	e1 f7       	brne	.-8      	; 0x3532 <_Z17handleLinkBusMsgsv+0x9d2>
    353a:	1a c1       	rjmp	.+564    	; 0x3770 <_Z17handleLinkBusMsgsv+0xc10>
								}
							}
							else
							{
								sprintf(g_tempStr,"Err: Finish in past!\n");
    353c:	86 e1       	ldi	r24, 0x16	; 22
    353e:	e4 e5       	ldi	r30, 0x54	; 84
    3540:	f2 e0       	ldi	r31, 0x02	; 2
    3542:	d5 01       	movw	r26, r10
    3544:	01 90       	ld	r0, Z+
    3546:	0d 92       	st	X+, r0
    3548:	8a 95       	dec	r24
    354a:	e1 f7       	brne	.-8      	; 0x3544 <_Z17handleLinkBusMsgsv+0x9e4>
    354c:	11 c1       	rjmp	.+546    	; 0x3770 <_Z17handleLinkBusMsgsv+0xc10>
							}
						}
						else
						{
							sprintf(g_tempStr,"Err: Invalid time!\n");
    354e:	84 e1       	ldi	r24, 0x14	; 20
    3550:	e0 ee       	ldi	r30, 0xE0	; 224
    3552:	f1 e0       	ldi	r31, 0x01	; 1
    3554:	d5 01       	movw	r26, r10
    3556:	01 90       	ld	r0, Z+
    3558:	0d 92       	st	X+, r0
    355a:	8a 95       	dec	r24
    355c:	e1 f7       	brne	.-8      	; 0x3556 <_Z17handleLinkBusMsgsv+0x9f6>
    355e:	08 c1       	rjmp	.+528    	; 0x3770 <_Z17handleLinkBusMsgsv+0xc10>
						}
					}
					else
					{
						sprintf(g_tempStr,"Finish:%lu\n",g_event_finish_epoch);
    3560:	80 91 ea 05 	lds	r24, 0x05EA	; 0x8005ea <g_event_finish_epoch>
    3564:	90 91 eb 05 	lds	r25, 0x05EB	; 0x8005eb <g_event_finish_epoch+0x1>
    3568:	a0 91 ec 05 	lds	r26, 0x05EC	; 0x8005ec <g_event_finish_epoch+0x2>
    356c:	b0 91 ed 05 	lds	r27, 0x05ED	; 0x8005ed <g_event_finish_epoch+0x3>
    3570:	bf 93       	push	r27
    3572:	af 93       	push	r26
    3574:	9f 93       	push	r25
    3576:	8f 93       	push	r24
    3578:	8d e2       	ldi	r24, 0x2D	; 45
    357a:	92 e0       	ldi	r25, 0x02	; 2
    357c:	9f 93       	push	r25
    357e:	8f 93       	push	r24
    3580:	bf 92       	push	r11
    3582:	af 92       	push	r10
    3584:	0e 94 6a 2a 	call	0x54d4	; 0x54d4 <sprintf>
    3588:	0f b6       	in	r0, 0x3f	; 63
    358a:	f8 94       	cli
    358c:	de bf       	out	0x3e, r29	; 62
    358e:	0f be       	out	0x3f, r0	; 63
    3590:	cd bf       	out	0x3d, r28	; 61
    3592:	ee c0       	rjmp	.+476    	; 0x3770 <_Z17handleLinkBusMsgsv+0xc10>
					}

					doprint = true;
				}
				else if(lb_buff->fields[FIELD1][0] == 'C')  /* Test only - Set RTC offset value */
    3594:	83 34       	cpi	r24, 0x43	; 67
    3596:	09 f5       	brne	.+66     	; 0x35da <_Z17handleLinkBusMsgsv+0xa7a>
				{
					if(lb_buff->fields[FIELD2][0])
    3598:	f6 01       	movw	r30, r12
    359a:	87 89       	ldd	r24, Z+23	; 0x17
    359c:	88 23       	and	r24, r24
    359e:	51 f0       	breq	.+20     	; 0x35b4 <_Z17handleLinkBusMsgsv+0xa54>
					{
						uint16_t c = (uint16_t)atoi(lb_buff->fields[FIELD2]);
    35a0:	c6 01       	movw	r24, r12
    35a2:	47 96       	adiw	r24, 0x17	; 23
    35a4:	0e 94 df 29 	call	0x53be	; 0x53be <atoi>

						if(c < 512)
    35a8:	81 15       	cp	r24, r1
    35aa:	f2 e0       	ldi	r31, 0x02	; 2
    35ac:	9f 07       	cpc	r25, r31
    35ae:	10 f4       	brcc	.+4      	; 0x35b4 <_Z17handleLinkBusMsgsv+0xa54>
						{
							rv3028_set_offset_RAM(c);
    35b0:	0e 94 d5 23 	call	0x47aa	; 0x47aa <_Z21rv3028_set_offset_RAMj>
						}
					}

					int a = rv3028_get_offset_RAM();
    35b4:	0e 94 bb 23 	call	0x4776	; 0x4776 <_Z21rv3028_get_offset_RAMv>
					sprintf(g_tempStr,"C=%d\n",a);
    35b8:	9f 93       	push	r25
    35ba:	8f 93       	push	r24
    35bc:	8a e6       	ldi	r24, 0x6A	; 106
    35be:	92 e0       	ldi	r25, 0x02	; 2
    35c0:	9f 93       	push	r25
    35c2:	8f 93       	push	r24
    35c4:	bf 92       	push	r11
    35c6:	af 92       	push	r10
    35c8:	0e 94 6a 2a 	call	0x54d4	; 0x54d4 <sprintf>
    35cc:	0f 90       	pop	r0
    35ce:	0f 90       	pop	r0
    35d0:	0f 90       	pop	r0
    35d2:	0f 90       	pop	r0
    35d4:	0f 90       	pop	r0
    35d6:	0f 90       	pop	r0
    35d8:	cb c0       	rjmp	.+406    	; 0x3770 <_Z17handleLinkBusMsgsv+0xc10>
					doprint = true;
				}
				else if(lb_buff->fields[FIELD1][0] == 'X')  /* Test only - Send 32 kHz square wave out of RTC */
    35da:	88 35       	cpi	r24, 0x58	; 88
    35dc:	21 f4       	brne	.+8      	; 0x35e6 <_Z17handleLinkBusMsgsv+0xa86>
				{
					EIMSK &= ~(1 << INT0);                  /* Disable INT0 interrupts */
    35de:	e8 98       	cbi	0x1d, 0	; 29
					rv3028_32kHz_sqw();
    35e0:	0e 94 f9 24 	call	0x49f2	; 0x49f2 <_Z16rv3028_32kHz_sqwv>
    35e4:	b2 c0       	rjmp	.+356    	; 0x374a <_Z17handleLinkBusMsgsv+0xbea>
				}
				else
				{
					if(clockConfigurationError())
    35e6:	0e 94 ce 09 	call	0x139c	; 0x139c <_Z23clockConfigurationErrorv>
    35ea:	88 23       	and	r24, r24
    35ec:	19 f0       	breq	.+6      	; 0x35f4 <_Z17handleLinkBusMsgsv+0xa94>
					{
						reportClockConfigErrors();
    35ee:	0e 94 27 14 	call	0x284e	; 0x284e <_Z23reportClockConfigErrorsv>
    35f2:	ab c0       	rjmp	.+342    	; 0x374a <_Z17handleLinkBusMsgsv+0xbea>
					}
					else
					{
						reportTimeTill(g_current_epoch,g_event_start_epoch,"Starts in: ","In progress\n");
    35f4:	20 91 ee 05 	lds	r18, 0x05EE	; 0x8005ee <g_event_start_epoch>
    35f8:	30 91 ef 05 	lds	r19, 0x05EF	; 0x8005ef <g_event_start_epoch+0x1>
    35fc:	40 91 f0 05 	lds	r20, 0x05F0	; 0x8005f0 <g_event_start_epoch+0x2>
    3600:	50 91 f1 05 	lds	r21, 0x05F1	; 0x8005f1 <g_event_start_epoch+0x3>
    3604:	60 91 f2 05 	lds	r22, 0x05F2	; 0x8005f2 <g_current_epoch>
    3608:	70 91 f3 05 	lds	r23, 0x05F3	; 0x8005f3 <g_current_epoch+0x1>
    360c:	80 91 f4 05 	lds	r24, 0x05F4	; 0x8005f4 <g_current_epoch+0x2>
    3610:	90 91 f5 05 	lds	r25, 0x05F5	; 0x8005f5 <g_current_epoch+0x3>
    3614:	0f 2e       	mov	r0, r31
    3616:	f6 e8       	ldi	r31, 0x86	; 134
    3618:	ef 2e       	mov	r14, r31
    361a:	f1 e0       	ldi	r31, 0x01	; 1
    361c:	ff 2e       	mov	r15, r31
    361e:	f0 2d       	mov	r31, r0
    3620:	03 e9       	ldi	r16, 0x93	; 147
    3622:	11 e0       	ldi	r17, 0x01	; 1
    3624:	0e 94 6b 14 	call	0x28d6	; 0x28d6 <_Z14reportTimeTillmmPKcS0_>
						reportTimeTill(g_event_start_epoch,g_event_finish_epoch,"Lasts: ",NULL);
    3628:	20 91 ea 05 	lds	r18, 0x05EA	; 0x8005ea <g_event_finish_epoch>
    362c:	30 91 eb 05 	lds	r19, 0x05EB	; 0x8005eb <g_event_finish_epoch+0x1>
    3630:	40 91 ec 05 	lds	r20, 0x05EC	; 0x8005ec <g_event_finish_epoch+0x2>
    3634:	50 91 ed 05 	lds	r21, 0x05ED	; 0x8005ed <g_event_finish_epoch+0x3>
    3638:	60 91 ee 05 	lds	r22, 0x05EE	; 0x8005ee <g_event_start_epoch>
    363c:	70 91 ef 05 	lds	r23, 0x05EF	; 0x8005ef <g_event_start_epoch+0x1>
    3640:	80 91 f0 05 	lds	r24, 0x05F0	; 0x8005f0 <g_event_start_epoch+0x2>
    3644:	90 91 f1 05 	lds	r25, 0x05F1	; 0x8005f1 <g_event_start_epoch+0x3>
    3648:	e1 2c       	mov	r14, r1
    364a:	f1 2c       	mov	r15, r1
    364c:	0f e9       	ldi	r16, 0x9F	; 159
    364e:	11 e0       	ldi	r17, 0x01	; 1
    3650:	0e 94 6b 14 	call	0x28d6	; 0x28d6 <_Z14reportTimeTillmmPKcS0_>
						if(g_event_start_epoch < g_current_epoch)
    3654:	40 91 ee 05 	lds	r20, 0x05EE	; 0x8005ee <g_event_start_epoch>
    3658:	50 91 ef 05 	lds	r21, 0x05EF	; 0x8005ef <g_event_start_epoch+0x1>
    365c:	60 91 f0 05 	lds	r22, 0x05F0	; 0x8005f0 <g_event_start_epoch+0x2>
    3660:	70 91 f1 05 	lds	r23, 0x05F1	; 0x8005f1 <g_event_start_epoch+0x3>
    3664:	80 91 f2 05 	lds	r24, 0x05F2	; 0x8005f2 <g_current_epoch>
    3668:	90 91 f3 05 	lds	r25, 0x05F3	; 0x8005f3 <g_current_epoch+0x1>
    366c:	a0 91 f4 05 	lds	r26, 0x05F4	; 0x8005f4 <g_current_epoch+0x2>
    3670:	b0 91 f5 05 	lds	r27, 0x05F5	; 0x8005f5 <g_current_epoch+0x3>
    3674:	48 17       	cp	r20, r24
    3676:	59 07       	cpc	r21, r25
    3678:	6a 07       	cpc	r22, r26
    367a:	7b 07       	cpc	r23, r27
    367c:	08 f0       	brcs	.+2      	; 0x3680 <_Z17handleLinkBusMsgsv+0xb20>
    367e:	65 c0       	rjmp	.+202    	; 0x374a <_Z17handleLinkBusMsgsv+0xbea>
						{
							reportTimeTill(g_current_epoch,g_event_finish_epoch,"Time Remaining: ",NULL);
    3680:	20 91 ea 05 	lds	r18, 0x05EA	; 0x8005ea <g_event_finish_epoch>
    3684:	30 91 eb 05 	lds	r19, 0x05EB	; 0x8005eb <g_event_finish_epoch+0x1>
    3688:	40 91 ec 05 	lds	r20, 0x05EC	; 0x8005ec <g_event_finish_epoch+0x2>
    368c:	50 91 ed 05 	lds	r21, 0x05ED	; 0x8005ed <g_event_finish_epoch+0x3>
    3690:	60 91 f2 05 	lds	r22, 0x05F2	; 0x8005f2 <g_current_epoch>
    3694:	70 91 f3 05 	lds	r23, 0x05F3	; 0x8005f3 <g_current_epoch+0x1>
    3698:	80 91 f4 05 	lds	r24, 0x05F4	; 0x8005f4 <g_current_epoch+0x2>
    369c:	90 91 f5 05 	lds	r25, 0x05F5	; 0x8005f5 <g_current_epoch+0x3>
    36a0:	07 ea       	ldi	r16, 0xA7	; 167
    36a2:	11 e0       	ldi	r17, 0x01	; 1
    36a4:	0e 94 6b 14 	call	0x28d6	; 0x28d6 <_Z14reportTimeTillmmPKcS0_>
    36a8:	50 c0       	rjmp	.+160    	; 0x374a <_Z17handleLinkBusMsgsv+0xbea>
			}
			break;

			case MESSAGE_TEMP:
			{
				if(lb_buff->fields[FIELD1][0] == 'C')
    36aa:	f6 01       	movw	r30, r12
    36ac:	83 81       	ldd	r24, Z+3	; 0x03
    36ae:	83 34       	cpi	r24, 0x43	; 67
    36b0:	89 f5       	brne	.+98     	; 0x3714 <_Z17handleLinkBusMsgsv+0xbb4>
				{
					if(lb_buff->fields[FIELD2][0])
    36b2:	87 89       	ldd	r24, Z+23	; 0x17
    36b4:	88 23       	and	r24, r24
    36b6:	b1 f0       	breq	.+44     	; 0x36e4 <_Z17handleLinkBusMsgsv+0xb84>
					{
						int16_t v = atoi(lb_buff->fields[FIELD2]);
    36b8:	c6 01       	movw	r24, r12
    36ba:	47 96       	adiw	r24, 0x17	; 23
    36bc:	0e 94 df 29 	call	0x53be	; 0x53be <atoi>

						if((v > -2000) && (v < 2000))
    36c0:	9c 01       	movw	r18, r24
    36c2:	21 53       	subi	r18, 0x31	; 49
    36c4:	38 4f       	sbci	r19, 0xF8	; 248
    36c6:	2f 39       	cpi	r18, 0x9F	; 159
    36c8:	3f 40       	sbci	r19, 0x0F	; 15
    36ca:	60 f4       	brcc	.+24     	; 0x36e4 <_Z17handleLinkBusMsgsv+0xb84>
						{
							g_temp_calibration = v;
    36cc:	90 93 16 01 	sts	0x0116, r25	; 0x800116 <_ZL18g_temp_calibration+0x1>
    36d0:	80 93 15 01 	sts	0x0115, r24	; 0x800115 <_ZL18g_temp_calibration>
							eeprom_update_word((uint16_t*)&ee_temp_calibration,(int16_t)g_temp_calibration);
    36d4:	60 91 15 01 	lds	r22, 0x0115	; 0x800115 <_ZL18g_temp_calibration>
    36d8:	70 91 16 01 	lds	r23, 0x0116	; 0x800116 <_ZL18g_temp_calibration+0x1>
    36dc:	84 ea       	ldi	r24, 0xA4	; 164
    36de:	91 e0       	ldi	r25, 0x01	; 1
    36e0:	0e 94 4f 2d 	call	0x5a9e	; 0x5a9e <eeprom_update_word>
						}
					}

					sprintf(g_tempStr,"T Cal= %d\n",g_temp_calibration);
    36e4:	80 91 15 01 	lds	r24, 0x0115	; 0x800115 <_ZL18g_temp_calibration>
    36e8:	90 91 16 01 	lds	r25, 0x0116	; 0x800116 <_ZL18g_temp_calibration+0x1>
    36ec:	9f 93       	push	r25
    36ee:	8f 93       	push	r24
    36f0:	20 e7       	ldi	r18, 0x70	; 112
    36f2:	32 e0       	ldi	r19, 0x02	; 2
    36f4:	3f 93       	push	r19
    36f6:	2f 93       	push	r18
    36f8:	bf 92       	push	r11
    36fa:	af 92       	push	r10
    36fc:	0e 94 6a 2a 	call	0x54d4	; 0x54d4 <sprintf>
					lb_send_string(g_tempStr,FALSE);
    3700:	60 e0       	ldi	r22, 0x00	; 0
    3702:	c5 01       	movw	r24, r10
    3704:	0e 94 30 07 	call	0xe60	; 0xe60 <_Z14lb_send_stringPch>
    3708:	0f 90       	pop	r0
    370a:	0f 90       	pop	r0
    370c:	0f 90       	pop	r0
    370e:	0f 90       	pop	r0
    3710:	0f 90       	pop	r0
    3712:	0f 90       	pop	r0
				}

				sprintf(g_tempStr,"T=%d\n",g_temperature);
    3714:	80 91 d7 05 	lds	r24, 0x05D7	; 0x8005d7 <g_temperature>
    3718:	28 2f       	mov	r18, r24
    371a:	08 2e       	mov	r0, r24
    371c:	00 0c       	add	r0, r0
    371e:	33 0b       	sbc	r19, r19
    3720:	3f 93       	push	r19
    3722:	8f 93       	push	r24
    3724:	9f 92       	push	r9
    3726:	8f 92       	push	r8
    3728:	bf 92       	push	r11
    372a:	af 92       	push	r10
    372c:	0e 94 6a 2a 	call	0x54d4	; 0x54d4 <sprintf>
				lb_send_string(g_tempStr,TRUE);
    3730:	61 e0       	ldi	r22, 0x01	; 1
    3732:	c5 01       	movw	r24, r10
    3734:	0e 94 30 07 	call	0xe60	; 0xe60 <_Z14lb_send_stringPch>
			}
			break;
    3738:	0f 90       	pop	r0
    373a:	0f 90       	pop	r0
    373c:	0f 90       	pop	r0
    373e:	0f 90       	pop	r0
    3740:	0f 90       	pop	r0
    3742:	0f 90       	pop	r0
    3744:	02 c0       	rjmp	.+4      	; 0x374a <_Z17handleLinkBusMsgsv+0xbea>

			default:
			{
				lb_send_Help();
    3746:	0e 94 5b 07 	call	0xeb6	; 0xeb6 <_Z12lb_send_Helpv>
			}
			break;
		}

		lb_buff->id = (LBMessageID)MESSAGE_EMPTY;
    374a:	f6 01       	movw	r30, r12
    374c:	12 82       	std	Z+2, r1	; 0x02
    374e:	11 82       	std	Z+1, r1	; 0x01
		if(send_ack)
		{
			lb_send_NewPrompt();
    3750:	0e 94 1c 07 	call	0xe38	; 0xe38 <_Z17lb_send_NewPromptv>
    3754:	3d ca       	rjmp	.-2950   	; 0x2bd0 <_Z17handleLinkBusMsgsv+0x70>

				if(c)
				{
					if(c == 'B')
					{
						c = BEACON;
    3756:	80 e0       	ldi	r24, 0x00	; 0
    3758:	90 e0       	ldi	r25, 0x00	; 0
    375a:	05 cb       	rjmp	.-2550   	; 0x2d66 <_Z17handleLinkBusMsgsv+0x206>
					{
						char t = lb_buff->fields[FIELD2][0];

						if(t == 'S')
						{
							c = SPRINT_DEMO;
    375c:	83 e1       	ldi	r24, 0x13	; 19
    375e:	90 e0       	ldi	r25, 0x00	; 0
    3760:	02 cb       	rjmp	.-2556   	; 0x2d66 <_Z17handleLinkBusMsgsv+0x206>
							c = FOX_DEMO;
						}
					}
					else if(c == 'F')
					{
						c = FOXORING;
    3762:	87 e0       	ldi	r24, 0x07	; 7
    3764:	00 cb       	rjmp	.-2560   	; 0x2d66 <_Z17handleLinkBusMsgsv+0x206>
					{
						char t = lb_buff->fields[FIELD2][0];

						if(t == '2')
						{
							c = NO_CODE_START_TONES_2M;
    3766:	84 e1       	ldi	r24, 0x14	; 20
    3768:	fe ca       	rjmp	.-2564   	; 0x2d66 <_Z17handleLinkBusMsgsv+0x206>
						}
						else if(t == '5')
						{
							c = NO_CODE_START_TONES_5M;
    376a:	85 e1       	ldi	r24, 0x15	; 21
    376c:	90 e0       	ldi	r25, 0x00	; 0
    376e:	fb ca       	rjmp	.-2570   	; 0x2d66 <_Z17handleLinkBusMsgsv+0x206>
					}
				}

				if(doprint)
				{
					lb_send_string(g_tempStr,TRUE);
    3770:	61 e0       	ldi	r22, 0x01	; 1
    3772:	c5 01       	movw	r24, r10
    3774:	0e 94 30 07 	call	0xe60	; 0xe60 <_Z14lb_send_stringPch>
    3778:	e8 cf       	rjmp	.-48     	; 0x374a <_Z17handleLinkBusMsgsv+0xbea>
		if(send_ack)
		{
			lb_send_NewPrompt();
		}
	}
}
    377a:	28 96       	adiw	r28, 0x08	; 8
    377c:	0f b6       	in	r0, 0x3f	; 63
    377e:	f8 94       	cli
    3780:	de bf       	out	0x3e, r29	; 62
    3782:	0f be       	out	0x3f, r0	; 63
    3784:	cd bf       	out	0x3d, r28	; 61
    3786:	df 91       	pop	r29
    3788:	cf 91       	pop	r28
    378a:	1f 91       	pop	r17
    378c:	0f 91       	pop	r16
    378e:	ff 90       	pop	r15
    3790:	ef 90       	pop	r14
    3792:	df 90       	pop	r13
    3794:	cf 90       	pop	r12
    3796:	bf 90       	pop	r11
    3798:	af 90       	pop	r10
    379a:	9f 90       	pop	r9
    379c:	8f 90       	pop	r8
    379e:	7f 90       	pop	r7
    37a0:	6f 90       	pop	r6
    37a2:	5f 90       	pop	r5
    37a4:	4f 90       	pop	r4
    37a6:	3f 90       	pop	r3
    37a8:	2f 90       	pop	r2
    37aa:	08 95       	ret

000037ac <_Z4loopv>:

/*
 *  Here is the main loop
 * */
void loop()
{
    37ac:	2f 92       	push	r2
    37ae:	3f 92       	push	r3
    37b0:	4f 92       	push	r4
    37b2:	5f 92       	push	r5
    37b4:	6f 92       	push	r6
    37b6:	7f 92       	push	r7
    37b8:	8f 92       	push	r8
    37ba:	9f 92       	push	r9
    37bc:	af 92       	push	r10
    37be:	bf 92       	push	r11
    37c0:	cf 92       	push	r12
    37c2:	df 92       	push	r13
    37c4:	ef 92       	push	r14
    37c6:	ff 92       	push	r15
    37c8:	0f 93       	push	r16
    37ca:	1f 93       	push	r17
    37cc:	cf 93       	push	r28
    37ce:	df 93       	push	r29
    37d0:	1f 92       	push	r1
    37d2:	cd b7       	in	r28, 0x3d	; 61
    37d4:	de b7       	in	r29, 0x3e	; 62
		static int time_for_id = 99;
		static BOOL id_set = TRUE;
		static BOOL proceed = FALSE;
#endif  /* !INIT_EEPROM_ONLY */

	handleLinkBusMsgs();
    37d6:	0e 94 b0 15 	call	0x2b60	; 0x2b60 <_Z17handleLinkBusMsgsv>

#if !INIT_EEPROM_ONLY
		if(!g_on_the_air || proceed)
    37da:	80 91 fa 05 	lds	r24, 0x05FA	; 0x8005fa <g_on_the_air>
    37de:	90 91 fb 05 	lds	r25, 0x05FB	; 0x8005fb <g_on_the_air+0x1>
    37e2:	89 2b       	or	r24, r25
    37e4:	29 f0       	breq	.+10     	; 0x37f0 <_Z4loopv+0x44>
    37e6:	80 91 1a 05 	lds	r24, 0x051A	; 0x80051a <_ZZ4loopvE7proceed>
    37ea:	88 23       	and	r24, r24
    37ec:	09 f4       	brne	.+2      	; 0x37f0 <_Z4loopv+0x44>
    37ee:	da c0       	rjmp	.+436    	; 0x39a4 <_Z4loopv+0x1f8>
		{
			/* At the appropriate time set the pattern to be sent and start transmissions */
			if(!g_transmissions_disabled)
    37f0:	80 91 20 01 	lds	r24, 0x0120	; 0x800120 <g_transmissions_disabled>
    37f4:	81 11       	cpse	r24, r1
    37f6:	2e c1       	rjmp	.+604    	; 0x3a54 <_Z4loopv+0x2a8>
			{
				proceed = FALSE;
    37f8:	10 92 1a 05 	sts	0x051A, r1	; 0x80051a <_ZZ4loopvE7proceed>

				/* Choose the appropriate Morse pattern to be sent */
				if(g_fox == FOX_DEMO)
    37fc:	80 91 fc 05 	lds	r24, 0x05FC	; 0x8005fc <g_fox>
    3800:	86 30       	cpi	r24, 0x06	; 6
    3802:	91 f4       	brne	.+36     	; 0x3828 <_Z4loopv+0x7c>
				{
					strcpy(g_messages_text[PATTERN_TEXT],g_morsePatterns[g_fox_counter]);
    3804:	80 91 1e 01 	lds	r24, 0x011E	; 0x80011e <g_fox_counter>
    3808:	90 91 1f 01 	lds	r25, 0x011F	; 0x80011f <g_fox_counter+0x1>
    380c:	bc 01       	movw	r22, r24
    380e:	66 0f       	add	r22, r22
    3810:	77 1f       	adc	r23, r23
    3812:	66 0f       	add	r22, r22
    3814:	77 1f       	adc	r23, r23
    3816:	68 0f       	add	r22, r24
    3818:	79 1f       	adc	r23, r25
    381a:	67 5d       	subi	r22, 0xD7	; 215
    381c:	7c 4f       	sbci	r23, 0xFC	; 252
    381e:	8b ea       	ldi	r24, 0xAB	; 171
    3820:	95 e0       	ldi	r25, 0x05	; 5
    3822:	0e 94 37 2a 	call	0x546e	; 0x546e <strcpy>
    3826:	27 c0       	rjmp	.+78     	; 0x3876 <_Z4loopv+0xca>
				}
				else if(g_fox == SPRINT_DEMO)
    3828:	80 91 fc 05 	lds	r24, 0x05FC	; 0x8005fc <g_fox>
    382c:	83 31       	cpi	r24, 0x13	; 19
    382e:	99 f4       	brne	.+38     	; 0x3856 <_Z4loopv+0xaa>
				{
					strcpy(g_messages_text[PATTERN_TEXT],g_morsePatterns[g_fox_counter + 8]);
    3830:	80 91 1e 01 	lds	r24, 0x011E	; 0x80011e <g_fox_counter>
    3834:	90 91 1f 01 	lds	r25, 0x011F	; 0x80011f <g_fox_counter+0x1>
    3838:	08 96       	adiw	r24, 0x08	; 8
    383a:	bc 01       	movw	r22, r24
    383c:	66 0f       	add	r22, r22
    383e:	77 1f       	adc	r23, r23
    3840:	66 0f       	add	r22, r22
    3842:	77 1f       	adc	r23, r23
    3844:	68 0f       	add	r22, r24
    3846:	79 1f       	adc	r23, r25
    3848:	67 5d       	subi	r22, 0xD7	; 215
    384a:	7c 4f       	sbci	r23, 0xFC	; 252
    384c:	8b ea       	ldi	r24, 0xAB	; 171
    384e:	95 e0       	ldi	r25, 0x05	; 5
    3850:	0e 94 37 2a 	call	0x546e	; 0x546e <strcpy>
    3854:	10 c0       	rjmp	.+32     	; 0x3876 <_Z4loopv+0xca>
				}
				else
				{
					strcpy(g_messages_text[PATTERN_TEXT],g_morsePatterns[g_fox]);
    3856:	80 91 fc 05 	lds	r24, 0x05FC	; 0x8005fc <g_fox>
    385a:	90 e0       	ldi	r25, 0x00	; 0
    385c:	bc 01       	movw	r22, r24
    385e:	66 0f       	add	r22, r22
    3860:	77 1f       	adc	r23, r23
    3862:	66 0f       	add	r22, r22
    3864:	77 1f       	adc	r23, r23
    3866:	68 0f       	add	r22, r24
    3868:	79 1f       	adc	r23, r25
    386a:	67 5d       	subi	r22, 0xD7	; 215
    386c:	7c 4f       	sbci	r23, 0xFC	; 252
    386e:	8b ea       	ldi	r24, 0xAB	; 171
    3870:	95 e0       	ldi	r25, 0x05	; 5
    3872:	0e 94 37 2a 	call	0x546e	; 0x546e <strcpy>
				}

				if((g_fox == FOX_DEMO) || (g_fox == SPRINT_DEMO) || (g_fox == BEACON) || (g_fox == FOXORING) || (g_fox == SPECTATOR) || (g_fox == (g_fox_counter + g_fox_id_offset)))
    3876:	80 91 fc 05 	lds	r24, 0x05FC	; 0x8005fc <g_fox>
    387a:	86 30       	cpi	r24, 0x06	; 6
    387c:	09 f1       	breq	.+66     	; 0x38c0 <_Z4loopv+0x114>
    387e:	80 91 fc 05 	lds	r24, 0x05FC	; 0x8005fc <g_fox>
    3882:	83 31       	cpi	r24, 0x13	; 19
    3884:	e9 f0       	breq	.+58     	; 0x38c0 <_Z4loopv+0x114>
    3886:	80 91 fc 05 	lds	r24, 0x05FC	; 0x8005fc <g_fox>
    388a:	88 23       	and	r24, r24
    388c:	c9 f0       	breq	.+50     	; 0x38c0 <_Z4loopv+0x114>
    388e:	80 91 fc 05 	lds	r24, 0x05FC	; 0x8005fc <g_fox>
    3892:	87 30       	cpi	r24, 0x07	; 7
    3894:	a9 f0       	breq	.+42     	; 0x38c0 <_Z4loopv+0x114>
    3896:	80 91 fc 05 	lds	r24, 0x05FC	; 0x8005fc <g_fox>
    389a:	88 30       	cpi	r24, 0x08	; 8
    389c:	89 f0       	breq	.+34     	; 0x38c0 <_Z4loopv+0x114>
    389e:	20 91 fc 05 	lds	r18, 0x05FC	; 0x8005fc <g_fox>
    38a2:	40 91 1e 01 	lds	r20, 0x011E	; 0x80011e <g_fox_counter>
    38a6:	50 91 1f 01 	lds	r21, 0x011F	; 0x80011f <g_fox_counter+0x1>
    38aa:	80 91 e1 05 	lds	r24, 0x05E1	; 0x8005e1 <g_fox_id_offset>
    38ae:	90 91 e2 05 	lds	r25, 0x05E2	; 0x8005e2 <g_fox_id_offset+0x1>
    38b2:	30 e0       	ldi	r19, 0x00	; 0
    38b4:	84 0f       	add	r24, r20
    38b6:	95 1f       	adc	r25, r21
    38b8:	28 17       	cp	r18, r24
    38ba:	39 07       	cpc	r19, r25
    38bc:	09 f0       	breq	.+2      	; 0x38c0 <_Z4loopv+0x114>
    38be:	ca c0       	rjmp	.+404    	; 0x3a54 <_Z4loopv+0x2a8>
				{
					BOOL repeat = TRUE;
    38c0:	81 e0       	ldi	r24, 0x01	; 1
    38c2:	89 83       	std	Y+1, r24	; 0x01
					g_code_throttle = THROTTLE_VAL_FROM_WPM(g_pattern_codespeed);
    38c4:	60 91 17 01 	lds	r22, 0x0117	; 0x800117 <_ZL19g_pattern_codespeed>
    38c8:	70 e0       	ldi	r23, 0x00	; 0
    38ca:	82 e8       	ldi	r24, 0x82	; 130
    38cc:	9b e1       	ldi	r25, 0x1B	; 27
    38ce:	0e 94 3a 28 	call	0x5074	; 0x5074 <__divmodhi4>
    38d2:	cb 01       	movw	r24, r22
    38d4:	6a e0       	ldi	r22, 0x0A	; 10
    38d6:	70 e0       	ldi	r23, 0x00	; 0
    38d8:	0e 94 3a 28 	call	0x5074	; 0x5074 <__divmodhi4>
    38dc:	66 0f       	add	r22, r22
    38de:	77 1f       	adc	r23, r23
    38e0:	70 93 f9 05 	sts	0x05F9, r23	; 0x8005f9 <g_code_throttle+0x1>
    38e4:	60 93 f8 05 	sts	0x05F8, r22	; 0x8005f8 <g_code_throttle>
					makeMorse(g_messages_text[PATTERN_TEXT],&repeat,NULL);
    38e8:	40 e0       	ldi	r20, 0x00	; 0
    38ea:	50 e0       	ldi	r21, 0x00	; 0
    38ec:	be 01       	movw	r22, r28
    38ee:	6f 5f       	subi	r22, 0xFF	; 255
    38f0:	7f 4f       	sbci	r23, 0xFF	; 255
    38f2:	8b ea       	ldi	r24, 0xAB	; 171
    38f4:	95 e0       	ldi	r25, 0x05	; 5
    38f6:	0e 94 0c 21 	call	0x4218	; 0x4218 <_Z9makeMorsePcPhS0_>

					if(g_time_to_ID || (g_id_interval <= g_on_air_interval))
    38fa:	80 91 de 05 	lds	r24, 0x05DE	; 0x8005de <g_time_to_ID>
    38fe:	81 11       	cpse	r24, r1
    3900:	0b c0       	rjmp	.+22     	; 0x3918 <_Z4loopv+0x16c>
    3902:	20 91 df 05 	lds	r18, 0x05DF	; 0x8005df <g_id_interval>
    3906:	30 91 e0 05 	lds	r19, 0x05E0	; 0x8005e0 <g_id_interval+0x1>
    390a:	80 91 e8 05 	lds	r24, 0x05E8	; 0x8005e8 <g_on_air_interval>
    390e:	90 91 e9 05 	lds	r25, 0x05E9	; 0x8005e9 <g_on_air_interval+0x1>
    3912:	82 17       	cp	r24, r18
    3914:	93 07       	cpc	r25, r19
    3916:	3c f1       	brlt	.+78     	; 0x3966 <_Z4loopv+0x1ba>
					{
						time_for_id = g_on_air_interval - (500 + timeRequiredToSendStrAtWPM(g_messages_text[STATION_ID],g_id_codespeed)) / 1000;
    3918:	00 91 e8 05 	lds	r16, 0x05E8	; 0x8005e8 <g_on_air_interval>
    391c:	10 91 e9 05 	lds	r17, 0x05E9	; 0x8005e9 <g_on_air_interval+0x1>
    3920:	60 91 18 01 	lds	r22, 0x0118	; 0x800118 <_ZL14g_id_codespeed>
    3924:	70 e0       	ldi	r23, 0x00	; 0
    3926:	80 ec       	ldi	r24, 0xC0	; 192
    3928:	95 e0       	ldi	r25, 0x05	; 5
    392a:	0e 94 0a 22 	call	0x4414	; 0x4414 <_Z26timeRequiredToSendStrAtWPMPcj>
    392e:	8c 50       	subi	r24, 0x0C	; 12
    3930:	9e 4f       	sbci	r25, 0xFE	; 254
    3932:	9c 01       	movw	r18, r24
    3934:	36 95       	lsr	r19
    3936:	27 95       	ror	r18
    3938:	36 95       	lsr	r19
    393a:	27 95       	ror	r18
    393c:	36 95       	lsr	r19
    393e:	27 95       	ror	r18
    3940:	a5 ec       	ldi	r26, 0xC5	; 197
    3942:	b0 e2       	ldi	r27, 0x20	; 32
    3944:	0e 94 95 28 	call	0x512a	; 0x512a <__umulhisi3>
    3948:	92 95       	swap	r25
    394a:	82 95       	swap	r24
    394c:	8f 70       	andi	r24, 0x0F	; 15
    394e:	89 27       	eor	r24, r25
    3950:	9f 70       	andi	r25, 0x0F	; 15
    3952:	89 27       	eor	r24, r25
    3954:	08 1b       	sub	r16, r24
    3956:	19 0b       	sbc	r17, r25
    3958:	10 93 0e 01 	sts	0x010E, r17	; 0x80010e <_ZZ4loopvE11time_for_id+0x1>
    395c:	00 93 0d 01 	sts	0x010D, r16	; 0x80010d <_ZZ4loopvE11time_for_id>
						g_time_to_ID = FALSE;
    3960:	10 92 de 05 	sts	0x05DE, r1	; 0x8005de <g_time_to_ID>
    3964:	0a c0       	rjmp	.+20     	; 0x397a <_Z4loopv+0x1ce>
					}
					else
					{
						time_for_id = g_on_air_interval + 99;   /* prevent sending ID */
    3966:	80 91 e8 05 	lds	r24, 0x05E8	; 0x8005e8 <g_on_air_interval>
    396a:	90 91 e9 05 	lds	r25, 0x05E9	; 0x8005e9 <g_on_air_interval+0x1>
    396e:	8d 59       	subi	r24, 0x9D	; 157
    3970:	9f 4f       	sbci	r25, 0xFF	; 255
    3972:	90 93 0e 01 	sts	0x010E, r25	; 0x80010e <_ZZ4loopvE11time_for_id+0x1>
    3976:	80 93 0d 01 	sts	0x010D, r24	; 0x80010d <_ZZ4loopvE11time_for_id>
					}

					id_set = FALSE;
    397a:	10 92 0c 01 	sts	0x010C, r1	; 0x80010c <_ZZ4loopvE6id_set>
					g_on_the_air = TRUE;
    397e:	81 e0       	ldi	r24, 0x01	; 1
    3980:	90 e0       	ldi	r25, 0x00	; 0
    3982:	90 93 fb 05 	sts	0x05FB, r25	; 0x8005fb <g_on_the_air+0x1>
    3986:	80 93 fa 05 	sts	0x05FA, r24	; 0x8005fa <g_on_the_air>
					g_callsign_sent = FALSE;
    398a:	10 92 f7 05 	sts	0x05F7, r1	; 0x8005f7 <g_callsign_sent>
					g_fox_transition = FALSE;
    398e:	10 92 e3 05 	sts	0x05E3, r1	; 0x8005e3 <g_fox_transition>
					g_fox_tone_offset = g_fox_counter;
    3992:	80 91 1e 01 	lds	r24, 0x011E	; 0x80011e <g_fox_counter>
    3996:	90 91 1f 01 	lds	r25, 0x011F	; 0x80011f <g_fox_counter+0x1>
    399a:	90 93 1b 01 	sts	0x011B, r25	; 0x80011b <g_fox_tone_offset+0x1>
    399e:	80 93 1a 01 	sts	0x011A, r24	; 0x80011a <g_fox_tone_offset>
    39a2:	58 c0       	rjmp	.+176    	; 0x3a54 <_Z4loopv+0x2a8>
				}
			}
		}
		else
		{
			if(!id_set && (g_fox_seconds_into_interval == time_for_id)) /* Send the call sign at the right time */
    39a4:	80 91 0c 01 	lds	r24, 0x010C	; 0x80010c <_ZZ4loopvE6id_set>
    39a8:	81 11       	cpse	r24, r1
    39aa:	b1 c1       	rjmp	.+866    	; 0x3d0e <_Z4loopv+0x562>
    39ac:	20 91 e6 05 	lds	r18, 0x05E6	; 0x8005e6 <g_fox_seconds_into_interval>
    39b0:	30 91 e7 05 	lds	r19, 0x05E7	; 0x8005e7 <g_fox_seconds_into_interval+0x1>
    39b4:	80 91 0d 01 	lds	r24, 0x010D	; 0x80010d <_ZZ4loopvE11time_for_id>
    39b8:	90 91 0e 01 	lds	r25, 0x010E	; 0x80010e <_ZZ4loopvE11time_for_id+0x1>
    39bc:	28 17       	cp	r18, r24
    39be:	39 07       	cpc	r19, r25
    39c0:	09 f0       	breq	.+2      	; 0x39c4 <_Z4loopv+0x218>
    39c2:	a5 c1       	rjmp	.+842    	; 0x3d0e <_Z4loopv+0x562>
    39c4:	82 c1       	rjmp	.+772    	; 0x3cca <_Z4loopv+0x51e>
				BOOL repeat = FALSE;
				makeMorse(g_messages_text[STATION_ID],&repeat,NULL);
				id_set = TRUE;
				g_callsign_sent = FALSE;
			}
			else if((g_fox >= SPRINT_S1) && (g_fox <= SPRINT_DEMO))
    39c6:	80 91 fc 05 	lds	r24, 0x05FC	; 0x8005fc <g_fox>
    39ca:	84 31       	cpi	r24, 0x14	; 20
    39cc:	08 f4       	brcc	.+2      	; 0x39d0 <_Z4loopv+0x224>
    39ce:	a5 c1       	rjmp	.+842    	; 0x3d1a <_Z4loopv+0x56e>
    39d0:	09 c0       	rjmp	.+18     	; 0x39e4 <_Z4loopv+0x238>
			{
				if(g_fox_transition)
				{
					g_fox_transition = FALSE;
    39d2:	10 92 e3 05 	sts	0x05E3, r1	; 0x8005e3 <g_fox_transition>
					g_on_the_air = FALSE;
    39d6:	10 92 fb 05 	sts	0x05FB, r1	; 0x8005fb <g_on_the_air+0x1>
    39da:	10 92 fa 05 	sts	0x05FA, r1	; 0x8005fa <g_on_the_air>
					proceed = TRUE;
    39de:	81 e0       	ldi	r24, 0x01	; 1
    39e0:	80 93 1a 05 	sts	0x051A, r24	; 0x80051a <_ZZ4loopvE7proceed>
				}
			}

			if((g_fox == FOX_DEMO) || (g_fox == SPRINT_DEMO))
    39e4:	80 91 fc 05 	lds	r24, 0x05FC	; 0x8005fc <g_fox>
    39e8:	86 30       	cpi	r24, 0x06	; 6
    39ea:	21 f0       	breq	.+8      	; 0x39f4 <_Z4loopv+0x248>
    39ec:	80 91 fc 05 	lds	r24, 0x05FC	; 0x8005fc <g_fox>
    39f0:	83 31       	cpi	r24, 0x13	; 19
    39f2:	49 f4       	brne	.+18     	; 0x3a06 <_Z4loopv+0x25a>
			{
				if((g_callsign_sent) && g_fox_transition)   /* Ensure we've begun the next minute before proceeding */
    39f4:	80 91 f7 05 	lds	r24, 0x05F7	; 0x8005f7 <g_callsign_sent>
    39f8:	88 23       	and	r24, r24
    39fa:	61 f1       	breq	.+88     	; 0x3a54 <_Z4loopv+0x2a8>
    39fc:	80 91 e3 05 	lds	r24, 0x05E3	; 0x8005e3 <g_fox_transition>
    3a00:	81 11       	cpse	r24, r1
    3a02:	90 c1       	rjmp	.+800    	; 0x3d24 <_Z4loopv+0x578>
    3a04:	27 c0       	rjmp	.+78     	; 0x3a54 <_Z4loopv+0x2a8>
				{
					proceed = TRUE;
				}
			}
			else if((g_fox == BEACON) || (g_fox == FOXORING) || (g_fox == SPECTATOR))   /* Proceed as soon as the callsign has been sent */
    3a06:	80 91 fc 05 	lds	r24, 0x05FC	; 0x8005fc <g_fox>
    3a0a:	88 23       	and	r24, r24
    3a0c:	41 f0       	breq	.+16     	; 0x3a1e <_Z4loopv+0x272>
    3a0e:	80 91 fc 05 	lds	r24, 0x05FC	; 0x8005fc <g_fox>
    3a12:	87 30       	cpi	r24, 0x07	; 7
    3a14:	21 f0       	breq	.+8      	; 0x3a1e <_Z4loopv+0x272>
    3a16:	80 91 fc 05 	lds	r24, 0x05FC	; 0x8005fc <g_fox>
    3a1a:	88 30       	cpi	r24, 0x08	; 8
    3a1c:	41 f4       	brne	.+16     	; 0x3a2e <_Z4loopv+0x282>
			{
				if(g_callsign_sent)
    3a1e:	80 91 f7 05 	lds	r24, 0x05F7	; 0x8005f7 <g_callsign_sent>
    3a22:	88 23       	and	r24, r24
    3a24:	b9 f0       	breq	.+46     	; 0x3a54 <_Z4loopv+0x2a8>
				{
					proceed = TRUE;
    3a26:	81 e0       	ldi	r24, 0x01	; 1
    3a28:	80 93 1a 05 	sts	0x051A, r24	; 0x80051a <_ZZ4loopvE7proceed>
    3a2c:	13 c0       	rjmp	.+38     	; 0x3a54 <_Z4loopv+0x2a8>
				}
			}
			else if((g_fox >= SPRINT_S1) && (g_fox <= SPRINT_F5) && g_callsign_sent)
    3a2e:	80 91 fc 05 	lds	r24, 0x05FC	; 0x8005fc <g_fox>
    3a32:	89 30       	cpi	r24, 0x09	; 9
    3a34:	08 f4       	brcc	.+2      	; 0x3a38 <_Z4loopv+0x28c>
    3a36:	7f c1       	rjmp	.+766    	; 0x3d36 <_Z4loopv+0x58a>
    3a38:	80 91 fc 05 	lds	r24, 0x05FC	; 0x8005fc <g_fox>
    3a3c:	83 31       	cpi	r24, 0x13	; 19
    3a3e:	08 f0       	brcs	.+2      	; 0x3a42 <_Z4loopv+0x296>
    3a40:	7a c1       	rjmp	.+756    	; 0x3d36 <_Z4loopv+0x58a>
    3a42:	80 91 f7 05 	lds	r24, 0x05F7	; 0x8005f7 <g_callsign_sent>
    3a46:	81 11       	cpse	r24, r1
    3a48:	71 c1       	rjmp	.+738    	; 0x3d2c <_Z4loopv+0x580>
    3a4a:	75 c1       	rjmp	.+746    	; 0x3d36 <_Z4loopv+0x58a>
			{
				g_on_the_air = FALSE;
			}
			else if((g_fox != g_fox_counter) && g_callsign_sent)    /* Turn off transmissions during minutes when this fox should be silent */
    3a4c:	80 91 f7 05 	lds	r24, 0x05F7	; 0x8005f7 <g_callsign_sent>
    3a50:	81 11       	cpse	r24, r1
    3a52:	7d c1       	rjmp	.+762    	; 0x3d4e <_Z4loopv+0x5a2>
				g_on_the_air = FALSE;
			}
		}


		if(g_goertzel.SamplesReady())
    3a54:	8a e9       	ldi	r24, 0x9A	; 154
    3a56:	95 e0       	ldi	r25, 0x05	; 5
    3a58:	0e 94 eb 03 	call	0x7d6	; 0x7d6 <_ZN8Goertzel12SamplesReadyEv>
    3a5c:	88 23       	and	r24, r24
    3a5e:	09 f4       	brne	.+2      	; 0x3a62 <_Z4loopv+0x2b6>
    3a60:	29 c1       	rjmp	.+594    	; 0x3cb4 <_Z4loopv+0x508>
			static char lastKey = '\0';
			static int checkCount = 10;                                                                                                                                                                                                                                                                                                                                                                                                                                                                                                                                                                                                                                        /* Set above the threshold to prevent an initial false key detect */
			static int quietCount = 0;
			int x = -1,y = -1;

			if(!g_temperature_check_countdown)
    3a62:	80 91 14 01 	lds	r24, 0x0114	; 0x800114 <_ZL29g_temperature_check_countdown>
    3a66:	81 11       	cpse	r24, r1
    3a68:	77 c1       	rjmp	.+750    	; 0x3d58 <_Z4loopv+0x5ac>
			{

				setUpTemp();
    3a6a:	0e 94 48 13 	call	0x2690	; 0x2690 <_Z9setUpTempv>
				int8_t temp = (int8_t)getTemp();
    3a6e:	0e 94 58 13 	call	0x26b0	; 0x26b0 <_Z7getTempv>
    3a72:	0e 94 f5 25 	call	0x4bea	; 0x4bea <__fixsfsi>
				if(temp != g_temperature)
    3a76:	80 91 d7 05 	lds	r24, 0x05D7	; 0x8005d7 <g_temperature>
    3a7a:	68 17       	cp	r22, r24
    3a7c:	b1 f0       	breq	.+44     	; 0x3aaa <_Z4loopv+0x2fe>
				{
					g_temperature = temp;
    3a7e:	60 93 d7 05 	sts	0x05D7, r22	; 0x8005d7 <g_temperature>
					int8_t delta25 = 25 - temp;
					int8_t adj = eeprom_read_byte((uint8_t*)&ee_temperature_table[delta25]);
    3a82:	89 e1       	ldi	r24, 0x19	; 25
    3a84:	86 1b       	sub	r24, r22
    3a86:	88 0f       	add	r24, r24
    3a88:	99 0b       	sbc	r25, r25
    3a8a:	87 55       	subi	r24, 0x57	; 87
    3a8c:	9e 4f       	sbci	r25, 0xFE	; 254
    3a8e:	0e 94 1d 2d 	call	0x5a3a	; 0x5a3a <eeprom_read_byte>
					rv3028_set_offset_RAM(g_rv3028_offset + adj);
    3a92:	20 91 a4 05 	lds	r18, 0x05A4	; 0x8005a4 <_ZL15g_rv3028_offset>
    3a96:	30 91 a5 05 	lds	r19, 0x05A5	; 0x8005a5 <_ZL15g_rv3028_offset+0x1>
    3a9a:	a9 01       	movw	r20, r18
    3a9c:	48 0f       	add	r20, r24
    3a9e:	51 1d       	adc	r21, r1
    3aa0:	87 fd       	sbrc	r24, 7
    3aa2:	5a 95       	dec	r21
    3aa4:	ca 01       	movw	r24, r20
    3aa6:	0e 94 d5 23 	call	0x47aa	; 0x47aa <_Z21rv3028_set_offset_RAMj>
				}

				setUpAudioSampling(false);
    3aaa:	80 e0       	ldi	r24, 0x00	; 0
    3aac:	0e 94 b0 13 	call	0x2760	; 0x2760 <_Z18setUpAudioSamplingh>
				g_temperature_check_countdown = 60;
    3ab0:	8c e3       	ldi	r24, 0x3C	; 60
    3ab2:	80 93 14 01 	sts	0x0114, r24	; 0x800114 <_ZL29g_temperature_check_countdown>
    3ab6:	50 c1       	rjmp	.+672    	; 0x3d58 <_Z4loopv+0x5ac>
			}

			for(int i = 0; i < 4; i++)
			{
				g_goertzel.SetTargetFrequency(y_frequencies[i]);    /*initialize library function with the given sampling frequency no of samples and target freq */
    3ab8:	f5 01       	movw	r30, r10
    3aba:	41 91       	ld	r20, Z+
    3abc:	51 91       	ld	r21, Z+
    3abe:	61 91       	ld	r22, Z+
    3ac0:	71 91       	ld	r23, Z+
    3ac2:	5f 01       	movw	r10, r30
    3ac4:	8a e9       	ldi	r24, 0x9A	; 154
    3ac6:	95 e0       	ldi	r25, 0x05	; 5
    3ac8:	0e 94 08 03 	call	0x610	; 0x610 <_ZN8Goertzel18SetTargetFrequencyEf>
				magnitudeY = g_goertzel.Magnitude2();               /*check them for target_freq */
    3acc:	8a e9       	ldi	r24, 0x9A	; 154
    3ace:	95 e0       	ldi	r25, 0x05	; 5
    3ad0:	0e 94 ee 03 	call	0x7dc	; 0x7dc <_ZN8Goertzel10Magnitude2Ev>
    3ad4:	e6 2e       	mov	r14, r22
    3ad6:	f7 2e       	mov	r15, r23
    3ad8:	d8 2e       	mov	r13, r24
    3ada:	c9 2e       	mov	r12, r25

				if(magnitudeY > largestY)                           /*if you're getting false hits or no hits adjust the threshold */
    3adc:	27 2d       	mov	r18, r7
    3ade:	36 2d       	mov	r19, r6
    3ae0:	45 2d       	mov	r20, r5
    3ae2:	54 2d       	mov	r21, r4
    3ae4:	0e 94 1c 27 	call	0x4e38	; 0x4e38 <__gesf2>
    3ae8:	18 16       	cp	r1, r24
    3aea:	b4 f4       	brge	.+44     	; 0x3b18 <_Z4loopv+0x36c>
				{
					largestY = magnitudeY;
					if(magnitudeY > threshold)
    3aec:	20 e0       	ldi	r18, 0x00	; 0
    3aee:	34 e2       	ldi	r19, 0x24	; 36
    3af0:	44 e7       	ldi	r20, 0x74	; 116
    3af2:	59 e4       	ldi	r21, 0x49	; 73
    3af4:	6e 2d       	mov	r22, r14
    3af6:	7f 2d       	mov	r23, r15
    3af8:	8d 2d       	mov	r24, r13
    3afa:	9c 2d       	mov	r25, r12
    3afc:	0e 94 1c 27 	call	0x4e38	; 0x4e38 <__gesf2>
    3b00:	18 16       	cp	r1, r24
    3b02:	34 f4       	brge	.+12     	; 0x3b10 <_Z4loopv+0x364>
    3b04:	48 01       	movw	r8, r16
				g_goertzel.SetTargetFrequency(y_frequencies[i]);    /*initialize library function with the given sampling frequency no of samples and target freq */
				magnitudeY = g_goertzel.Magnitude2();               /*check them for target_freq */

				if(magnitudeY > largestY)                           /*if you're getting false hits or no hits adjust the threshold */
				{
					largestY = magnitudeY;
    3b06:	7e 2c       	mov	r7, r14
    3b08:	6f 2c       	mov	r6, r15
    3b0a:	5d 2c       	mov	r5, r13
    3b0c:	4c 2c       	mov	r4, r12
    3b0e:	04 c0       	rjmp	.+8      	; 0x3b18 <_Z4loopv+0x36c>
    3b10:	7e 2c       	mov	r7, r14
    3b12:	6f 2c       	mov	r6, r15
    3b14:	5d 2c       	mov	r5, r13
    3b16:	4c 2c       	mov	r4, r12

				setUpAudioSampling(false);
				g_temperature_check_countdown = 60;
			}

			for(int i = 0; i < 4; i++)
    3b18:	0f 5f       	subi	r16, 0xFF	; 255
    3b1a:	1f 4f       	sbci	r17, 0xFF	; 255
    3b1c:	04 30       	cpi	r16, 0x04	; 4
    3b1e:	11 05       	cpc	r17, r1
    3b20:	59 f6       	brne	.-106    	; 0x3ab8 <_Z4loopv+0x30c>
    3b22:	2a c1       	rjmp	.+596    	; 0x3d78 <_Z4loopv+0x5cc>

			if(y >= 0)
			{
				for(int i = 0; i < 4; i++)
				{
					g_goertzel.SetTargetFrequency(x_frequencies[i]);    /*initialize library function with the given sampling frequency no of samples and target freq */
    3b24:	f5 01       	movw	r30, r10
    3b26:	41 91       	ld	r20, Z+
    3b28:	51 91       	ld	r21, Z+
    3b2a:	61 91       	ld	r22, Z+
    3b2c:	71 91       	ld	r23, Z+
    3b2e:	5f 01       	movw	r10, r30
    3b30:	8a e9       	ldi	r24, 0x9A	; 154
    3b32:	95 e0       	ldi	r25, 0x05	; 5
    3b34:	0e 94 08 03 	call	0x610	; 0x610 <_ZN8Goertzel18SetTargetFrequencyEf>
					magnitudeX = g_goertzel.Magnitude2();               /*check them for target_freq */
    3b38:	8a e9       	ldi	r24, 0x9A	; 154
    3b3a:	95 e0       	ldi	r25, 0x05	; 5
    3b3c:	0e 94 ee 03 	call	0x7dc	; 0x7dc <_ZN8Goertzel10Magnitude2Ev>
    3b40:	e6 2e       	mov	r14, r22
    3b42:	f7 2e       	mov	r15, r23
    3b44:	d8 2e       	mov	r13, r24
    3b46:	c9 2e       	mov	r12, r25

					if(magnitudeX > largestX)                           /*if you're getting false hits or no hits adjust the threshold */
    3b48:	25 2d       	mov	r18, r5
    3b4a:	34 2d       	mov	r19, r4
    3b4c:	43 2d       	mov	r20, r3
    3b4e:	52 2d       	mov	r21, r2
    3b50:	0e 94 1c 27 	call	0x4e38	; 0x4e38 <__gesf2>
    3b54:	18 16       	cp	r1, r24
    3b56:	b4 f4       	brge	.+44     	; 0x3b84 <_Z4loopv+0x3d8>
					{
						largestX = magnitudeX;
						if(magnitudeX > threshold)
    3b58:	20 e0       	ldi	r18, 0x00	; 0
    3b5a:	34 e2       	ldi	r19, 0x24	; 36
    3b5c:	44 e7       	ldi	r20, 0x74	; 116
    3b5e:	59 e4       	ldi	r21, 0x49	; 73
    3b60:	6e 2d       	mov	r22, r14
    3b62:	7f 2d       	mov	r23, r15
    3b64:	8d 2d       	mov	r24, r13
    3b66:	9c 2d       	mov	r25, r12
    3b68:	0e 94 1c 27 	call	0x4e38	; 0x4e38 <__gesf2>
    3b6c:	18 16       	cp	r1, r24
    3b6e:	34 f4       	brge	.+12     	; 0x3b7c <_Z4loopv+0x3d0>
    3b70:	38 01       	movw	r6, r16
					g_goertzel.SetTargetFrequency(x_frequencies[i]);    /*initialize library function with the given sampling frequency no of samples and target freq */
					magnitudeX = g_goertzel.Magnitude2();               /*check them for target_freq */

					if(magnitudeX > largestX)                           /*if you're getting false hits or no hits adjust the threshold */
					{
						largestX = magnitudeX;
    3b72:	5e 2c       	mov	r5, r14
    3b74:	4f 2c       	mov	r4, r15
    3b76:	3d 2c       	mov	r3, r13
    3b78:	2c 2c       	mov	r2, r12
    3b7a:	04 c0       	rjmp	.+8      	; 0x3b84 <_Z4loopv+0x3d8>
    3b7c:	5e 2c       	mov	r5, r14
    3b7e:	4f 2c       	mov	r4, r15
    3b80:	3d 2c       	mov	r3, r13
    3b82:	2c 2c       	mov	r2, r12
#endif  /* DEBUG_DTMF */
			}

			if(y >= 0)
			{
				for(int i = 0; i < 4; i++)
    3b84:	0f 5f       	subi	r16, 0xFF	; 255
    3b86:	1f 4f       	sbci	r17, 0xFF	; 255
    3b88:	04 30       	cpi	r16, 0x04	; 4
    3b8a:	11 05       	cpc	r17, r1
    3b8c:	59 f6       	brne	.-106    	; 0x3b24 <_Z4loopv+0x378>
							lb_send_string(g_tempStr,TRUE);
						}
#endif  /* DEBUG_DTMF */
				}

				if(x >= 0)
    3b8e:	77 20       	and	r7, r7
    3b90:	0c f4       	brge	.+2      	; 0x3b94 <_Z4loopv+0x3e8>
    3b92:	88 c0       	rjmp	.+272    	; 0x3ca4 <_Z4loopv+0x4f8>
				{
					char newKey = key[4 * y + x];
    3b94:	c4 01       	movw	r24, r8
    3b96:	88 0f       	add	r24, r24
    3b98:	99 1f       	adc	r25, r25
    3b9a:	88 0f       	add	r24, r24
    3b9c:	99 1f       	adc	r25, r25
    3b9e:	87 50       	subi	r24, 0x07	; 7
    3ba0:	9d 4f       	sbci	r25, 0xFD	; 253
    3ba2:	fc 01       	movw	r30, r24
    3ba4:	e6 0d       	add	r30, r6
    3ba6:	f7 1d       	adc	r31, r7
    3ba8:	10 81       	ld	r17, Z

					if(lastKey == newKey)
    3baa:	80 91 19 05 	lds	r24, 0x0519	; 0x800519 <_ZZ4loopvE7lastKey>
    3bae:	18 13       	cpse	r17, r24
    3bb0:	2e c0       	rjmp	.+92     	; 0x3c0e <_Z4loopv+0x462>
					{
						checkCount++;
    3bb2:	80 91 0a 01 	lds	r24, 0x010A	; 0x80010a <_ZZ4loopvE10checkCount>
    3bb6:	90 91 0b 01 	lds	r25, 0x010B	; 0x80010b <_ZZ4loopvE10checkCount+0x1>
    3bba:	01 96       	adiw	r24, 0x01	; 1
    3bbc:	90 93 0b 01 	sts	0x010B, r25	; 0x80010b <_ZZ4loopvE10checkCount+0x1>
    3bc0:	80 93 0a 01 	sts	0x010A, r24	; 0x80010a <_ZZ4loopvE10checkCount>

						if(checkCount == 3)
    3bc4:	03 97       	sbiw	r24, 0x03	; 3
    3bc6:	19 f5       	brne	.+70     	; 0x3c0e <_Z4loopv+0x462>
						{
							g_dtmf_detected = TRUE;
    3bc8:	81 e0       	ldi	r24, 0x01	; 1
    3bca:	80 93 d8 05 	sts	0x05D8, r24	; 0x8005d8 <g_dtmf_detected>
							quietCount = 0;
    3bce:	10 92 18 05 	sts	0x0518, r1	; 0x800518 <_ZZ4loopvE10quietCount+0x1>
    3bd2:	10 92 17 05 	sts	0x0517, r1	; 0x800517 <_ZZ4loopvE10quietCount>
							g_lastKey = newKey;
    3bd6:	10 93 a3 05 	sts	0x05A3, r17	; 0x8005a3 <g_lastKey>
							sprintf(g_tempStr,"\"%c\"\n",g_lastKey);
    3bda:	1f 92       	push	r1
    3bdc:	1f 93       	push	r17
    3bde:	81 e8       	ldi	r24, 0x81	; 129
    3be0:	92 e0       	ldi	r25, 0x02	; 2
    3be2:	9f 93       	push	r25
    3be4:	8f 93       	push	r24
    3be6:	82 e7       	ldi	r24, 0x72	; 114
    3be8:	95 e0       	ldi	r25, 0x05	; 5
    3bea:	9f 93       	push	r25
    3bec:	8f 93       	push	r24
    3bee:	0e 94 6a 2a 	call	0x54d4	; 0x54d4 <sprintf>
							lb_send_string(g_tempStr,TRUE);
    3bf2:	61 e0       	ldi	r22, 0x01	; 1
    3bf4:	82 e7       	ldi	r24, 0x72	; 114
    3bf6:	95 e0       	ldi	r25, 0x05	; 5
    3bf8:	0e 94 30 07 	call	0xe60	; 0xe60 <_Z14lb_send_stringPch>

							processKey(newKey);
    3bfc:	81 2f       	mov	r24, r17
    3bfe:	0e 94 d4 11 	call	0x23a8	; 0x23a8 <_Z10processKeyc>
    3c02:	0f 90       	pop	r0
    3c04:	0f 90       	pop	r0
    3c06:	0f 90       	pop	r0
    3c08:	0f 90       	pop	r0
    3c0a:	0f 90       	pop	r0
    3c0c:	0f 90       	pop	r0
								}
#endif  /* DEBUG_DTMF */
						}
					}

					lastKey = newKey;
    3c0e:	10 93 19 05 	sts	0x0519, r17	; 0x800519 <_ZZ4loopvE7lastKey>
    3c12:	48 c0       	rjmp	.+144    	; 0x3ca4 <_Z4loopv+0x4f8>
				}
			}
			else    /* Quiet detected */
			{
				unsigned long delta = g_tick_count - g_last;
    3c14:	c0 90 9b 05 	lds	r12, 0x059B	; 0x80059b <g_tick_count>
    3c18:	d0 90 9c 05 	lds	r13, 0x059C	; 0x80059c <g_tick_count+0x1>
    3c1c:	e0 90 9d 05 	lds	r14, 0x059D	; 0x80059d <g_tick_count+0x2>
    3c20:	f0 90 9e 05 	lds	r15, 0x059E	; 0x80059e <g_tick_count+0x3>
    3c24:	80 90 9f 05 	lds	r8, 0x059F	; 0x80059f <g_last>
    3c28:	90 90 a0 05 	lds	r9, 0x05A0	; 0x8005a0 <g_last+0x1>
    3c2c:	a0 90 a1 05 	lds	r10, 0x05A1	; 0x8005a1 <g_last+0x2>
    3c30:	b0 90 a2 05 	lds	r11, 0x05A2	; 0x8005a2 <g_last+0x3>

				/* Quieting must be detected at least 3 times in less than 5 seconds before another key can be accepted */
				if(quietCount++ > 2)
    3c34:	80 91 17 05 	lds	r24, 0x0517	; 0x800517 <_ZZ4loopvE10quietCount>
    3c38:	90 91 18 05 	lds	r25, 0x0518	; 0x800518 <_ZZ4loopvE10quietCount+0x1>
    3c3c:	9c 01       	movw	r18, r24
    3c3e:	2f 5f       	subi	r18, 0xFF	; 255
    3c40:	3f 4f       	sbci	r19, 0xFF	; 255
    3c42:	30 93 18 05 	sts	0x0518, r19	; 0x800518 <_ZZ4loopvE10quietCount+0x1>
    3c46:	20 93 17 05 	sts	0x0517, r18	; 0x800517 <_ZZ4loopvE10quietCount>
    3c4a:	03 97       	sbiw	r24, 0x03	; 3
    3c4c:	5c f1       	brlt	.+86     	; 0x3ca4 <_Z4loopv+0x4f8>
				{
					g_dtmf_detected = FALSE;
    3c4e:	10 92 d8 05 	sts	0x05D8, r1	; 0x8005d8 <g_dtmf_detected>
					digitalWrite(PIN_LED1,OFF);
    3c52:	60 e0       	ldi	r22, 0x00	; 0
    3c54:	8d e0       	ldi	r24, 0x0D	; 13
    3c56:	0e 94 2f 02 	call	0x45e	; 0x45e <_Z12digitalWritehh>

					if(delta < 1500)
    3c5a:	c8 18       	sub	r12, r8
    3c5c:	d9 08       	sbc	r13, r9
    3c5e:	ea 08       	sbc	r14, r10
    3c60:	fb 08       	sbc	r15, r11
    3c62:	fc ed       	ldi	r31, 0xDC	; 220
    3c64:	cf 16       	cp	r12, r31
    3c66:	f5 e0       	ldi	r31, 0x05	; 5
    3c68:	df 06       	cpc	r13, r31
    3c6a:	e1 04       	cpc	r14, r1
    3c6c:	f1 04       	cpc	r15, r1
    3c6e:	20 f4       	brcc	.+8      	; 0x3c78 <_Z4loopv+0x4cc>
					{
						checkCount = 0;
    3c70:	10 92 0b 01 	sts	0x010B, r1	; 0x80010b <_ZZ4loopvE10checkCount+0x1>
    3c74:	10 92 0a 01 	sts	0x010A, r1	; 0x80010a <_ZZ4loopvE10checkCount>
					}

					quietCount = 0;
    3c78:	10 92 18 05 	sts	0x0518, r1	; 0x800518 <_ZZ4loopvE10quietCount+0x1>
    3c7c:	10 92 17 05 	sts	0x0517, r1	; 0x800517 <_ZZ4loopvE10quietCount>
					g_last = g_tick_count;
    3c80:	80 91 9b 05 	lds	r24, 0x059B	; 0x80059b <g_tick_count>
    3c84:	90 91 9c 05 	lds	r25, 0x059C	; 0x80059c <g_tick_count+0x1>
    3c88:	a0 91 9d 05 	lds	r26, 0x059D	; 0x80059d <g_tick_count+0x2>
    3c8c:	b0 91 9e 05 	lds	r27, 0x059E	; 0x80059e <g_tick_count+0x3>
    3c90:	80 93 9f 05 	sts	0x059F, r24	; 0x80059f <g_last>
    3c94:	90 93 a0 05 	sts	0x05A0, r25	; 0x8005a0 <g_last+0x1>
    3c98:	a0 93 a1 05 	sts	0x05A1, r26	; 0x8005a1 <g_last+0x2>
    3c9c:	b0 93 a2 05 	sts	0x05A2, r27	; 0x8005a2 <g_last+0x3>
					lastKey = '\0';
    3ca0:	10 92 19 05 	sts	0x0519, r1	; 0x800519 <_ZZ4loopvE7lastKey>
				}
			}

			ADCSRA |= (1 << ADIE);  /* enable interrupts when measurement complete */
    3ca4:	ea e7       	ldi	r30, 0x7A	; 122
    3ca6:	f0 e0       	ldi	r31, 0x00	; 0
    3ca8:	80 81       	ld	r24, Z
    3caa:	88 60       	ori	r24, 0x08	; 8
    3cac:	80 83       	st	Z, r24
			ADCSRA |= (1 << ADSC);  /* start ADC measurements */
    3cae:	80 81       	ld	r24, Z
    3cb0:	80 64       	ori	r24, 0x40	; 64
    3cb2:	80 83       	st	Z, r24
		}

		BOOL hold_config_err = g_config_error;
    3cb4:	10 91 d6 05 	lds	r17, 0x05D6	; 0x8005d6 <g_config_error>
		if(!(g_config_error = clockConfigurationError()) && hold_config_err)
    3cb8:	0e 94 ce 09 	call	0x139c	; 0x139c <_Z23clockConfigurationErrorv>
    3cbc:	80 93 d6 05 	sts	0x05D6, r24	; 0x8005d6 <g_config_error>
    3cc0:	81 11       	cpse	r24, r1
    3cc2:	71 c0       	rjmp	.+226    	; 0x3da6 <_Z4loopv+0x5fa>
    3cc4:	11 11       	cpse	r17, r1
    3cc6:	6b c0       	rjmp	.+214    	; 0x3d9e <_Z4loopv+0x5f2>
    3cc8:	6e c0       	rjmp	.+220    	; 0x3da6 <_Z4loopv+0x5fa>
		}
		else
		{
			if(!id_set && (g_fox_seconds_into_interval == time_for_id)) /* Send the call sign at the right time */
			{
				g_code_throttle = THROTTLE_VAL_FROM_WPM(g_id_codespeed);
    3cca:	60 91 18 01 	lds	r22, 0x0118	; 0x800118 <_ZL14g_id_codespeed>
    3cce:	70 e0       	ldi	r23, 0x00	; 0
    3cd0:	82 e8       	ldi	r24, 0x82	; 130
    3cd2:	9b e1       	ldi	r25, 0x1B	; 27
    3cd4:	0e 94 3a 28 	call	0x5074	; 0x5074 <__divmodhi4>
    3cd8:	cb 01       	movw	r24, r22
    3cda:	6a e0       	ldi	r22, 0x0A	; 10
    3cdc:	70 e0       	ldi	r23, 0x00	; 0
    3cde:	0e 94 3a 28 	call	0x5074	; 0x5074 <__divmodhi4>
    3ce2:	66 0f       	add	r22, r22
    3ce4:	77 1f       	adc	r23, r23
    3ce6:	70 93 f9 05 	sts	0x05F9, r23	; 0x8005f9 <g_code_throttle+0x1>
    3cea:	60 93 f8 05 	sts	0x05F8, r22	; 0x8005f8 <g_code_throttle>
				BOOL repeat = FALSE;
    3cee:	19 82       	std	Y+1, r1	; 0x01
				makeMorse(g_messages_text[STATION_ID],&repeat,NULL);
    3cf0:	40 e0       	ldi	r20, 0x00	; 0
    3cf2:	50 e0       	ldi	r21, 0x00	; 0
    3cf4:	be 01       	movw	r22, r28
    3cf6:	6f 5f       	subi	r22, 0xFF	; 255
    3cf8:	7f 4f       	sbci	r23, 0xFF	; 255
    3cfa:	80 ec       	ldi	r24, 0xC0	; 192
    3cfc:	95 e0       	ldi	r25, 0x05	; 5
    3cfe:	0e 94 0c 21 	call	0x4218	; 0x4218 <_Z9makeMorsePcPhS0_>
				id_set = TRUE;
    3d02:	81 e0       	ldi	r24, 0x01	; 1
    3d04:	80 93 0c 01 	sts	0x010C, r24	; 0x80010c <_ZZ4loopvE6id_set>
				g_callsign_sent = FALSE;
    3d08:	10 92 f7 05 	sts	0x05F7, r1	; 0x8005f7 <g_callsign_sent>
    3d0c:	6b ce       	rjmp	.-810    	; 0x39e4 <_Z4loopv+0x238>
			}
			else if((g_fox >= SPRINT_S1) && (g_fox <= SPRINT_DEMO))
    3d0e:	80 91 fc 05 	lds	r24, 0x05FC	; 0x8005fc <g_fox>
    3d12:	89 30       	cpi	r24, 0x09	; 9
    3d14:	08 f0       	brcs	.+2      	; 0x3d18 <_Z4loopv+0x56c>
    3d16:	57 ce       	rjmp	.-850    	; 0x39c6 <_Z4loopv+0x21a>
    3d18:	65 ce       	rjmp	.-822    	; 0x39e4 <_Z4loopv+0x238>
			{
				if(g_fox_transition)
    3d1a:	80 91 e3 05 	lds	r24, 0x05E3	; 0x8005e3 <g_fox_transition>
    3d1e:	81 11       	cpse	r24, r1
    3d20:	58 ce       	rjmp	.-848    	; 0x39d2 <_Z4loopv+0x226>
    3d22:	60 ce       	rjmp	.-832    	; 0x39e4 <_Z4loopv+0x238>

			if((g_fox == FOX_DEMO) || (g_fox == SPRINT_DEMO))
			{
				if((g_callsign_sent) && g_fox_transition)   /* Ensure we've begun the next minute before proceeding */
				{
					proceed = TRUE;
    3d24:	81 e0       	ldi	r24, 0x01	; 1
    3d26:	80 93 1a 05 	sts	0x051A, r24	; 0x80051a <_ZZ4loopvE7proceed>
    3d2a:	94 ce       	rjmp	.-728    	; 0x3a54 <_Z4loopv+0x2a8>
					proceed = TRUE;
				}
			}
			else if((g_fox >= SPRINT_S1) && (g_fox <= SPRINT_F5) && g_callsign_sent)
			{
				g_on_the_air = FALSE;
    3d2c:	10 92 fb 05 	sts	0x05FB, r1	; 0x8005fb <g_on_the_air+0x1>
    3d30:	10 92 fa 05 	sts	0x05FA, r1	; 0x8005fa <g_on_the_air>
    3d34:	8f ce       	rjmp	.-738    	; 0x3a54 <_Z4loopv+0x2a8>
			}
			else if((g_fox != g_fox_counter) && g_callsign_sent)    /* Turn off transmissions during minutes when this fox should be silent */
    3d36:	80 91 fc 05 	lds	r24, 0x05FC	; 0x8005fc <g_fox>
    3d3a:	20 91 1e 01 	lds	r18, 0x011E	; 0x80011e <g_fox_counter>
    3d3e:	30 91 1f 01 	lds	r19, 0x011F	; 0x80011f <g_fox_counter+0x1>
    3d42:	90 e0       	ldi	r25, 0x00	; 0
    3d44:	82 17       	cp	r24, r18
    3d46:	93 07       	cpc	r25, r19
    3d48:	09 f0       	breq	.+2      	; 0x3d4c <_Z4loopv+0x5a0>
    3d4a:	80 ce       	rjmp	.-768    	; 0x3a4c <_Z4loopv+0x2a0>
    3d4c:	83 ce       	rjmp	.-762    	; 0x3a54 <_Z4loopv+0x2a8>
			{
				g_on_the_air = FALSE;
    3d4e:	10 92 fb 05 	sts	0x05FB, r1	; 0x8005fb <g_on_the_air+0x1>
    3d52:	10 92 fa 05 	sts	0x05FA, r1	; 0x8005fa <g_on_the_air>
    3d56:	7e ce       	rjmp	.-772    	; 0x3a54 <_Z4loopv+0x2a8>
    3d58:	0f 2e       	mov	r0, r31
    3d5a:	f9 e0       	ldi	r31, 0x09	; 9
    3d5c:	af 2e       	mov	r10, r31
    3d5e:	f3 e0       	ldi	r31, 0x03	; 3
    3d60:	bf 2e       	mov	r11, r31
    3d62:	f0 2d       	mov	r31, r0

/*
 *  Here is the main loop
 * */
void loop()
{
    3d64:	00 e0       	ldi	r16, 0x00	; 0
    3d66:	10 e0       	ldi	r17, 0x00	; 0
    3d68:	88 24       	eor	r8, r8
    3d6a:	8a 94       	dec	r8
    3d6c:	98 2c       	mov	r9, r8
    3d6e:	71 2c       	mov	r7, r1
    3d70:	61 2c       	mov	r6, r1
    3d72:	51 2c       	mov	r5, r1
    3d74:	41 2c       	mov	r4, r1
    3d76:	a0 ce       	rjmp	.-704    	; 0x3ab8 <_Z4loopv+0x30c>
						lb_send_string(g_tempStr,TRUE);
					}
#endif  /* DEBUG_DTMF */
			}

			if(y >= 0)
    3d78:	99 20       	and	r9, r9
    3d7a:	0c f4       	brge	.+2      	; 0x3d7e <_Z4loopv+0x5d2>
    3d7c:	4b cf       	rjmp	.-362    	; 0x3c14 <_Z4loopv+0x468>
    3d7e:	0f 2e       	mov	r0, r31
    3d80:	f9 e1       	ldi	r31, 0x19	; 25
    3d82:	af 2e       	mov	r10, r31
    3d84:	f3 e0       	ldi	r31, 0x03	; 3
    3d86:	bf 2e       	mov	r11, r31
    3d88:	f0 2d       	mov	r31, r0
    3d8a:	00 e0       	ldi	r16, 0x00	; 0
    3d8c:	10 e0       	ldi	r17, 0x00	; 0
    3d8e:	66 24       	eor	r6, r6
    3d90:	6a 94       	dec	r6
    3d92:	76 2c       	mov	r7, r6
    3d94:	51 2c       	mov	r5, r1
    3d96:	41 2c       	mov	r4, r1
    3d98:	31 2c       	mov	r3, r1
    3d9a:	21 2c       	mov	r2, r1
    3d9c:	c3 ce       	rjmp	.-634    	; 0x3b24 <_Z4loopv+0x378>
		}

		BOOL hold_config_err = g_config_error;
		if(!(g_config_error = clockConfigurationError()) && hold_config_err)
		{
			digitalWrite(PIN_LED2,OFF); /* ensure LED is off */
    3d9e:	60 e0       	ldi	r22, 0x00	; 0
    3da0:	87 e0       	ldi	r24, 0x07	; 7
    3da2:	0e 94 2f 02 	call	0x45e	; 0x45e <_Z12digitalWritehh>
		}
#endif  /* !INIT_EEPROM_ONLY */
}
    3da6:	0f 90       	pop	r0
    3da8:	df 91       	pop	r29
    3daa:	cf 91       	pop	r28
    3dac:	1f 91       	pop	r17
    3dae:	0f 91       	pop	r16
    3db0:	ff 90       	pop	r15
    3db2:	ef 90       	pop	r14
    3db4:	df 90       	pop	r13
    3db6:	cf 90       	pop	r12
    3db8:	bf 90       	pop	r11
    3dba:	af 90       	pop	r10
    3dbc:	9f 90       	pop	r9
    3dbe:	8f 90       	pop	r8
    3dc0:	7f 90       	pop	r7
    3dc2:	6f 90       	pop	r6
    3dc4:	5f 90       	pop	r5
    3dc6:	4f 90       	pop	r4
    3dc8:	3f 90       	pop	r3
    3dca:	2f 90       	pop	r2
    3dcc:	08 95       	ret

00003dce <main>:
#else
	void setup()
#endif  /* COMPILE_FOR_ATMELSTUDIO7 */
{
	/* set active pins */
	pinMode(PIN_LED1, OUTPUT);                                                                                                                                                                                              /* The amber LED: This led blinks when off cycle and blinks with code when on cycle. */
    3dce:	61 e0       	ldi	r22, 0x01	; 1
    3dd0:	8d e0       	ldi	r24, 0x0D	; 13
    3dd2:	0e 94 41 01 	call	0x282	; 0x282 <_Z7pinModehh>
	digitalWrite(PIN_LED1, OFF);
    3dd6:	60 e0       	ldi	r22, 0x00	; 0
    3dd8:	8d e0       	ldi	r24, 0x0D	; 13
    3dda:	0e 94 2f 02 	call	0x45e	; 0x45e <_Z12digitalWritehh>

	pinMode(PIN_LED2, OUTPUT);
    3dde:	61 e0       	ldi	r22, 0x01	; 1
    3de0:	87 e0       	ldi	r24, 0x07	; 7
    3de2:	0e 94 41 01 	call	0x282	; 0x282 <_Z7pinModehh>
	digitalWrite(PIN_LED2, OFF);
    3de6:	60 e0       	ldi	r22, 0x00	; 0
    3de8:	87 e0       	ldi	r24, 0x07	; 7
    3dea:	0e 94 2f 02 	call	0x45e	; 0x45e <_Z12digitalWritehh>

	pinMode(PIN_CW_KEY_LOGIC, OUTPUT);  /* This pin is used to control the KEY line to the transmitter only active on cycle. */
    3dee:	61 e0       	ldi	r22, 0x01	; 1
    3df0:	8a e0       	ldi	r24, 0x0A	; 10
    3df2:	0e 94 41 01 	call	0x282	; 0x282 <_Z7pinModehh>
	digitalWrite(PIN_CW_KEY_LOGIC, OFF);
    3df6:	60 e0       	ldi	r22, 0x00	; 0
    3df8:	8a e0       	ldi	r24, 0x0A	; 10
    3dfa:	0e 94 2f 02 	call	0x45e	; 0x45e <_Z12digitalWritehh>

	pinMode(PIN_CW_TONE_LOGIC, OUTPUT);
    3dfe:	61 e0       	ldi	r22, 0x01	; 1
    3e00:	89 e0       	ldi	r24, 0x09	; 9
    3e02:	0e 94 41 01 	call	0x282	; 0x282 <_Z7pinModehh>
	digitalWrite(PIN_CW_TONE_LOGIC, OFF);
    3e06:	60 e0       	ldi	r22, 0x00	; 0
    3e08:	89 e0       	ldi	r24, 0x09	; 9
    3e0a:	0e 94 2f 02 	call	0x45e	; 0x45e <_Z12digitalWritehh>

	pinMode(PIN_PTT_LOGIC, OUTPUT);
    3e0e:	61 e0       	ldi	r22, 0x01	; 1
    3e10:	88 e0       	ldi	r24, 0x08	; 8
    3e12:	0e 94 41 01 	call	0x282	; 0x282 <_Z7pinModehh>
	digitalWrite(PIN_PTT_LOGIC, OFF);
    3e16:	60 e0       	ldi	r22, 0x00	; 0
    3e18:	88 e0       	ldi	r24, 0x08	; 8
    3e1a:	0e 94 2f 02 	call	0x45e	; 0x45e <_Z12digitalWritehh>

	pinMode(PIN_CW_KEY_LOGIC, OUTPUT);
    3e1e:	61 e0       	ldi	r22, 0x01	; 1
    3e20:	8a e0       	ldi	r24, 0x0A	; 10
    3e22:	0e 94 41 01 	call	0x282	; 0x282 <_Z7pinModehh>
	digitalWrite(PIN_CW_KEY_LOGIC, OFF);
    3e26:	60 e0       	ldi	r22, 0x00	; 0
    3e28:	8a e0       	ldi	r24, 0x0A	; 10
    3e2a:	0e 94 2f 02 	call	0x45e	; 0x45e <_Z12digitalWritehh>

	pinMode(PIN_AUDIO_INPUT, INPUT);    /* Receiver Audio sampling */
    3e2e:	60 e0       	ldi	r22, 0x00	; 0
    3e30:	84 e1       	ldi	r24, 0x14	; 20
    3e32:	0e 94 41 01 	call	0x282	; 0x282 <_Z7pinModehh>
	pinMode(PIN_BATTERY_LEVEL, INPUT);  /* Battery voltage level */
    3e36:	60 e0       	ldi	r22, 0x00	; 0
    3e38:	85 e1       	ldi	r24, 0x15	; 21
    3e3a:	0e 94 41 01 	call	0x282	; 0x282 <_Z7pinModehh>

	pinMode(PIN_MISO, INPUT_PULLUP);
    3e3e:	63 e0       	ldi	r22, 0x03	; 3
    3e40:	8c e0       	ldi	r24, 0x0C	; 12
    3e42:	0e 94 41 01 	call	0x282	; 0x282 <_Z7pinModehh>
	pinMode(PIN_MOSI, OUTPUT);
    3e46:	61 e0       	ldi	r22, 0x01	; 1
    3e48:	8b e0       	ldi	r24, 0x0B	; 11
    3e4a:	0e 94 41 01 	call	0x282	; 0x282 <_Z7pinModehh>
	digitalWrite(PIN_MOSI, OFF);
    3e4e:	60 e0       	ldi	r22, 0x00	; 0
    3e50:	8b e0       	ldi	r24, 0x0B	; 11
    3e52:	0e 94 2f 02 	call	0x45e	; 0x45e <_Z12digitalWritehh>

	pinMode(PIN_SYNC, INPUT_PULLUP);
    3e56:	63 e0       	ldi	r22, 0x03	; 3
    3e58:	84 e0       	ldi	r24, 0x04	; 4
    3e5a:	0e 94 41 01 	call	0x282	; 0x282 <_Z7pinModehh>

	pinMode(PIN_D0, OUTPUT);    /* Also RXD */
    3e5e:	61 e0       	ldi	r22, 0x01	; 1
    3e60:	8e e0       	ldi	r24, 0x0E	; 14
    3e62:	0e 94 41 01 	call	0x282	; 0x282 <_Z7pinModehh>
	pinMode(PIN_D1, OUTPUT);    /* Also TXD */
    3e66:	61 e0       	ldi	r22, 0x01	; 1
    3e68:	8f e0       	ldi	r24, 0x0F	; 15
    3e6a:	0e 94 41 01 	call	0x282	; 0x282 <_Z7pinModehh>
	pinMode(PIN_D2, OUTPUT);
    3e6e:	61 e0       	ldi	r22, 0x01	; 1
    3e70:	80 e1       	ldi	r24, 0x10	; 16
    3e72:	0e 94 41 01 	call	0x282	; 0x282 <_Z7pinModehh>
	pinMode(PIN_D3, OUTPUT);
    3e76:	61 e0       	ldi	r22, 0x01	; 1
    3e78:	81 e1       	ldi	r24, 0x11	; 17
    3e7a:	0e 94 41 01 	call	0x282	; 0x282 <_Z7pinModehh>
	pinMode(PIN_D5, OUTPUT);
    3e7e:	61 e0       	ldi	r22, 0x01	; 1
    3e80:	81 e0       	ldi	r24, 0x01	; 1
    3e82:	0e 94 41 01 	call	0x282	; 0x282 <_Z7pinModehh>

	/* Set unused pins as outputs pulled high */
	pinMode(A4, INPUT_PULLUP);
    3e86:	63 e0       	ldi	r22, 0x03	; 3
    3e88:	82 e1       	ldi	r24, 0x12	; 18
    3e8a:	0e 94 41 01 	call	0x282	; 0x282 <_Z7pinModehh>
	pinMode(A5, INPUT_PULLUP);
    3e8e:	63 e0       	ldi	r22, 0x03	; 3
    3e90:	83 e1       	ldi	r24, 0x13	; 19
    3e92:	0e 94 41 01 	call	0x282	; 0x282 <_Z7pinModehh>

#if INIT_EEPROM_ONLY
		initializeEEPROMVars(TRUE);     /* Must happen after pins are configure due to I2C access */
#else
		initializeEEPROMVars(FALSE);    /* Must happen after pins are configure due to I2C access */
    3e96:	80 e0       	ldi	r24, 0x00	; 0
    3e98:	0e 94 19 0c 	call	0x1832	; 0x1832 <_Z20initializeEEPROMVarsh>
#endif

	setUpAudioSampling(true);
    3e9c:	81 e0       	ldi	r24, 0x01	; 1
    3e9e:	0e 94 b0 13 	call	0x2760	; 0x2760 <_Z18setUpAudioSamplingh>

	EICRA  |= (1 << ISC01); /* Configure INT0 falling edge for RTC 1-second interrupts */
    3ea2:	e9 e6       	ldi	r30, 0x69	; 105
    3ea4:	f0 e0       	ldi	r31, 0x00	; 0
    3ea6:	80 81       	ld	r24, Z
    3ea8:	82 60       	ori	r24, 0x02	; 2
    3eaa:	80 83       	st	Z, r24
	EIMSK |= (1 << INT0);   /* Enable INT0 interrupts */
    3eac:	e8 9a       	sbi	0x1d, 0	; 29

	/**
	 * TIMER2 is for periodic interrupts to drive Morse code generation */
	/* Reset control registers */
	TCCR2A = 0;
    3eae:	a0 eb       	ldi	r26, 0xB0	; 176
    3eb0:	b0 e0       	ldi	r27, 0x00	; 0
    3eb2:	1c 92       	st	X, r1
	TCCR2B = 0;
    3eb4:	e1 eb       	ldi	r30, 0xB1	; 177
    3eb6:	f0 e0       	ldi	r31, 0x00	; 0
    3eb8:	10 82       	st	Z, r1
	TCCR2A |= (1 << WGM21);                             /* set Clear Timer on Compare Match (CTC) mode with OCR2A setting the top */
    3eba:	8c 91       	ld	r24, X
    3ebc:	82 60       	ori	r24, 0x02	; 2
    3ebe:	8c 93       	st	X, r24
	TCCR2B |= (1 << CS22) | (1 << CS21) | (1 << CS20);  /* 1024 Prescaler */
    3ec0:	80 81       	ld	r24, Z
    3ec2:	87 60       	ori	r24, 0x07	; 7
    3ec4:	80 83       	st	Z, r24

	OCR2A = 0x0C;                                       /* set frequency to ~300 Hz (0x0c) */
    3ec6:	8c e0       	ldi	r24, 0x0C	; 12
    3ec8:	80 93 b3 00 	sts	0x00B3, r24	; 0x8000b3 <__TEXT_REGION_LENGTH__+0x7f80b3>
	OCR2B = 0x00;
    3ecc:	10 92 b4 00 	sts	0x00B4, r1	; 0x8000b4 <__TEXT_REGION_LENGTH__+0x7f80b4>
	/* Use system clock for Timer/Counter2 */
	ASSR &= ~(1 << AS2);
    3ed0:	e6 eb       	ldi	r30, 0xB6	; 182
    3ed2:	f0 e0       	ldi	r31, 0x00	; 0
    3ed4:	80 81       	ld	r24, Z
    3ed6:	8f 7d       	andi	r24, 0xDF	; 223
    3ed8:	80 83       	st	Z, r24
	/* Reset Timer/Counter2 Interrupt Mask Register */
	TIMSK2 = 0;
    3eda:	e0 e7       	ldi	r30, 0x70	; 112
    3edc:	f0 e0       	ldi	r31, 0x00	; 0
    3ede:	10 82       	st	Z, r1
	TIMSK2 |= (1 << OCIE2B);    /* Output Compare Match B Interrupt Enable */
    3ee0:	80 81       	ld	r24, Z
    3ee2:	84 60       	ori	r24, 0x04	; 4
    3ee4:	80 83       	st	Z, r24

	/* Timer 0 is for audio Start tone generation and control
	 * Note: Do not use millis() or DELAY() after TIMER0 has been reconfigured here! */
	TCCR0A = 0x00;
    3ee6:	14 bc       	out	0x24, r1	; 36
	TCCR0A |= (1 << WGM01);     /* Set CTC mode */
    3ee8:	84 b5       	in	r24, 0x24	; 36
    3eea:	82 60       	ori	r24, 0x02	; 2
    3eec:	84 bd       	out	0x24, r24	; 36
	TCCR0B = 0x00;
    3eee:	15 bc       	out	0x25, r1	; 37
	TCCR0B |= (1 << CS02);      /* Prescale 256 */
    3ef0:	85 b5       	in	r24, 0x25	; 37
    3ef2:	84 60       	ori	r24, 0x04	; 4
    3ef4:	85 bd       	out	0x25, r24	; 37
	OCR0A = DEFAULT_TONE_FREQUENCY;
    3ef6:	8f e2       	ldi	r24, 0x2F	; 47
    3ef8:	87 bd       	out	0x27, r24	; 39
	TIMSK0 = 0x00;
    3efa:	ee e6       	ldi	r30, 0x6E	; 110
    3efc:	f0 e0       	ldi	r31, 0x00	; 0
    3efe:	10 82       	st	Z, r1
	TIMSK0 |= (1 << OCIE0A);
    3f00:	80 81       	ld	r24, Z
    3f02:	82 60       	ori	r24, 0x02	; 2
    3f04:	80 83       	st	Z, r24

	/* Sync button pin change interrupt */
	PCMSK2 = 0x00;
    3f06:	ed e6       	ldi	r30, 0x6D	; 109
    3f08:	f0 e0       	ldi	r31, 0x00	; 0
    3f0a:	10 82       	st	Z, r1
	PCMSK2 = (1 << PCINT20);    /* Enable PCINT20 */
    3f0c:	80 e1       	ldi	r24, 0x10	; 16
    3f0e:	80 83       	st	Z, r24
	PCICR = 0x00;
    3f10:	e8 e6       	ldi	r30, 0x68	; 104
    3f12:	f0 e0       	ldi	r31, 0x00	; 0
    3f14:	10 82       	st	Z, r1
	PCICR = (1 << PCIE2);       /* Enable pin change interrupt 2 */
    3f16:	84 e0       	ldi	r24, 0x04	; 4
    3f18:	80 83       	st	Z, r24

#if !INIT_EEPROM_ONLY
		uint8_t result = rv3028_1s_sqw();
    3f1a:	0e 94 95 24 	call	0x492a	; 0x492a <_Z13rv3028_1s_sqwv>
    3f1e:	c8 2f       	mov	r28, r24
#else
		rv3028_1s_sqw();
#endif  /* !INIT_EEPROM_ONLY */

	sei();                                                                                  /* Enable interrupts */
    3f20:	78 94       	sei

	linkbus_init(BAUD);                                                                     /* Start the Link Bus serial comms */
    3f22:	60 e0       	ldi	r22, 0x00	; 0
    3f24:	71 ee       	ldi	r23, 0xE1	; 225
    3f26:	80 e0       	ldi	r24, 0x00	; 0
    3f28:	90 e0       	ldi	r25, 0x00	; 0
    3f2a:	0e 94 b8 06 	call	0xd70	; 0xd70 <_Z12linkbus_initm>

	g_current_epoch = rv3028_get_epoch(NULL, NULL);
    3f2e:	60 e0       	ldi	r22, 0x00	; 0
    3f30:	70 e0       	ldi	r23, 0x00	; 0
    3f32:	80 e0       	ldi	r24, 0x00	; 0
    3f34:	90 e0       	ldi	r25, 0x00	; 0
    3f36:	0e 94 56 22 	call	0x44ac	; 0x44ac <_Z16rv3028_get_epochPbPc>
    3f3a:	60 93 f2 05 	sts	0x05F2, r22	; 0x8005f2 <g_current_epoch>
    3f3e:	70 93 f3 05 	sts	0x05F3, r23	; 0x8005f3 <g_current_epoch+0x1>
    3f42:	80 93 f4 05 	sts	0x05F4, r24	; 0x8005f4 <g_current_epoch+0x2>
    3f46:	90 93 f5 05 	sts	0x05F5, r25	; 0x8005f5 <g_current_epoch+0x3>

#if !INIT_EEPROM_ONLY
		lb_send_Help();
    3f4a:	0e 94 5b 07 	call	0xeb6	; 0xeb6 <_Z12lb_send_Helpv>

		if(result & (1 << RTC_STATUS_I2C_ERROR))
    3f4e:	cc 23       	and	r28, r28
    3f50:	54 f4       	brge	.+20     	; 0x3f66 <main+0x198>
		{
			sprintf(g_tempStr, "RTC I2C Error\n");
    3f52:	8f e0       	ldi	r24, 0x0F	; 15
    3f54:	e7 e8       	ldi	r30, 0x87	; 135
    3f56:	f2 e0       	ldi	r31, 0x02	; 2
    3f58:	a2 e7       	ldi	r26, 0x72	; 114
    3f5a:	b5 e0       	ldi	r27, 0x05	; 5
    3f5c:	01 90       	ld	r0, Z+
    3f5e:	0d 92       	st	X+, r0
    3f60:	8a 95       	dec	r24
    3f62:	e1 f7       	brne	.-8      	; 0x3f5c <main+0x18e>
    3f64:	23 c0       	rjmp	.+70     	; 0x3fac <main+0x1de>
		}
		else if(result & (1 << RTC_STATUS_CLOCK_CORRUPT))   /* Power off occurred with no backup power */
    3f66:	c0 ff       	sbrs	r28, 0
    3f68:	0a c0       	rjmp	.+20     	; 0x3f7e <main+0x1b0>
		{
			sprintf(g_tempStr, "RTC Corrupt\n");
    3f6a:	8d e0       	ldi	r24, 0x0D	; 13
    3f6c:	e6 e9       	ldi	r30, 0x96	; 150
    3f6e:	f2 e0       	ldi	r31, 0x02	; 2
    3f70:	a2 e7       	ldi	r26, 0x72	; 114
    3f72:	b5 e0       	ldi	r27, 0x05	; 5
    3f74:	01 90       	ld	r0, Z+
    3f76:	0d 92       	st	X+, r0
    3f78:	8a 95       	dec	r24
    3f7a:	e1 f7       	brne	.-8      	; 0x3f74 <main+0x1a6>
    3f7c:	17 c0       	rjmp	.+46     	; 0x3fac <main+0x1de>
		}
		else if(result & (1 << RTC_STATUS_EVF_OCCURRED))
    3f7e:	c1 ff       	sbrs	r28, 1
    3f80:	0a c0       	rjmp	.+20     	; 0x3f96 <main+0x1c8>
		{
			sprintf(g_tempStr, "External Event\n");
    3f82:	80 e1       	ldi	r24, 0x10	; 16
    3f84:	e3 ea       	ldi	r30, 0xA3	; 163
    3f86:	f2 e0       	ldi	r31, 0x02	; 2
    3f88:	a2 e7       	ldi	r26, 0x72	; 114
    3f8a:	b5 e0       	ldi	r27, 0x05	; 5
    3f8c:	01 90       	ld	r0, Z+
    3f8e:	0d 92       	st	X+, r0
    3f90:	8a 95       	dec	r24
    3f92:	e1 f7       	brne	.-8      	; 0x3f8c <main+0x1be>
    3f94:	0b c0       	rjmp	.+22     	; 0x3fac <main+0x1de>
		}
		else if(result & (1 << RTC_STATUS_BACKUP_SWITCHOVER_OCCURRED))
    3f96:	c5 ff       	sbrs	r28, 5
    3f98:	09 c0       	rjmp	.+18     	; 0x3fac <main+0x1de>
		{
			sprintf(g_tempStr, "RTC Backup Power OK\n");
    3f9a:	85 e1       	ldi	r24, 0x15	; 21
    3f9c:	e3 eb       	ldi	r30, 0xB3	; 179
    3f9e:	f2 e0       	ldi	r31, 0x02	; 2
    3fa0:	a2 e7       	ldi	r26, 0x72	; 114
    3fa2:	b5 e0       	ldi	r27, 0x05	; 5
    3fa4:	01 90       	ld	r0, Z+
    3fa6:	0d 92       	st	X+, r0
    3fa8:	8a 95       	dec	r24
    3faa:	e1 f7       	brne	.-8      	; 0x3fa4 <main+0x1d6>
		}

		if(strlen(g_tempStr))
    3fac:	80 91 72 05 	lds	r24, 0x0572	; 0x800572 <_ZL9g_tempStr>
    3fb0:	88 23       	and	r24, r24
    3fb2:	29 f0       	breq	.+10     	; 0x3fbe <main+0x1f0>
		{
			lb_send_string(g_tempStr, TRUE);
    3fb4:	61 e0       	ldi	r22, 0x01	; 1
    3fb6:	82 e7       	ldi	r24, 0x72	; 114
    3fb8:	95 e0       	ldi	r25, 0x05	; 5
    3fba:	0e 94 30 07 	call	0xe60	; 0xe60 <_Z14lb_send_stringPch>
		}

		sprintf(g_tempStr, "  ID: %s\n", g_messages_text[STATION_ID]);
    3fbe:	80 ec       	ldi	r24, 0xC0	; 192
    3fc0:	95 e0       	ldi	r25, 0x05	; 5
    3fc2:	9f 93       	push	r25
    3fc4:	8f 93       	push	r24
    3fc6:	88 ec       	ldi	r24, 0xC8	; 200
    3fc8:	92 e0       	ldi	r25, 0x02	; 2
    3fca:	9f 93       	push	r25
    3fcc:	8f 93       	push	r24
    3fce:	82 e7       	ldi	r24, 0x72	; 114
    3fd0:	95 e0       	ldi	r25, 0x05	; 5
    3fd2:	9f 93       	push	r25
    3fd4:	8f 93       	push	r24
    3fd6:	0e 94 6a 2a 	call	0x54d4	; 0x54d4 <sprintf>
		lb_send_string(g_tempStr, TRUE);
    3fda:	61 e0       	ldi	r22, 0x01	; 1
    3fdc:	82 e7       	ldi	r24, 0x72	; 114
    3fde:	95 e0       	ldi	r25, 0x05	; 5
    3fe0:	0e 94 30 07 	call	0xe60	; 0xe60 <_Z14lb_send_stringPch>
		reportClockConfigErrors();
    3fe4:	0e 94 27 14 	call	0x284e	; 0x284e <_Z23reportClockConfigErrorsv>
		lb_send_NewPrompt();
    3fe8:	0e 94 1c 07 	call	0xe38	; 0xe38 <_Z17lb_send_NewPromptv>

#endif  /* #if INIT_EEPROM_ONLY */

	setupForFox(NULL);
    3fec:	80 e0       	ldi	r24, 0x00	; 0
    3fee:	90 e0       	ldi	r25, 0x00	; 0
    3ff0:	0e 94 b1 0e 	call	0x1d62	; 0x1d62 <_Z11setupForFoxP5Fox_t>
    3ff4:	0f 90       	pop	r0
    3ff6:	0f 90       	pop	r0
    3ff8:	0f 90       	pop	r0
    3ffa:	0f 90       	pop	r0
    3ffc:	0f 90       	pop	r0
    3ffe:	0f 90       	pop	r0

#if COMPILE_FOR_ATMELSTUDIO7
		while(1)
		{
			loop();
    4000:	0e 94 d6 1b 	call	0x37ac	; 0x37ac <_Z4loopv>
    4004:	fd cf       	rjmp	.-6      	; 0x4000 <main+0x232>

00004006 <_GLOBAL__sub_I_g_seconds_since_sync>:
		lb_send_NewLine();
		g_tempStr[0] = '\0';
	}

	return( failure);
}
    4006:	0f 93       	push	r16
    4008:	1f 93       	push	r17

char g_lastKey = '\0';
unsigned long g_last = 0;
unsigned long g_tick_count = 0;

Goertzel g_goertzel(N, sampling_freq);
    400a:	00 e0       	ldi	r16, 0x00	; 0
    400c:	18 e7       	ldi	r17, 0x78	; 120
    400e:	26 e9       	ldi	r18, 0x96	; 150
    4010:	36 e4       	ldi	r19, 0x46	; 70
    4012:	40 e0       	ldi	r20, 0x00	; 0
    4014:	50 e0       	ldi	r21, 0x00	; 0
    4016:	69 e4       	ldi	r22, 0x49	; 73
    4018:	73 e4       	ldi	r23, 0x43	; 67
    401a:	8a e9       	ldi	r24, 0x9A	; 154
    401c:	95 e0       	ldi	r25, 0x05	; 5
    401e:	0e 94 a0 02 	call	0x540	; 0x540 <_ZN8GoertzelC1Eff>
		lb_send_NewLine();
		g_tempStr[0] = '\0';
	}

	return( failure);
}
    4022:	1f 91       	pop	r17
    4024:	0f 91       	pop	r16
    4026:	08 95       	ret

00004028 <_GLOBAL__sub_D_g_seconds_since_sync>:

char g_lastKey = '\0';
unsigned long g_last = 0;
unsigned long g_tick_count = 0;

Goertzel g_goertzel(N, sampling_freq);
    4028:	8a e9       	ldi	r24, 0x9A	; 154
    402a:	95 e0       	ldi	r25, 0x05	; 5
    402c:	0e 94 ee 02 	call	0x5dc	; 0x5dc <_ZN8GoertzelD1Ev>
    4030:	08 95       	ret

00004032 <_Z12getMorseCharc>:
 */
MorseCharacter getMorseChar(char c)
{
	MorseCharacter morse;

	switch( c )
    4032:	90 e0       	ldi	r25, 0x00	; 0
    4034:	fc 01       	movw	r30, r24
    4036:	b0 97       	sbiw	r30, 0x20	; 32
    4038:	ed 35       	cpi	r30, 0x5D	; 93
    403a:	f1 05       	cpc	r31, r1
    403c:	08 f0       	brcs	.+2      	; 0x4040 <_Z12getMorseCharc+0xe>
    403e:	e4 c0       	rjmp	.+456    	; 0x4208 <_Z12getMorseCharc+0x1d6>
    4040:	e8 57       	subi	r30, 0x78	; 120
    4042:	ff 4f       	sbci	r31, 0xFF	; 255
    4044:	0c 94 8f 28 	jmp	0x511e	; 0x511e <__tablejump2__>

		case 'B':
		{
			morse.pattern = 0x01;   /* 0000 0001; */
			morse.lengthInSymbols = 4;
			morse.lengthInElements = 9;
    4048:	89 e0       	ldi	r24, 0x09	; 9
		break;

		case 'B':
		{
			morse.pattern = 0x01;   /* 0000 0001; */
			morse.lengthInSymbols = 4;
    404a:	74 e0       	ldi	r23, 0x04	; 4
		}
		break;

		case 'B':
		{
			morse.pattern = 0x01;   /* 0000 0001; */
    404c:	61 e0       	ldi	r22, 0x01	; 1
    404e:	08 95       	ret

		case 'C':
		{
			morse.pattern = 0x05;   /* 0000 0101; */
			morse.lengthInSymbols = 4;
			morse.lengthInElements = 11;
    4050:	8b e0       	ldi	r24, 0x0B	; 11
		break;

		case 'C':
		{
			morse.pattern = 0x05;   /* 0000 0101; */
			morse.lengthInSymbols = 4;
    4052:	74 e0       	ldi	r23, 0x04	; 4
		}
		break;

		case 'C':
		{
			morse.pattern = 0x05;   /* 0000 0101; */
    4054:	65 e0       	ldi	r22, 0x05	; 5
			morse.lengthInSymbols = 4;
			morse.lengthInElements = 11;
		}
		break;
    4056:	08 95       	ret

		case 'D':
		{
			morse.pattern = 0x01;   /* 0000 0001; */
			morse.lengthInSymbols = 3;
			morse.lengthInElements = 7;
    4058:	87 e0       	ldi	r24, 0x07	; 7
		break;

		case 'D':
		{
			morse.pattern = 0x01;   /* 0000 0001; */
			morse.lengthInSymbols = 3;
    405a:	73 e0       	ldi	r23, 0x03	; 3
		}
		break;

		case 'D':
		{
			morse.pattern = 0x01;   /* 0000 0001; */
    405c:	61 e0       	ldi	r22, 0x01	; 1
			morse.lengthInSymbols = 3;
			morse.lengthInElements = 7;
		}
		break;
    405e:	08 95       	ret

		case 'E':
		{
			morse.pattern = 0x00;   /* 0000 0000; */
			morse.lengthInSymbols = 1;
			morse.lengthInElements = 1;
    4060:	81 e0       	ldi	r24, 0x01	; 1
		break;

		case 'E':
		{
			morse.pattern = 0x00;   /* 0000 0000; */
			morse.lengthInSymbols = 1;
    4062:	71 e0       	ldi	r23, 0x01	; 1
		}
		break;

		case 'E':
		{
			morse.pattern = 0x00;   /* 0000 0000; */
    4064:	60 e0       	ldi	r22, 0x00	; 0
			morse.lengthInSymbols = 1;
			morse.lengthInElements = 1;
		}
		break;
    4066:	08 95       	ret

		case 'F':
		{
			morse.pattern = 0x04;   /* 0000 0100; */
			morse.lengthInSymbols = 4;
			morse.lengthInElements = 9;
    4068:	89 e0       	ldi	r24, 0x09	; 9
		break;

		case 'F':
		{
			morse.pattern = 0x04;   /* 0000 0100; */
			morse.lengthInSymbols = 4;
    406a:	74 e0       	ldi	r23, 0x04	; 4
		}
		break;

		case 'F':
		{
			morse.pattern = 0x04;   /* 0000 0100; */
    406c:	64 e0       	ldi	r22, 0x04	; 4
			morse.lengthInSymbols = 4;
			morse.lengthInElements = 9;
		}
		break;
    406e:	08 95       	ret

		case 'G':
		{
			morse.pattern = 0x03;   /* 0000 0011; */
			morse.lengthInSymbols = 3;
			morse.lengthInElements = 9;
    4070:	89 e0       	ldi	r24, 0x09	; 9
		break;

		case 'G':
		{
			morse.pattern = 0x03;   /* 0000 0011; */
			morse.lengthInSymbols = 3;
    4072:	73 e0       	ldi	r23, 0x03	; 3
		}
		break;

		case 'G':
		{
			morse.pattern = 0x03;   /* 0000 0011; */
    4074:	63 e0       	ldi	r22, 0x03	; 3
			morse.lengthInSymbols = 3;
			morse.lengthInElements = 9;
		}
		break;
    4076:	08 95       	ret

		case 'H':
		{
			morse.pattern = 0x00;   /* 0000 0000; */
			morse.lengthInSymbols = 4;
			morse.lengthInElements = 7;
    4078:	87 e0       	ldi	r24, 0x07	; 7
		break;

		case 'H':
		{
			morse.pattern = 0x00;   /* 0000 0000; */
			morse.lengthInSymbols = 4;
    407a:	74 e0       	ldi	r23, 0x04	; 4
		}
		break;

		case 'H':
		{
			morse.pattern = 0x00;   /* 0000 0000; */
    407c:	60 e0       	ldi	r22, 0x00	; 0
			morse.lengthInSymbols = 4;
			morse.lengthInElements = 7;
		}
		break;
    407e:	08 95       	ret

		case 'I':
		{
			morse.pattern = 0x00;   /* 0000 0000; */
			morse.lengthInSymbols = 2;
			morse.lengthInElements = 3;
    4080:	83 e0       	ldi	r24, 0x03	; 3
		break;

		case 'I':
		{
			morse.pattern = 0x00;   /* 0000 0000; */
			morse.lengthInSymbols = 2;
    4082:	72 e0       	ldi	r23, 0x02	; 2
		}
		break;

		case 'I':
		{
			morse.pattern = 0x00;   /* 0000 0000; */
    4084:	60 e0       	ldi	r22, 0x00	; 0
			morse.lengthInSymbols = 2;
			morse.lengthInElements = 3;
		}
		break;
    4086:	08 95       	ret

		case 'J':
		{
			morse.pattern = 0x0e;   /* 0000 1110; */
			morse.lengthInSymbols = 4;
			morse.lengthInElements = 13;
    4088:	8d e0       	ldi	r24, 0x0D	; 13
		break;

		case 'J':
		{
			morse.pattern = 0x0e;   /* 0000 1110; */
			morse.lengthInSymbols = 4;
    408a:	74 e0       	ldi	r23, 0x04	; 4
		}
		break;

		case 'J':
		{
			morse.pattern = 0x0e;   /* 0000 1110; */
    408c:	6e e0       	ldi	r22, 0x0E	; 14
			morse.lengthInSymbols = 4;
			morse.lengthInElements = 13;
		}
		break;
    408e:	08 95       	ret

		case 'K':
		{
			morse.pattern = 0x05;   /* 0000 0101; */
			morse.lengthInSymbols = 3;
			morse.lengthInElements = 9;
    4090:	89 e0       	ldi	r24, 0x09	; 9
		break;

		case 'K':
		{
			morse.pattern = 0x05;   /* 0000 0101; */
			morse.lengthInSymbols = 3;
    4092:	73 e0       	ldi	r23, 0x03	; 3
		}
		break;

		case 'K':
		{
			morse.pattern = 0x05;   /* 0000 0101; */
    4094:	65 e0       	ldi	r22, 0x05	; 5
			morse.lengthInSymbols = 3;
			morse.lengthInElements = 9;
		}
		break;
    4096:	08 95       	ret

		case 'L':
		{
			morse.pattern = 0x02;   /* 0000 0010; */
			morse.lengthInSymbols = 4;
			morse.lengthInElements = 9;
    4098:	89 e0       	ldi	r24, 0x09	; 9
		break;

		case 'L':
		{
			morse.pattern = 0x02;   /* 0000 0010; */
			morse.lengthInSymbols = 4;
    409a:	74 e0       	ldi	r23, 0x04	; 4
		}
		break;

		case 'L':
		{
			morse.pattern = 0x02;   /* 0000 0010; */
    409c:	62 e0       	ldi	r22, 0x02	; 2
			morse.lengthInSymbols = 4;
			morse.lengthInElements = 9;
		}
		break;
    409e:	08 95       	ret

		case 'M':
		{
			morse.pattern = 0x03;   /* 0000 0011; */
			morse.lengthInSymbols = 2;
			morse.lengthInElements = 7;
    40a0:	87 e0       	ldi	r24, 0x07	; 7
		break;

		case 'M':
		{
			morse.pattern = 0x03;   /* 0000 0011; */
			morse.lengthInSymbols = 2;
    40a2:	72 e0       	ldi	r23, 0x02	; 2
		}
		break;

		case 'M':
		{
			morse.pattern = 0x03;   /* 0000 0011; */
    40a4:	63 e0       	ldi	r22, 0x03	; 3
			morse.lengthInSymbols = 2;
			morse.lengthInElements = 7;
		}
		break;
    40a6:	08 95       	ret

		case 'N':
		{
			morse.pattern = 0x01;   /* 0000 0001; */
			morse.lengthInSymbols = 2;
			morse.lengthInElements = 5;
    40a8:	85 e0       	ldi	r24, 0x05	; 5
		break;

		case 'N':
		{
			morse.pattern = 0x01;   /* 0000 0001; */
			morse.lengthInSymbols = 2;
    40aa:	72 e0       	ldi	r23, 0x02	; 2
		}
		break;

		case 'N':
		{
			morse.pattern = 0x01;   /* 0000 0001; */
    40ac:	61 e0       	ldi	r22, 0x01	; 1
			morse.lengthInSymbols = 2;
			morse.lengthInElements = 5;
		}
		break;
    40ae:	08 95       	ret

		case 'O':
		{
			morse.pattern = 0x07;   /* 0000 0111; */
			morse.lengthInSymbols = 3;
			morse.lengthInElements = 11;
    40b0:	8b e0       	ldi	r24, 0x0B	; 11
		break;

		case 'O':
		{
			morse.pattern = 0x07;   /* 0000 0111; */
			morse.lengthInSymbols = 3;
    40b2:	73 e0       	ldi	r23, 0x03	; 3
		}
		break;

		case 'O':
		{
			morse.pattern = 0x07;   /* 0000 0111; */
    40b4:	67 e0       	ldi	r22, 0x07	; 7
			morse.lengthInSymbols = 3;
			morse.lengthInElements = 11;
		}
		break;
    40b6:	08 95       	ret

		case 'P':
		{
			morse.pattern = 0x06;   /* 0000 0110; */
			morse.lengthInSymbols = 4;
			morse.lengthInElements = 11;
    40b8:	8b e0       	ldi	r24, 0x0B	; 11
		break;

		case 'P':
		{
			morse.pattern = 0x06;   /* 0000 0110; */
			morse.lengthInSymbols = 4;
    40ba:	74 e0       	ldi	r23, 0x04	; 4
		}
		break;

		case 'P':
		{
			morse.pattern = 0x06;   /* 0000 0110; */
    40bc:	66 e0       	ldi	r22, 0x06	; 6
			morse.lengthInSymbols = 4;
			morse.lengthInElements = 11;
		}
		break;
    40be:	08 95       	ret

		case 'Q':
		{
			morse.pattern = 0x0b;   /* 0000 1011; */
			morse.lengthInSymbols = 4;
			morse.lengthInElements = 13;
    40c0:	8d e0       	ldi	r24, 0x0D	; 13
		break;

		case 'Q':
		{
			morse.pattern = 0x0b;   /* 0000 1011; */
			morse.lengthInSymbols = 4;
    40c2:	74 e0       	ldi	r23, 0x04	; 4
		}
		break;

		case 'Q':
		{
			morse.pattern = 0x0b;   /* 0000 1011; */
    40c4:	6b e0       	ldi	r22, 0x0B	; 11
			morse.lengthInSymbols = 4;
			morse.lengthInElements = 13;
		}
		break;
    40c6:	08 95       	ret

		case 'R':
		{
			morse.pattern = 0x02;   /* 0000 0010; */
			morse.lengthInSymbols = 3;
			morse.lengthInElements = 7;
    40c8:	87 e0       	ldi	r24, 0x07	; 7
		break;

		case 'R':
		{
			morse.pattern = 0x02;   /* 0000 0010; */
			morse.lengthInSymbols = 3;
    40ca:	73 e0       	ldi	r23, 0x03	; 3
		}
		break;

		case 'R':
		{
			morse.pattern = 0x02;   /* 0000 0010; */
    40cc:	62 e0       	ldi	r22, 0x02	; 2
			morse.lengthInSymbols = 3;
			morse.lengthInElements = 7;
		}
		break;
    40ce:	08 95       	ret

		case 'S':
		{
			morse.pattern = 0x00;   /* 0000 0000; */
			morse.lengthInSymbols = 3;
			morse.lengthInElements = 5;
    40d0:	85 e0       	ldi	r24, 0x05	; 5
		break;

		case 'S':
		{
			morse.pattern = 0x00;   /* 0000 0000; */
			morse.lengthInSymbols = 3;
    40d2:	73 e0       	ldi	r23, 0x03	; 3
		}
		break;

		case 'S':
		{
			morse.pattern = 0x00;   /* 0000 0000; */
    40d4:	60 e0       	ldi	r22, 0x00	; 0
			morse.lengthInSymbols = 3;
			morse.lengthInElements = 5;
		}
		break;
    40d6:	08 95       	ret

		case 'T':
		{
			morse.pattern = 0x01;   /* 0000 0001; */
			morse.lengthInSymbols = 1;
			morse.lengthInElements = 3;
    40d8:	83 e0       	ldi	r24, 0x03	; 3
		break;

		case 'T':
		{
			morse.pattern = 0x01;   /* 0000 0001; */
			morse.lengthInSymbols = 1;
    40da:	71 e0       	ldi	r23, 0x01	; 1
		}
		break;

		case 'T':
		{
			morse.pattern = 0x01;   /* 0000 0001; */
    40dc:	61 e0       	ldi	r22, 0x01	; 1
			morse.lengthInSymbols = 1;
			morse.lengthInElements = 3;
		}
		break;
    40de:	08 95       	ret

		case 'U':
		{
			morse.pattern = 0x04;   /* 0000 0100; */
			morse.lengthInSymbols = 3;
			morse.lengthInElements = 7;
    40e0:	87 e0       	ldi	r24, 0x07	; 7
		break;

		case 'U':
		{
			morse.pattern = 0x04;   /* 0000 0100; */
			morse.lengthInSymbols = 3;
    40e2:	73 e0       	ldi	r23, 0x03	; 3
		}
		break;

		case 'U':
		{
			morse.pattern = 0x04;   /* 0000 0100; */
    40e4:	64 e0       	ldi	r22, 0x04	; 4
			morse.lengthInSymbols = 3;
			morse.lengthInElements = 7;
		}
		break;
    40e6:	08 95       	ret

		case 'V':
		{
			morse.pattern = 0x08;   /* 0000 1000; */
			morse.lengthInSymbols = 4;
			morse.lengthInElements = 9;
    40e8:	89 e0       	ldi	r24, 0x09	; 9
		break;

		case 'V':
		{
			morse.pattern = 0x08;   /* 0000 1000; */
			morse.lengthInSymbols = 4;
    40ea:	74 e0       	ldi	r23, 0x04	; 4
		}
		break;

		case 'V':
		{
			morse.pattern = 0x08;   /* 0000 1000; */
    40ec:	68 e0       	ldi	r22, 0x08	; 8
			morse.lengthInSymbols = 4;
			morse.lengthInElements = 9;
		}
		break;
    40ee:	08 95       	ret

		case 'W':
		{
			morse.pattern = 0x06;   /* 0000 0110; */
			morse.lengthInSymbols = 3;
			morse.lengthInElements = 9;
    40f0:	89 e0       	ldi	r24, 0x09	; 9
		break;

		case 'W':
		{
			morse.pattern = 0x06;   /* 0000 0110; */
			morse.lengthInSymbols = 3;
    40f2:	73 e0       	ldi	r23, 0x03	; 3
		}
		break;

		case 'W':
		{
			morse.pattern = 0x06;   /* 0000 0110; */
    40f4:	66 e0       	ldi	r22, 0x06	; 6
			morse.lengthInSymbols = 3;
			morse.lengthInElements = 9;
		}
		break;
    40f6:	08 95       	ret

		case 'X':
		{
			morse.pattern = 0x09;   /* 0000 1001; */
			morse.lengthInSymbols = 4;
			morse.lengthInElements = 11;
    40f8:	8b e0       	ldi	r24, 0x0B	; 11
		break;

		case 'X':
		{
			morse.pattern = 0x09;   /* 0000 1001; */
			morse.lengthInSymbols = 4;
    40fa:	74 e0       	ldi	r23, 0x04	; 4
		}
		break;

		case 'X':
		{
			morse.pattern = 0x09;   /* 0000 1001; */
    40fc:	69 e0       	ldi	r22, 0x09	; 9
			morse.lengthInSymbols = 4;
			morse.lengthInElements = 11;
		}
		break;
    40fe:	08 95       	ret

		case 'Y':
		{
			morse.pattern = 0x0d;   /* 0000 1101; */
			morse.lengthInSymbols = 4;
			morse.lengthInElements = 13;
    4100:	8d e0       	ldi	r24, 0x0D	; 13
		break;

		case 'Y':
		{
			morse.pattern = 0x0d;   /* 0000 1101; */
			morse.lengthInSymbols = 4;
    4102:	74 e0       	ldi	r23, 0x04	; 4
		}
		break;

		case 'Y':
		{
			morse.pattern = 0x0d;   /* 0000 1101; */
    4104:	6d e0       	ldi	r22, 0x0D	; 13
			morse.lengthInSymbols = 4;
			morse.lengthInElements = 13;
		}
		break;
    4106:	08 95       	ret

		case 'Z':
		{
			morse.pattern = 0x03;   /* 0000 0011; */
			morse.lengthInSymbols = 4;
			morse.lengthInElements = 11;
    4108:	8b e0       	ldi	r24, 0x0B	; 11
		break;

		case 'Z':
		{
			morse.pattern = 0x03;   /* 0000 0011; */
			morse.lengthInSymbols = 4;
    410a:	74 e0       	ldi	r23, 0x04	; 4
		}
		break;

		case 'Z':
		{
			morse.pattern = 0x03;   /* 0000 0011; */
    410c:	63 e0       	ldi	r22, 0x03	; 3
			morse.lengthInSymbols = 4;
			morse.lengthInElements = 11;
		}
		break;
    410e:	08 95       	ret

		case '0':
		{
			morse.pattern = 0x1f;   /* 0001 1111; */
			morse.lengthInSymbols = 5;
			morse.lengthInElements = 19;
    4110:	83 e1       	ldi	r24, 0x13	; 19
		break;

		case '0':
		{
			morse.pattern = 0x1f;   /* 0001 1111; */
			morse.lengthInSymbols = 5;
    4112:	75 e0       	ldi	r23, 0x05	; 5
		}
		break;

		case '0':
		{
			morse.pattern = 0x1f;   /* 0001 1111; */
    4114:	6f e1       	ldi	r22, 0x1F	; 31
			morse.lengthInSymbols = 5;
			morse.lengthInElements = 19;
		}
		break;
    4116:	08 95       	ret

		case '1':
		{
			morse.pattern = 0x1e;   /* 0001 1110; */
			morse.lengthInSymbols = 5;
			morse.lengthInElements = 17;
    4118:	81 e1       	ldi	r24, 0x11	; 17
		break;

		case '1':
		{
			morse.pattern = 0x1e;   /* 0001 1110; */
			morse.lengthInSymbols = 5;
    411a:	75 e0       	ldi	r23, 0x05	; 5
		}
		break;

		case '1':
		{
			morse.pattern = 0x1e;   /* 0001 1110; */
    411c:	6e e1       	ldi	r22, 0x1E	; 30
			morse.lengthInSymbols = 5;
			morse.lengthInElements = 17;
		}
		break;
    411e:	08 95       	ret

		case '2':
		{
			morse.pattern = 0x1c;   /* 0001 1100; */
			morse.lengthInSymbols = 5;
			morse.lengthInElements = 15;
    4120:	8f e0       	ldi	r24, 0x0F	; 15
		break;

		case '2':
		{
			morse.pattern = 0x1c;   /* 0001 1100; */
			morse.lengthInSymbols = 5;
    4122:	75 e0       	ldi	r23, 0x05	; 5
		}
		break;

		case '2':
		{
			morse.pattern = 0x1c;   /* 0001 1100; */
    4124:	6c e1       	ldi	r22, 0x1C	; 28
			morse.lengthInSymbols = 5;
			morse.lengthInElements = 15;
		}
		break;
    4126:	08 95       	ret

		case '3':
		{
			morse.pattern = 0x18;   /* 0001 1000; */
			morse.lengthInSymbols = 5;
			morse.lengthInElements = 13;
    4128:	8d e0       	ldi	r24, 0x0D	; 13
		break;

		case '3':
		{
			morse.pattern = 0x18;   /* 0001 1000; */
			morse.lengthInSymbols = 5;
    412a:	75 e0       	ldi	r23, 0x05	; 5
		}
		break;

		case '3':
		{
			morse.pattern = 0x18;   /* 0001 1000; */
    412c:	68 e1       	ldi	r22, 0x18	; 24
			morse.lengthInSymbols = 5;
			morse.lengthInElements = 13;
		}
		break;
    412e:	08 95       	ret

		case '4':
		{
			morse.pattern = 0x10;   /* 0001 0000; */
			morse.lengthInSymbols = 5;
			morse.lengthInElements = 11;
    4130:	8b e0       	ldi	r24, 0x0B	; 11
		break;

		case '4':
		{
			morse.pattern = 0x10;   /* 0001 0000; */
			morse.lengthInSymbols = 5;
    4132:	75 e0       	ldi	r23, 0x05	; 5
		}
		break;

		case '4':
		{
			morse.pattern = 0x10;   /* 0001 0000; */
    4134:	60 e1       	ldi	r22, 0x10	; 16
			morse.lengthInSymbols = 5;
			morse.lengthInElements = 11;
		}
		break;
    4136:	08 95       	ret

		case '5':
		{
			morse.pattern = 0x00;   /* 0000 0000; */
			morse.lengthInSymbols = 5;
			morse.lengthInElements = 9;
    4138:	89 e0       	ldi	r24, 0x09	; 9
		break;

		case '5':
		{
			morse.pattern = 0x00;   /* 0000 0000; */
			morse.lengthInSymbols = 5;
    413a:	75 e0       	ldi	r23, 0x05	; 5
		}
		break;

		case '5':
		{
			morse.pattern = 0x00;   /* 0000 0000; */
    413c:	60 e0       	ldi	r22, 0x00	; 0
			morse.lengthInSymbols = 5;
			morse.lengthInElements = 9;
		}
		break;
    413e:	08 95       	ret

		case '6':
		{
			morse.pattern = 0x01;   /* 0000 0001; */
			morse.lengthInSymbols = 5;
			morse.lengthInElements = 11;
    4140:	8b e0       	ldi	r24, 0x0B	; 11
		break;

		case '6':
		{
			morse.pattern = 0x01;   /* 0000 0001; */
			morse.lengthInSymbols = 5;
    4142:	75 e0       	ldi	r23, 0x05	; 5
		}
		break;

		case '6':
		{
			morse.pattern = 0x01;   /* 0000 0001; */
    4144:	61 e0       	ldi	r22, 0x01	; 1
			morse.lengthInSymbols = 5;
			morse.lengthInElements = 11;
		}
		break;
    4146:	08 95       	ret

		case '7':
		{
			morse.pattern = 0x03;   /* 0000 0011; */
			morse.lengthInSymbols = 5;
			morse.lengthInElements = 13;
    4148:	8d e0       	ldi	r24, 0x0D	; 13
		break;

		case '7':
		{
			morse.pattern = 0x03;   /* 0000 0011; */
			morse.lengthInSymbols = 5;
    414a:	75 e0       	ldi	r23, 0x05	; 5
		}
		break;

		case '7':
		{
			morse.pattern = 0x03;   /* 0000 0011; */
    414c:	63 e0       	ldi	r22, 0x03	; 3
			morse.lengthInSymbols = 5;
			morse.lengthInElements = 13;
		}
		break;
    414e:	08 95       	ret

		case '8':
		{
			morse.pattern = 0x07;   /* 0000 0111; */
			morse.lengthInSymbols = 5;
			morse.lengthInElements = 15;
    4150:	8f e0       	ldi	r24, 0x0F	; 15
		break;

		case '8':
		{
			morse.pattern = 0x07;   /* 0000 0111; */
			morse.lengthInSymbols = 5;
    4152:	75 e0       	ldi	r23, 0x05	; 5
		}
		break;

		case '8':
		{
			morse.pattern = 0x07;   /* 0000 0111; */
    4154:	67 e0       	ldi	r22, 0x07	; 7
			morse.lengthInSymbols = 5;
			morse.lengthInElements = 15;
		}
		break;
    4156:	08 95       	ret

		case '9':
		{
			morse.pattern = 0x0f;   /* 0000 1111; */
			morse.lengthInSymbols = 5;
			morse.lengthInElements = 17;
    4158:	81 e1       	ldi	r24, 0x11	; 17
		break;

		case '9':
		{
			morse.pattern = 0x0f;   /* 0000 1111; */
			morse.lengthInSymbols = 5;
    415a:	75 e0       	ldi	r23, 0x05	; 5
		}
		break;

		case '9':
		{
			morse.pattern = 0x0f;   /* 0000 1111; */
    415c:	6f e0       	ldi	r22, 0x0F	; 15
			morse.lengthInSymbols = 5;
			morse.lengthInElements = 17;
		}
		break;
    415e:	08 95       	ret

		case '.':
		{
			morse.pattern = 0x2a;   /* 0010 1010; */
			morse.lengthInSymbols = 6;
			morse.lengthInElements = 17;
    4160:	81 e1       	ldi	r24, 0x11	; 17
		break;

		case '.':
		{
			morse.pattern = 0x2a;   /* 0010 1010; */
			morse.lengthInSymbols = 6;
    4162:	76 e0       	ldi	r23, 0x06	; 6
		}
		break;

		case '.':
		{
			morse.pattern = 0x2a;   /* 0010 1010; */
    4164:	6a e2       	ldi	r22, 0x2A	; 42
			morse.lengthInSymbols = 6;
			morse.lengthInElements = 17;
		}
		break;
    4166:	08 95       	ret

		case ',':
		{
			morse.pattern = 0x33;   /* 0011 0011; */
			morse.lengthInSymbols = 6;
			morse.lengthInElements = 19;
    4168:	83 e1       	ldi	r24, 0x13	; 19
		break;

		case ',':
		{
			morse.pattern = 0x33;   /* 0011 0011; */
			morse.lengthInSymbols = 6;
    416a:	76 e0       	ldi	r23, 0x06	; 6
		}
		break;

		case ',':
		{
			morse.pattern = 0x33;   /* 0011 0011; */
    416c:	63 e3       	ldi	r22, 0x33	; 51
			morse.lengthInSymbols = 6;
			morse.lengthInElements = 19;
		}
		break;
    416e:	08 95       	ret

		case '?':
		{
			morse.pattern = 0x0c;   /* 0000 1100; */
			morse.lengthInSymbols = 6;
			morse.lengthInElements = 15;
    4170:	8f e0       	ldi	r24, 0x0F	; 15
		break;

		case '?':
		{
			morse.pattern = 0x0c;   /* 0000 1100; */
			morse.lengthInSymbols = 6;
    4172:	76 e0       	ldi	r23, 0x06	; 6
		}
		break;

		case '?':
		{
			morse.pattern = 0x0c;   /* 0000 1100; */
    4174:	6c e0       	ldi	r22, 0x0C	; 12
			morse.lengthInSymbols = 6;
			morse.lengthInElements = 15;
		}
		break;
    4176:	08 95       	ret

		case '\'':
		{
			morse.pattern = 0x1e;   /* 0001 1110; */
			morse.lengthInSymbols = 6;
			morse.lengthInElements = 19;
    4178:	83 e1       	ldi	r24, 0x13	; 19
		break;

		case '\'':
		{
			morse.pattern = 0x1e;   /* 0001 1110; */
			morse.lengthInSymbols = 6;
    417a:	76 e0       	ldi	r23, 0x06	; 6
		}
		break;

		case '\'':
		{
			morse.pattern = 0x1e;   /* 0001 1110; */
    417c:	6e e1       	ldi	r22, 0x1E	; 30
			morse.lengthInSymbols = 6;
			morse.lengthInElements = 19;
		}
		break;
    417e:	08 95       	ret

		case '!':
		{
			morse.pattern = 0x35;   /* 0011 0101; */
			morse.lengthInSymbols = 6;
			morse.lengthInElements = 19;
    4180:	83 e1       	ldi	r24, 0x13	; 19
		break;

		case '!':
		{
			morse.pattern = 0x35;   /* 0011 0101; */
			morse.lengthInSymbols = 6;
    4182:	76 e0       	ldi	r23, 0x06	; 6
		}
		break;

		case '!':
		{
			morse.pattern = 0x35;   /* 0011 0101; */
    4184:	65 e3       	ldi	r22, 0x35	; 53
			morse.lengthInSymbols = 6;
			morse.lengthInElements = 19;
		}
		break;
    4186:	08 95       	ret

		case '/':
		{
			morse.pattern = 0x09;   /* 0000 1001; */
			morse.lengthInSymbols = 5;
			morse.lengthInElements = 13;
    4188:	8d e0       	ldi	r24, 0x0D	; 13
		break;

		case '/':
		{
			morse.pattern = 0x09;   /* 0000 1001; */
			morse.lengthInSymbols = 5;
    418a:	75 e0       	ldi	r23, 0x05	; 5
		}
		break;

		case '/':
		{
			morse.pattern = 0x09;   /* 0000 1001; */
    418c:	69 e0       	ldi	r22, 0x09	; 9
			morse.lengthInSymbols = 5;
			morse.lengthInElements = 13;
		}
		break;
    418e:	08 95       	ret

		case '(':
		{
			morse.pattern = 0x0d;   /* 0000 1101; */
			morse.lengthInSymbols = 5;
			morse.lengthInElements = 15;
    4190:	8f e0       	ldi	r24, 0x0F	; 15
		break;

		case '(':
		{
			morse.pattern = 0x0d;   /* 0000 1101; */
			morse.lengthInSymbols = 5;
    4192:	75 e0       	ldi	r23, 0x05	; 5
		}
		break;

		case '(':
		{
			morse.pattern = 0x0d;   /* 0000 1101; */
    4194:	6d e0       	ldi	r22, 0x0D	; 13
			morse.lengthInSymbols = 5;
			morse.lengthInElements = 15;
		}
		break;
    4196:	08 95       	ret

		case ')':
		{
			morse.pattern = 0x2d;   /* 0010 1101; */
			morse.lengthInSymbols = 6;
			morse.lengthInElements = 19;
    4198:	83 e1       	ldi	r24, 0x13	; 19
		break;

		case ')':
		{
			morse.pattern = 0x2d;   /* 0010 1101; */
			morse.lengthInSymbols = 6;
    419a:	76 e0       	ldi	r23, 0x06	; 6
		}
		break;

		case ')':
		{
			morse.pattern = 0x2d;   /* 0010 1101; */
    419c:	6d e2       	ldi	r22, 0x2D	; 45
			morse.lengthInSymbols = 6;
			morse.lengthInElements = 19;
		}
		break;
    419e:	08 95       	ret

		case '&':
		{
			morse.pattern = 0x02;   /* 0000 0010; */
			morse.lengthInSymbols = 5;
			morse.lengthInElements = 11;
    41a0:	8b e0       	ldi	r24, 0x0B	; 11
		break;

		case '&':
		{
			morse.pattern = 0x02;   /* 0000 0010; */
			morse.lengthInSymbols = 5;
    41a2:	75 e0       	ldi	r23, 0x05	; 5
		}
		break;

		case '&':
		{
			morse.pattern = 0x02;   /* 0000 0010; */
    41a4:	62 e0       	ldi	r22, 0x02	; 2
			morse.lengthInSymbols = 5;
			morse.lengthInElements = 11;
		}
		break;
    41a6:	08 95       	ret

		case ':':
		{
			morse.pattern = 0x07;   /* 0000 0111; */
			morse.lengthInSymbols = 6;
			morse.lengthInElements = 17;
    41a8:	81 e1       	ldi	r24, 0x11	; 17
		break;

		case ':':
		{
			morse.pattern = 0x07;   /* 0000 0111; */
			morse.lengthInSymbols = 6;
    41aa:	76 e0       	ldi	r23, 0x06	; 6
		}
		break;

		case ':':
		{
			morse.pattern = 0x07;   /* 0000 0111; */
    41ac:	67 e0       	ldi	r22, 0x07	; 7
			morse.lengthInSymbols = 6;
			morse.lengthInElements = 17;
		}
		break;
    41ae:	08 95       	ret

		case ';':
		{
			morse.pattern = 0x15;   /* 0001 0101; */
			morse.lengthInSymbols = 6;
			morse.lengthInElements = 12;
    41b0:	8c e0       	ldi	r24, 0x0C	; 12
		break;

		case ';':
		{
			morse.pattern = 0x15;   /* 0001 0101; */
			morse.lengthInSymbols = 6;
    41b2:	76 e0       	ldi	r23, 0x06	; 6
		}
		break;

		case ';':
		{
			morse.pattern = 0x15;   /* 0001 0101; */
    41b4:	65 e1       	ldi	r22, 0x15	; 21
			morse.lengthInSymbols = 6;
			morse.lengthInElements = 12;
		}
		break;
    41b6:	08 95       	ret

		case '=':
		{
			morse.pattern = 0x11;   /* 0001 0001; */
			morse.lengthInSymbols = 5;
			morse.lengthInElements = 13;
    41b8:	8d e0       	ldi	r24, 0x0D	; 13
		break;

		case '=':
		{
			morse.pattern = 0x11;   /* 0001 0001; */
			morse.lengthInSymbols = 5;
    41ba:	75 e0       	ldi	r23, 0x05	; 5
		}
		break;

		case '=':
		{
			morse.pattern = 0x11;   /* 0001 0001; */
    41bc:	61 e1       	ldi	r22, 0x11	; 17
			morse.lengthInSymbols = 5;
			morse.lengthInElements = 13;
		}
		break;
    41be:	08 95       	ret

		case '+':
		{
			morse.pattern = 0x0a;   /* 0000 1010; */
			morse.lengthInSymbols = 5;
			morse.lengthInElements = 13;
    41c0:	8d e0       	ldi	r24, 0x0D	; 13
		break;

		case '+':
		{
			morse.pattern = 0x0a;   /* 0000 1010; */
			morse.lengthInSymbols = 5;
    41c2:	75 e0       	ldi	r23, 0x05	; 5
		}
		break;

		case '+':
		{
			morse.pattern = 0x0a;   /* 0000 1010; */
    41c4:	6a e0       	ldi	r22, 0x0A	; 10
			morse.lengthInSymbols = 5;
			morse.lengthInElements = 13;
		}
		break;
    41c6:	08 95       	ret

		case '-':
		{
			morse.pattern = 0x21;   /* 0010 0001; */
			morse.lengthInSymbols = 6;
			morse.lengthInElements = 15;
    41c8:	8f e0       	ldi	r24, 0x0F	; 15
		break;

		case '-':
		{
			morse.pattern = 0x21;   /* 0010 0001; */
			morse.lengthInSymbols = 6;
    41ca:	76 e0       	ldi	r23, 0x06	; 6
		}
		break;

		case '-':
		{
			morse.pattern = 0x21;   /* 0010 0001; */
    41cc:	61 e2       	ldi	r22, 0x21	; 33
			morse.lengthInSymbols = 6;
			morse.lengthInElements = 15;
		}
		break;
    41ce:	08 95       	ret

		case '_':
		{
			morse.pattern = 0x2c;   /* 0010 1100; */
			morse.lengthInSymbols = 6;
			morse.lengthInElements = 17;
    41d0:	81 e1       	ldi	r24, 0x11	; 17
		break;

		case '_':
		{
			morse.pattern = 0x2c;   /* 0010 1100; */
			morse.lengthInSymbols = 6;
    41d2:	76 e0       	ldi	r23, 0x06	; 6
		}
		break;

		case '_':
		{
			morse.pattern = 0x2c;   /* 0010 1100; */
    41d4:	6c e2       	ldi	r22, 0x2C	; 44
			morse.lengthInSymbols = 6;
			morse.lengthInElements = 17;
		}
		break;
    41d6:	08 95       	ret

		case '"':
		{
			morse.pattern = 0x12;   /* 0001 0010; */
			morse.lengthInSymbols = 6;
			morse.lengthInElements = 15;
    41d8:	8f e0       	ldi	r24, 0x0F	; 15
		break;

		case '"':
		{
			morse.pattern = 0x12;   /* 0001 0010; */
			morse.lengthInSymbols = 6;
    41da:	76 e0       	ldi	r23, 0x06	; 6
		}
		break;

		case '"':
		{
			morse.pattern = 0x12;   /* 0001 0010; */
    41dc:	62 e1       	ldi	r22, 0x12	; 18
			morse.lengthInSymbols = 6;
			morse.lengthInElements = 15;
		}
		break;
    41de:	08 95       	ret

		case '$':
		{
			morse.pattern = 0x48;   /* 0100 1000; */
			morse.lengthInSymbols = 7;
			morse.lengthInElements = 17;
    41e0:	81 e1       	ldi	r24, 0x11	; 17
		break;

		case '$':
		{
			morse.pattern = 0x48;   /* 0100 1000; */
			morse.lengthInSymbols = 7;
    41e2:	77 e0       	ldi	r23, 0x07	; 7
		}
		break;

		case '$':
		{
			morse.pattern = 0x48;   /* 0100 1000; */
    41e4:	68 e4       	ldi	r22, 0x48	; 72
			morse.lengthInSymbols = 7;
			morse.lengthInElements = 17;
		}
		break;
    41e6:	08 95       	ret

		case '@':
		{
			morse.pattern = 0x16;   /* 0001 0110; */
			morse.lengthInSymbols = 6;
			morse.lengthInElements = 17;
    41e8:	81 e1       	ldi	r24, 0x11	; 17
		break;

		case '@':
		{
			morse.pattern = 0x16;   /* 0001 0110; */
			morse.lengthInSymbols = 6;
    41ea:	76 e0       	ldi	r23, 0x06	; 6
		}
		break;

		case '@':
		{
			morse.pattern = 0x16;   /* 0001 0110; */
    41ec:	66 e1       	ldi	r22, 0x16	; 22
			morse.lengthInSymbols = 6;
			morse.lengthInElements = 17;
		}
		break;
    41ee:	08 95       	ret

		case '|':                       /* inter-word space */
		{ morse.pattern = 0xff;         /* 1000 0000; */
		  morse.lengthInSymbols = 7;
		  morse.lengthInElements = 4;   /* adjusted by -3 to account for inter-character space */
    41f0:	84 e0       	ldi	r24, 0x04	; 4
		}
		break;

		case '|':                       /* inter-word space */
		{ morse.pattern = 0xff;         /* 1000 0000; */
		  morse.lengthInSymbols = 7;
    41f2:	77 e0       	ldi	r23, 0x07	; 7
			morse.lengthInElements = 17;
		}
		break;

		case '|':                       /* inter-word space */
		{ morse.pattern = 0xff;         /* 1000 0000; */
    41f4:	6f ef       	ldi	r22, 0xFF	; 255
		  morse.lengthInSymbols = 7;
		  morse.lengthInElements = 4;   /* adjusted by -3 to account for inter-character space */
		}
		break;
    41f6:	08 95       	ret

		case ' ':                       /* inter-word space */
		{ morse.pattern = 0xfe;         /* 1000 0000; */
		  morse.lengthInSymbols = 7;
		  morse.lengthInElements = 7;   /* 4 + 3 (character space) = 7 */
    41f8:	87 e0       	ldi	r24, 0x07	; 7
		}
		break;

		case ' ':                       /* inter-word space */
		{ morse.pattern = 0xfe;         /* 1000 0000; */
		  morse.lengthInSymbols = 7;
    41fa:	77 e0       	ldi	r23, 0x07	; 7
		  morse.lengthInElements = 4;   /* adjusted by -3 to account for inter-character space */
		}
		break;

		case ' ':                       /* inter-word space */
		{ morse.pattern = 0xfe;         /* 1000 0000; */
    41fc:	6e ef       	ldi	r22, 0xFE	; 254
		  morse.lengthInSymbols = 7;
		  morse.lengthInElements = 7;   /* 4 + 3 (character space) = 7 */
		}
		break;
    41fe:	08 95       	ret

		case '<':                       /* long keydown */
		{
			morse.pattern = 0x1f;       /* 0001 1111; */
			morse.lengthInSymbols = 5;
			morse.lengthInElements = 19;
    4200:	83 e1       	ldi	r24, 0x13	; 19
		break;

		case '<':                       /* long keydown */
		{
			morse.pattern = 0x1f;       /* 0001 1111; */
			morse.lengthInSymbols = 5;
    4202:	75 e0       	ldi	r23, 0x05	; 5
		}
		break;

		case '<':                       /* long keydown */
		{
			morse.pattern = 0x1f;       /* 0001 1111; */
    4204:	6f e1       	ldi	r22, 0x1F	; 31
			morse.lengthInSymbols = 5;
			morse.lengthInElements = 19;
		}
		break;
    4206:	08 95       	ret

		default:
		{
			morse.pattern = 0x0000; /* 0000 0000; */
			morse.lengthInSymbols = 0;
			morse.lengthInElements = 0;
    4208:	80 e0       	ldi	r24, 0x00	; 0
		break;

		default:
		{
			morse.pattern = 0x0000; /* 0000 0000; */
			morse.lengthInSymbols = 0;
    420a:	70 e0       	ldi	r23, 0x00	; 0
		}
		break;

		default:
		{
			morse.pattern = 0x0000; /* 0000 0000; */
    420c:	60 e0       	ldi	r22, 0x00	; 0
			morse.lengthInSymbols = 0;
			morse.lengthInElements = 0;
		}
		break;
    420e:	08 95       	ret
	{
		case 'A':
		{
			morse.pattern = 0x02;   /* 0000 0010; */
			morse.lengthInSymbols = 2;
			morse.lengthInElements = 5;
    4210:	85 e0       	ldi	r24, 0x05	; 5
	switch( c )
	{
		case 'A':
		{
			morse.pattern = 0x02;   /* 0000 0010; */
			morse.lengthInSymbols = 2;
    4212:	72 e0       	ldi	r23, 0x02	; 2

	switch( c )
	{
		case 'A':
		{
			morse.pattern = 0x02;   /* 0000 0010; */
    4214:	62 e0       	ldi	r22, 0x02	; 2
		}
		break;
	}

	return( morse);
}
    4216:	08 95       	ret

00004218 <_Z9makeMorsePcPhS0_>:
 *  Call this function with a NULL argument at intervals of 1 element of time to generate Morse code.
 *  Once loaded with a string each call to this function returns a BOOL indicating whether a CW carrier should be sent
 *  Pass in a pointer to a BOOL in the second and third arguments:
 */
BOOL makeMorse(char* s, BOOL* repeating, BOOL* finished)
{
    4218:	cf 93       	push	r28
    421a:	df 93       	push	r29
    421c:	ea 01       	movw	r28, r20
	static uint8_t addedSpace;      /* adds additional time to make an inter-character space */
	static BOOL completedString = FALSE;
	static BOOL carrierOn = FALSE;
	static BOOL holdKeyDown = FALSE;

	if(s)   /* load a new NULL-terminated string to send */
    421e:	00 97       	sbiw	r24, 0x00	; 0
    4220:	b1 f1       	breq	.+108    	; 0x428e <_Z9makeMorsePcPhS0_+0x76>
	{
		holdKeyDown = FALSE;
    4222:	10 92 0c 06 	sts	0x060C, r1	; 0x80060c <_ZZ9makeMorsePcPhS0_E11holdKeyDown>

		if(repeating)
    4226:	61 15       	cp	r22, r1
    4228:	71 05       	cpc	r23, r1
    422a:	21 f0       	breq	.+8      	; 0x4234 <_Z9makeMorsePcPhS0_+0x1c>
		{
			repeat = *repeating;
    422c:	db 01       	movw	r26, r22
    422e:	2c 91       	ld	r18, X
    4230:	20 93 22 01 	sts	0x0122, r18	; 0x800122 <_ZZ9makeMorsePcPhS0_E6repeat>
		}

		if(*s)
    4234:	fc 01       	movw	r30, r24
    4236:	20 81       	ld	r18, Z
    4238:	22 23       	and	r18, r18
    423a:	d9 f0       	breq	.+54     	; 0x4272 <_Z9makeMorsePcPhS0_+0x5a>
		{
			str = s;
    423c:	90 93 0b 06 	sts	0x060B, r25	; 0x80060b <_ZZ9makeMorsePcPhS0_E3str+0x1>
    4240:	80 93 0a 06 	sts	0x060A, r24	; 0x80060a <_ZZ9makeMorsePcPhS0_E3str>
			c = ' ';
    4244:	80 e2       	ldi	r24, 0x20	; 32
    4246:	80 93 21 01 	sts	0x0121, r24	; 0x800121 <_ZZ9makeMorsePcPhS0_E1c>
			morseInProgress = getMorseChar(*str);
    424a:	82 2f       	mov	r24, r18
    424c:	0e 94 19 20 	call	0x4032	; 0x4032 <_Z12getMorseCharc>
    4250:	60 93 07 06 	sts	0x0607, r22	; 0x800607 <_ZZ9makeMorsePcPhS0_E15morseInProgress>
    4254:	70 93 08 06 	sts	0x0608, r23	; 0x800608 <_ZZ9makeMorsePcPhS0_E15morseInProgress+0x1>
    4258:	80 93 09 06 	sts	0x0609, r24	; 0x800609 <_ZZ9makeMorsePcPhS0_E15morseInProgress+0x2>
			charIndex = 0;
    425c:	10 92 06 06 	sts	0x0606, r1	; 0x800606 <_ZZ9makeMorsePcPhS0_E9charIndex>
			symbolIndex = 0;
    4260:	10 92 05 06 	sts	0x0605, r1	; 0x800605 <_ZZ9makeMorsePcPhS0_E11symbolIndex>
			elementIndex = 0;
    4264:	10 92 04 06 	sts	0x0604, r1	; 0x800604 <_ZZ9makeMorsePcPhS0_E12elementIndex>
			addedSpace = 0;
    4268:	10 92 03 06 	sts	0x0603, r1	; 0x800603 <_ZZ9makeMorsePcPhS0_E10addedSpace>
			completedString = FALSE;
    426c:	10 92 02 06 	sts	0x0602, r1	; 0x800602 <_ZZ9makeMorsePcPhS0_E15completedString>
    4270:	0a c0       	rjmp	.+20     	; 0x4286 <_Z9makeMorsePcPhS0_+0x6e>
		}
		else    /* a zero-length string shuts down makeMorse */
		{
			str = NULL;
    4272:	10 92 0b 06 	sts	0x060B, r1	; 0x80060b <_ZZ9makeMorsePcPhS0_E3str+0x1>
    4276:	10 92 0a 06 	sts	0x060A, r1	; 0x80060a <_ZZ9makeMorsePcPhS0_E3str>
			completedString = TRUE;
    427a:	81 e0       	ldi	r24, 0x01	; 1
    427c:	80 93 02 06 	sts	0x0602, r24	; 0x800602 <_ZZ9makeMorsePcPhS0_E15completedString>
			if(finished)
    4280:	20 97       	sbiw	r28, 0x00	; 0
    4282:	09 f0       	breq	.+2      	; 0x4286 <_Z9makeMorsePcPhS0_+0x6e>
			{
				*finished = TRUE;
    4284:	88 83       	st	Y, r24
			}
		}

		carrierOn = OFF;
    4286:	10 92 01 06 	sts	0x0601, r1	; 0x800601 <_ZZ9makeMorsePcPhS0_E9carrierOn>
		return( OFF);
    428a:	80 e0       	ldi	r24, 0x00	; 0
    428c:	c0 c0       	rjmp	.+384    	; 0x440e <_Z9makeMorsePcPhS0_+0x1f6>
	}
	else if(str)
    428e:	e0 91 0a 06 	lds	r30, 0x060A	; 0x80060a <_ZZ9makeMorsePcPhS0_E3str>
    4292:	f0 91 0b 06 	lds	r31, 0x060B	; 0x80060b <_ZZ9makeMorsePcPhS0_E3str+0x1>
    4296:	30 97       	sbiw	r30, 0x00	; 0
    4298:	09 f4       	brne	.+2      	; 0x429c <_Z9makeMorsePcPhS0_+0x84>
    429a:	aa c0       	rjmp	.+340    	; 0x43f0 <_Z9makeMorsePcPhS0_+0x1d8>
	{
		if(repeating)
    429c:	61 15       	cp	r22, r1
    429e:	71 05       	cpc	r23, r1
    42a0:	21 f0       	breq	.+8      	; 0x42aa <_Z9makeMorsePcPhS0_+0x92>
		{
			*repeating = repeat;
    42a2:	80 91 22 01 	lds	r24, 0x0122	; 0x800122 <_ZZ9makeMorsePcPhS0_E6repeat>
    42a6:	db 01       	movw	r26, r22
    42a8:	8c 93       	st	X, r24
		}

		if(completedString)
    42aa:	80 91 02 06 	lds	r24, 0x0602	; 0x800602 <_ZZ9makeMorsePcPhS0_E15completedString>
    42ae:	88 23       	and	r24, r24
    42b0:	49 f0       	breq	.+18     	; 0x42c4 <_Z9makeMorsePcPhS0_+0xac>
		{
			if(finished)
    42b2:	20 97       	sbiw	r28, 0x00	; 0
    42b4:	09 f4       	brne	.+2      	; 0x42b8 <_Z9makeMorsePcPhS0_+0xa0>
    42b6:	a8 c0       	rjmp	.+336    	; 0x4408 <_Z9makeMorsePcPhS0_+0x1f0>
			{
				*finished = TRUE;
    42b8:	81 e0       	ldi	r24, 0x01	; 1
    42ba:	88 83       	st	Y, r24
				holdKeyDown = FALSE;
    42bc:	10 92 0c 06 	sts	0x060C, r1	; 0x80060c <_ZZ9makeMorsePcPhS0_E11holdKeyDown>
			}
			return( OFF);
    42c0:	80 e0       	ldi	r24, 0x00	; 0
    42c2:	a5 c0       	rjmp	.+330    	; 0x440e <_Z9makeMorsePcPhS0_+0x1f6>
		}

		if(elementIndex)
    42c4:	80 91 04 06 	lds	r24, 0x0604	; 0x800604 <_ZZ9makeMorsePcPhS0_E12elementIndex>
    42c8:	88 23       	and	r24, r24
    42ca:	21 f0       	breq	.+8      	; 0x42d4 <_Z9makeMorsePcPhS0_+0xbc>
		{
			elementIndex--;
    42cc:	81 50       	subi	r24, 0x01	; 1
    42ce:	80 93 04 06 	sts	0x0604, r24	; 0x800604 <_ZZ9makeMorsePcPhS0_E12elementIndex>
    42d2:	7f c0       	rjmp	.+254    	; 0x43d2 <_Z9makeMorsePcPhS0_+0x1ba>
		}
		else if(carrierOn && !holdKeyDown)  /* carrier is on, so turn it off and wait appropriate amount of space */
    42d4:	80 91 01 06 	lds	r24, 0x0601	; 0x800601 <_ZZ9makeMorsePcPhS0_E9carrierOn>
    42d8:	88 23       	and	r24, r24
    42da:	81 f0       	breq	.+32     	; 0x42fc <_Z9makeMorsePcPhS0_+0xe4>
    42dc:	80 91 0c 06 	lds	r24, 0x060C	; 0x80060c <_ZZ9makeMorsePcPhS0_E11holdKeyDown>
    42e0:	81 11       	cpse	r24, r1
    42e2:	0c c0       	rjmp	.+24     	; 0x42fc <_Z9makeMorsePcPhS0_+0xe4>
		{
			carrierOn = FALSE;
    42e4:	10 92 01 06 	sts	0x0601, r1	; 0x800601 <_ZZ9makeMorsePcPhS0_E9carrierOn>
			/* wait one element = inter-symbol space */
			if(addedSpace)
    42e8:	80 91 03 06 	lds	r24, 0x0603	; 0x800603 <_ZZ9makeMorsePcPhS0_E10addedSpace>
    42ec:	88 23       	and	r24, r24
    42ee:	09 f4       	brne	.+2      	; 0x42f2 <_Z9makeMorsePcPhS0_+0xda>
    42f0:	70 c0       	rjmp	.+224    	; 0x43d2 <_Z9makeMorsePcPhS0_+0x1ba>
			{
				elementIndex = addedSpace;
    42f2:	80 93 04 06 	sts	0x0604, r24	; 0x800604 <_ZZ9makeMorsePcPhS0_E12elementIndex>
				addedSpace = 0;
    42f6:	10 92 03 06 	sts	0x0603, r1	; 0x800603 <_ZZ9makeMorsePcPhS0_E10addedSpace>
    42fa:	6b c0       	rjmp	.+214    	; 0x43d2 <_Z9makeMorsePcPhS0_+0x1ba>
			}
			/* wait inter-character space */
		}
		else    /* carrier is off, so turn it on and get next symbol */
		{
			if(symbolIndex >= morseInProgress.lengthInSymbols)
    42fc:	90 91 08 06 	lds	r25, 0x0608	; 0x800608 <_ZZ9makeMorsePcPhS0_E15morseInProgress+0x1>
    4300:	80 91 05 06 	lds	r24, 0x0605	; 0x800605 <_ZZ9makeMorsePcPhS0_E11symbolIndex>
    4304:	89 17       	cp	r24, r25
    4306:	90 f1       	brcs	.+100    	; 0x436c <_Z9makeMorsePcPhS0_+0x154>
			{
				c = (*(str + ++charIndex));
    4308:	80 91 06 06 	lds	r24, 0x0606	; 0x800606 <_ZZ9makeMorsePcPhS0_E9charIndex>
    430c:	8f 5f       	subi	r24, 0xFF	; 255
    430e:	80 93 06 06 	sts	0x0606, r24	; 0x800606 <_ZZ9makeMorsePcPhS0_E9charIndex>
    4312:	df 01       	movw	r26, r30
    4314:	a8 0f       	add	r26, r24
    4316:	b1 1d       	adc	r27, r1
    4318:	8c 91       	ld	r24, X
    431a:	80 93 21 01 	sts	0x0121, r24	; 0x800121 <_ZZ9makeMorsePcPhS0_E1c>

				if(!c)  /* wrap to beginning of text */
    431e:	81 11       	cpse	r24, r1
    4320:	19 c0       	rjmp	.+50     	; 0x4354 <_Z9makeMorsePcPhS0_+0x13c>
				{
					if(repeat)
    4322:	80 91 22 01 	lds	r24, 0x0122	; 0x800122 <_ZZ9makeMorsePcPhS0_E6repeat>
    4326:	88 23       	and	r24, r24
    4328:	31 f0       	breq	.+12     	; 0x4336 <_Z9makeMorsePcPhS0_+0x11e>
					{
						c = *str;
    432a:	80 81       	ld	r24, Z
    432c:	80 93 21 01 	sts	0x0121, r24	; 0x800121 <_ZZ9makeMorsePcPhS0_E1c>
						charIndex = 0;
    4330:	10 92 06 06 	sts	0x0606, r1	; 0x800606 <_ZZ9makeMorsePcPhS0_E9charIndex>
    4334:	0f c0       	rjmp	.+30     	; 0x4354 <_Z9makeMorsePcPhS0_+0x13c>
					}
					else
					{
						str = NULL;
    4336:	10 92 0b 06 	sts	0x060B, r1	; 0x80060b <_ZZ9makeMorsePcPhS0_E3str+0x1>
    433a:	10 92 0a 06 	sts	0x060A, r1	; 0x80060a <_ZZ9makeMorsePcPhS0_E3str>
						carrierOn = OFF;
    433e:	10 92 01 06 	sts	0x0601, r1	; 0x800601 <_ZZ9makeMorsePcPhS0_E9carrierOn>
						completedString = TRUE;
    4342:	91 e0       	ldi	r25, 0x01	; 1
    4344:	90 93 02 06 	sts	0x0602, r25	; 0x800602 <_ZZ9makeMorsePcPhS0_E15completedString>
						if(finished)
    4348:	20 97       	sbiw	r28, 0x00	; 0
    434a:	09 f0       	breq	.+2      	; 0x434e <_Z9makeMorsePcPhS0_+0x136>
						{
							*finished = TRUE;
    434c:	98 83       	st	Y, r25
						}
						holdKeyDown = FALSE;
    434e:	10 92 0c 06 	sts	0x060C, r1	; 0x80060c <_ZZ9makeMorsePcPhS0_E11holdKeyDown>
						return( OFF );
    4352:	5d c0       	rjmp	.+186    	; 0x440e <_Z9makeMorsePcPhS0_+0x1f6>
					}
				}

				morseInProgress = getMorseChar(c);
    4354:	80 91 21 01 	lds	r24, 0x0121	; 0x800121 <_ZZ9makeMorsePcPhS0_E1c>
    4358:	0e 94 19 20 	call	0x4032	; 0x4032 <_Z12getMorseCharc>
    435c:	60 93 07 06 	sts	0x0607, r22	; 0x800607 <_ZZ9makeMorsePcPhS0_E15morseInProgress>
    4360:	70 93 08 06 	sts	0x0608, r23	; 0x800608 <_ZZ9makeMorsePcPhS0_E15morseInProgress+0x1>
    4364:	80 93 09 06 	sts	0x0609, r24	; 0x800609 <_ZZ9makeMorsePcPhS0_E15morseInProgress+0x2>
				symbolIndex = 0;
    4368:	10 92 05 06 	sts	0x0605, r1	; 0x800605 <_ZZ9makeMorsePcPhS0_E11symbolIndex>
			}

			if(morseInProgress.pattern < INTER_WORD_SPACE)
    436c:	20 91 07 06 	lds	r18, 0x0607	; 0x800607 <_ZZ9makeMorsePcPhS0_E15morseInProgress>
    4370:	2d 3f       	cpi	r18, 0xFD	; 253
    4372:	00 f5       	brcc	.+64     	; 0x43b4 <_Z9makeMorsePcPhS0_+0x19c>
			{
				BOOL isDah = morseInProgress.pattern & (1 << symbolIndex++);
    4374:	40 91 05 06 	lds	r20, 0x0605	; 0x800605 <_ZZ9makeMorsePcPhS0_E11symbolIndex>
    4378:	31 e0       	ldi	r19, 0x01	; 1
    437a:	34 0f       	add	r19, r20
    437c:	30 93 05 06 	sts	0x0605, r19	; 0x800605 <_ZZ9makeMorsePcPhS0_E11symbolIndex>

				if(isDah)
    4380:	81 e0       	ldi	r24, 0x01	; 1
    4382:	90 e0       	ldi	r25, 0x00	; 0
    4384:	02 c0       	rjmp	.+4      	; 0x438a <_Z9makeMorsePcPhS0_+0x172>
    4386:	88 0f       	add	r24, r24
    4388:	99 1f       	adc	r25, r25
    438a:	4a 95       	dec	r20
    438c:	e2 f7       	brpl	.-8      	; 0x4386 <_Z9makeMorsePcPhS0_+0x16e>
    438e:	82 23       	and	r24, r18
    4390:	21 f0       	breq	.+8      	; 0x439a <_Z9makeMorsePcPhS0_+0x182>
				{
					elementIndex = 2;
    4392:	82 e0       	ldi	r24, 0x02	; 2
    4394:	80 93 04 06 	sts	0x0604, r24	; 0x800604 <_ZZ9makeMorsePcPhS0_E12elementIndex>
    4398:	02 c0       	rjmp	.+4      	; 0x439e <_Z9makeMorsePcPhS0_+0x186>
				}
				else
				{
					elementIndex = 0;
    439a:	10 92 04 06 	sts	0x0604, r1	; 0x800604 <_ZZ9makeMorsePcPhS0_E12elementIndex>
				}

				carrierOn = TRUE;
    439e:	81 e0       	ldi	r24, 0x01	; 1
    43a0:	80 93 01 06 	sts	0x0601, r24	; 0x800601 <_ZZ9makeMorsePcPhS0_E9carrierOn>

				if(symbolIndex >= morseInProgress.lengthInSymbols)
    43a4:	80 91 08 06 	lds	r24, 0x0608	; 0x800608 <_ZZ9makeMorsePcPhS0_E15morseInProgress+0x1>
    43a8:	38 17       	cp	r19, r24
    43aa:	98 f0       	brcs	.+38     	; 0x43d2 <_Z9makeMorsePcPhS0_+0x1ba>
				{
					addedSpace = 2;
    43ac:	82 e0       	ldi	r24, 0x02	; 2
    43ae:	80 93 03 06 	sts	0x0603, r24	; 0x800603 <_ZZ9makeMorsePcPhS0_E10addedSpace>
    43b2:	0f c0       	rjmp	.+30     	; 0x43d2 <_Z9makeMorsePcPhS0_+0x1ba>
				}
			}
			else
			{
				uint8_t sym = morseInProgress.lengthInSymbols;
    43b4:	80 91 08 06 	lds	r24, 0x0608	; 0x800608 <_ZZ9makeMorsePcPhS0_E15morseInProgress+0x1>
				symbolIndex = 255;  /* ensure the next character gets read */
    43b8:	9f ef       	ldi	r25, 0xFF	; 255
    43ba:	90 93 05 06 	sts	0x0605, r25	; 0x800605 <_ZZ9makeMorsePcPhS0_E11symbolIndex>
				carrierOn = FALSE;
    43be:	10 92 01 06 	sts	0x0601, r1	; 0x800601 <_ZZ9makeMorsePcPhS0_E9carrierOn>
				if(sym >= 4 )
    43c2:	84 30       	cpi	r24, 0x04	; 4
    43c4:	20 f0       	brcs	.+8      	; 0x43ce <_Z9makeMorsePcPhS0_+0x1b6>
				{
					elementIndex = morseInProgress.lengthInSymbols - 4;
    43c6:	84 50       	subi	r24, 0x04	; 4
    43c8:	80 93 04 06 	sts	0x0604, r24	; 0x800604 <_ZZ9makeMorsePcPhS0_E12elementIndex>
    43cc:	02 c0       	rjmp	.+4      	; 0x43d2 <_Z9makeMorsePcPhS0_+0x1ba>
				}
				else
				{
					elementIndex = 0;
    43ce:	10 92 04 06 	sts	0x0604, r1	; 0x800604 <_ZZ9makeMorsePcPhS0_E12elementIndex>
				}
			}
		}

		/* Overrides for key on and key off special characters */
		if(c == '<')    /* constant tone */
    43d2:	80 91 21 01 	lds	r24, 0x0121	; 0x800121 <_ZZ9makeMorsePcPhS0_E1c>
    43d6:	8c 33       	cpi	r24, 0x3C	; 60
    43d8:	31 f4       	brne	.+12     	; 0x43e6 <_Z9makeMorsePcPhS0_+0x1ce>
		{
			holdKeyDown = TRUE;
    43da:	81 e0       	ldi	r24, 0x01	; 1
    43dc:	80 93 0c 06 	sts	0x060C, r24	; 0x80060c <_ZZ9makeMorsePcPhS0_E11holdKeyDown>
		{
			holdKeyDown = FALSE;
		}
	}

	if(finished)
    43e0:	20 97       	sbiw	r28, 0x00	; 0
    43e2:	41 f4       	brne	.+16     	; 0x43f4 <_Z9makeMorsePcPhS0_+0x1dc>
    43e4:	14 c0       	rjmp	.+40     	; 0x440e <_Z9makeMorsePcPhS0_+0x1f6>
		{
			holdKeyDown = TRUE;
		}
		else
		{
			holdKeyDown = FALSE;
    43e6:	10 92 0c 06 	sts	0x060C, r1	; 0x80060c <_ZZ9makeMorsePcPhS0_E11holdKeyDown>
		}
	}

	if(finished)
    43ea:	20 97       	sbiw	r28, 0x00	; 0
    43ec:	19 f4       	brne	.+6      	; 0x43f4 <_Z9makeMorsePcPhS0_+0x1dc>
    43ee:	09 c0       	rjmp	.+18     	; 0x4402 <_Z9makeMorsePcPhS0_+0x1ea>
    43f0:	20 97       	sbiw	r28, 0x00	; 0
    43f2:	19 f0       	breq	.+6      	; 0x43fa <_Z9makeMorsePcPhS0_+0x1e2>
	{
		*finished = completedString;
    43f4:	80 91 02 06 	lds	r24, 0x0602	; 0x800602 <_ZZ9makeMorsePcPhS0_E15completedString>
    43f8:	88 83       	st	Y, r24
	}

	if(holdKeyDown)
    43fa:	80 91 0c 06 	lds	r24, 0x060C	; 0x80060c <_ZZ9makeMorsePcPhS0_E11holdKeyDown>
    43fe:	81 11       	cpse	r24, r1
    4400:	05 c0       	rjmp	.+10     	; 0x440c <_Z9makeMorsePcPhS0_+0x1f4>
	{
		return(TRUE);
	}
	else
	{
		return( carrierOn);
    4402:	80 91 01 06 	lds	r24, 0x0601	; 0x800601 <_ZZ9makeMorsePcPhS0_E9carrierOn>
    4406:	03 c0       	rjmp	.+6      	; 0x440e <_Z9makeMorsePcPhS0_+0x1f6>
			if(finished)
			{
				*finished = TRUE;
				holdKeyDown = FALSE;
			}
			return( OFF);
    4408:	80 e0       	ldi	r24, 0x00	; 0
    440a:	01 c0       	rjmp	.+2      	; 0x440e <_Z9makeMorsePcPhS0_+0x1f6>
		*finished = completedString;
	}

	if(holdKeyDown)
	{
		return(TRUE);
    440c:	81 e0       	ldi	r24, 0x01	; 1
	}
	else
	{
		return( carrierOn);
	}
}
    440e:	df 91       	pop	r29
    4410:	cf 91       	pop	r28
    4412:	08 95       	ret

00004414 <_Z26timeRequiredToSendStrAtWPMPcj>:
/**
 *  Returns the number of milliseconds required to send the string pointed to by the first argument at the WPM code speed
 *  passed in the second argument.
 */
uint16_t timeRequiredToSendStrAtWPM(char* str, uint16_t spd)
{
    4414:	cf 92       	push	r12
    4416:	df 92       	push	r13
    4418:	ef 92       	push	r14
    441a:	ff 92       	push	r15
    441c:	0f 93       	push	r16
    441e:	1f 93       	push	r17
    4420:	cf 93       	push	r28
    4422:	fc 01       	movw	r30, r24
    4424:	6b 01       	movw	r12, r22
	MorseCharacter m;
	char c;

	for(int i = 0; i < 20; i++)
	{
		c = str[i];
    4426:	80 81       	ld	r24, Z
		if(!c)
    4428:	88 23       	and	r24, r24
    442a:	c1 f0       	breq	.+48     	; 0x445c <_Z26timeRequiredToSendStrAtWPMPcj+0x48>
    442c:	8f 01       	movw	r16, r30
    442e:	0f 5f       	subi	r16, 0xFF	; 255
    4430:	1f 4f       	sbci	r17, 0xFF	; 255
    4432:	7f 01       	movw	r14, r30
    4434:	94 e1       	ldi	r25, 0x14	; 20
    4436:	e9 0e       	add	r14, r25
    4438:	f1 1c       	adc	r15, r1
    443a:	c0 e0       	ldi	r28, 0x00	; 0
    443c:	05 c0       	rjmp	.+10     	; 0x4448 <_Z26timeRequiredToSendStrAtWPMPcj+0x34>
	MorseCharacter m;
	char c;

	for(int i = 0; i < 20; i++)
	{
		c = str[i];
    443e:	f8 01       	movw	r30, r16
    4440:	81 91       	ld	r24, Z+
    4442:	8f 01       	movw	r16, r30
		if(!c)
    4444:	88 23       	and	r24, r24
    4446:	59 f0       	breq	.+22     	; 0x445e <_Z26timeRequiredToSendStrAtWPMPcj+0x4a>
		{
			break;
		}
		m = getMorseChar(c);
    4448:	0e 94 19 20 	call	0x4032	; 0x4032 <_Z12getMorseCharc>
		if(m.pattern < INTER_WORD_SPACE)
    444c:	6d 3f       	cpi	r22, 0xFD	; 253
    444e:	08 f4       	brcc	.+2      	; 0x4452 <_Z26timeRequiredToSendStrAtWPMPcj+0x3e>
		{
			elements += 3;
    4450:	cd 5f       	subi	r28, 0xFD	; 253
		}
		elements += m.lengthInElements;
    4452:	c8 0f       	add	r28, r24
{
	uint8_t elements = 0;
	MorseCharacter m;
	char c;

	for(int i = 0; i < 20; i++)
    4454:	0e 15       	cp	r16, r14
    4456:	1f 05       	cpc	r17, r15
    4458:	91 f7       	brne	.-28     	; 0x443e <_Z26timeRequiredToSendStrAtWPMPcj+0x2a>
    445a:	01 c0       	rjmp	.+2      	; 0x445e <_Z26timeRequiredToSendStrAtWPMPcj+0x4a>
 *  Returns the number of milliseconds required to send the string pointed to by the first argument at the WPM code speed
 *  passed in the second argument.
 */
uint16_t timeRequiredToSendStrAtWPM(char* str, uint16_t spd)
{
	uint8_t elements = 0;
    445c:	c0 e0       	ldi	r28, 0x00	; 0
			elements += 3;
		}
		elements += m.lengthInElements;
	}

	return(elements * WPM_TO_MS_PER_DOT(spd));
    445e:	80 eb       	ldi	r24, 0xB0	; 176
    4460:	94 e0       	ldi	r25, 0x04	; 4
    4462:	b6 01       	movw	r22, r12
    4464:	0e 94 26 28 	call	0x504c	; 0x504c <__udivmodhi4>
}
    4468:	c6 9f       	mul	r28, r22
    446a:	c0 01       	movw	r24, r0
    446c:	c7 9f       	mul	r28, r23
    446e:	90 0d       	add	r25, r0
    4470:	11 24       	eor	r1, r1
    4472:	cf 91       	pop	r28
    4474:	1f 91       	pop	r17
    4476:	0f 91       	pop	r16
    4478:	ff 90       	pop	r15
    447a:	ef 90       	pop	r14
    447c:	df 90       	pop	r13
    447e:	cf 90       	pop	r12
    4480:	08 95       	ret

00004482 <_Z7bcd2dech>:

		/* Read the value from RAM */
		i2c_device_read(RV3028_I2C_SLAVE_ADDR, rtc_ee_addr, val, 1);

		return(0);
	}
    4482:	98 2f       	mov	r25, r24
    4484:	96 95       	lsr	r25
    4486:	96 95       	lsr	r25
    4488:	96 95       	lsr	r25
    448a:	9e 71       	andi	r25, 0x1E	; 30
    448c:	29 2f       	mov	r18, r25
    448e:	22 0f       	add	r18, r18
    4490:	22 0f       	add	r18, r18
    4492:	92 0f       	add	r25, r18
    4494:	8f 70       	andi	r24, 0x0F	; 15
    4496:	89 0f       	add	r24, r25
    4498:	08 95       	ret

0000449a <_Z8char2bcdPc>:
    449a:	fc 01       	movw	r30, r24
    449c:	20 81       	ld	r18, Z
    449e:	81 81       	ldd	r24, Z+1	; 0x01
    44a0:	80 53       	subi	r24, 0x30	; 48
    44a2:	f0 e1       	ldi	r31, 0x10	; 16
    44a4:	2f 9f       	mul	r18, r31
    44a6:	80 0d       	add	r24, r0
    44a8:	11 24       	eor	r1, r1
    44aa:	08 95       	ret

000044ac <_Z16rv3028_get_epochPbPc>:
    44ac:	4f 92       	push	r4
    44ae:	5f 92       	push	r5
    44b0:	6f 92       	push	r6
    44b2:	7f 92       	push	r7
    44b4:	8f 92       	push	r8
    44b6:	9f 92       	push	r9
    44b8:	af 92       	push	r10
    44ba:	bf 92       	push	r11
    44bc:	cf 92       	push	r12
    44be:	df 92       	push	r13
    44c0:	ef 92       	push	r14
    44c2:	ff 92       	push	r15
    44c4:	0f 93       	push	r16
    44c6:	1f 93       	push	r17
    44c8:	cf 93       	push	r28
    44ca:	df 93       	push	r29
    44cc:	cd b7       	in	r28, 0x3d	; 61
    44ce:	de b7       	in	r29, 0x3e	; 62
    44d0:	27 97       	sbiw	r28, 0x07	; 7
    44d2:	0f b6       	in	r0, 0x3f	; 63
    44d4:	f8 94       	cli
    44d6:	de bf       	out	0x3e, r29	; 62
    44d8:	0f be       	out	0x3f, r0	; 63
    44da:	cd bf       	out	0x3d, r28	; 61
    44dc:	6c 01       	movw	r12, r24
    44de:	7b 01       	movw	r14, r22
    44e0:	fe 01       	movw	r30, r28
    44e2:	31 96       	adiw	r30, 0x01	; 1
    44e4:	87 e0       	ldi	r24, 0x07	; 7
    44e6:	df 01       	movw	r26, r30
    44e8:	1d 92       	st	X+, r1
    44ea:	8a 95       	dec	r24
    44ec:	e9 f7       	brne	.-6      	; 0x44e8 <_Z16rv3028_get_epochPbPc+0x3c>
    44ee:	61 15       	cp	r22, r1
    44f0:	71 05       	cpc	r23, r1
    44f2:	f1 f0       	breq	.+60     	; 0x4530 <_Z16rv3028_get_epochPbPc+0x84>
    44f4:	cb 01       	movw	r24, r22
    44f6:	0a 96       	adiw	r24, 0x0a	; 10
    44f8:	0e 94 4d 22 	call	0x449a	; 0x449a <_Z8char2bcdPc>
    44fc:	89 83       	std	Y+1, r24	; 0x01
    44fe:	c7 01       	movw	r24, r14
    4500:	08 96       	adiw	r24, 0x08	; 8
    4502:	0e 94 4d 22 	call	0x449a	; 0x449a <_Z8char2bcdPc>
    4506:	8a 83       	std	Y+2, r24	; 0x02
    4508:	c7 01       	movw	r24, r14
    450a:	06 96       	adiw	r24, 0x06	; 6
    450c:	0e 94 4d 22 	call	0x449a	; 0x449a <_Z8char2bcdPc>
    4510:	8b 83       	std	Y+3, r24	; 0x03
    4512:	c7 01       	movw	r24, r14
    4514:	04 96       	adiw	r24, 0x04	; 4
    4516:	0e 94 4d 22 	call	0x449a	; 0x449a <_Z8char2bcdPc>
    451a:	8d 83       	std	Y+5, r24	; 0x05
    451c:	c7 01       	movw	r24, r14
    451e:	02 96       	adiw	r24, 0x02	; 2
    4520:	0e 94 4d 22 	call	0x449a	; 0x449a <_Z8char2bcdPc>
    4524:	8e 83       	std	Y+6, r24	; 0x06
    4526:	c7 01       	movw	r24, r14
    4528:	0e 94 4d 22 	call	0x449a	; 0x449a <_Z8char2bcdPc>
    452c:	8f 83       	std	Y+7, r24	; 0x07
    452e:	0b c0       	rjmp	.+22     	; 0x4546 <_Z16rv3028_get_epochPbPc+0x9a>
    4530:	27 e0       	ldi	r18, 0x07	; 7
    4532:	ae 01       	movw	r20, r28
    4534:	4f 5f       	subi	r20, 0xFF	; 255
    4536:	5f 4f       	sbci	r21, 0xFF	; 255
    4538:	60 e0       	ldi	r22, 0x00	; 0
    453a:	84 ea       	ldi	r24, 0xA4	; 164
    453c:	0e 94 4e 05 	call	0xa9c	; 0xa9c <_Z15i2c_device_readhhPhh>
    4540:	38 2f       	mov	r19, r24
    4542:	81 11       	cpse	r24, r1
    4544:	9b c0       	rjmp	.+310    	; 0x467c <_Z16rv3028_get_epochPbPc+0x1d0>
    4546:	8f 81       	ldd	r24, Y+7	; 0x07
    4548:	0e 94 41 22 	call	0x4482	; 0x4482 <_Z7bcd2dech>
    454c:	a8 2e       	mov	r10, r24
    454e:	b1 2c       	mov	r11, r1
    4550:	45 01       	movw	r8, r10
    4552:	b0 e3       	ldi	r27, 0x30	; 48
    4554:	8b 1a       	sub	r8, r27
    4556:	b8 ef       	ldi	r27, 0xF8	; 248
    4558:	9b 0a       	sbc	r9, r27
    455a:	8e 81       	ldd	r24, Y+6	; 0x06
    455c:	0e 94 41 22 	call	0x4482	; 0x4482 <_Z7bcd2dech>
    4560:	08 2f       	mov	r16, r24
    4562:	8d 81       	ldd	r24, Y+5	; 0x05
    4564:	0e 94 41 22 	call	0x4482	; 0x4482 <_Z7bcd2dech>
    4568:	78 2e       	mov	r7, r24
    456a:	02 30       	cpi	r16, 0x02	; 2
    456c:	68 f0       	brcs	.+26     	; 0x4588 <_Z16rv3028_get_epochPbPc+0xdc>
    456e:	e1 2c       	mov	r14, r1
    4570:	f1 2c       	mov	r15, r1
    4572:	11 e0       	ldi	r17, 0x01	; 1
    4574:	61 2f       	mov	r22, r17
    4576:	c4 01       	movw	r24, r8
    4578:	0e 94 20 01 	call	0x240	; 0x240 <month_length>
    457c:	e8 0e       	add	r14, r24
    457e:	f1 1c       	adc	r15, r1
    4580:	1f 5f       	subi	r17, 0xFF	; 255
    4582:	01 13       	cpse	r16, r17
    4584:	f7 cf       	rjmp	.-18     	; 0x4574 <_Z16rv3028_get_epochPbPc+0xc8>
    4586:	02 c0       	rjmp	.+4      	; 0x458c <_Z16rv3028_get_epochPbPc+0xe0>
    4588:	e1 2c       	mov	r14, r1
    458a:	f1 2c       	mov	r15, r1
    458c:	87 2d       	mov	r24, r7
    458e:	77 0c       	add	r7, r7
    4590:	99 0b       	sbc	r25, r25
    4592:	01 97       	sbiw	r24, 0x01	; 1
    4594:	e8 0e       	add	r14, r24
    4596:	f9 1e       	adc	r15, r25
    4598:	89 81       	ldd	r24, Y+1	; 0x01
    459a:	0e 94 41 22 	call	0x4482	; 0x4482 <_Z7bcd2dech>
    459e:	48 2e       	mov	r4, r24
    45a0:	8a 81       	ldd	r24, Y+2	; 0x02
    45a2:	0e 94 41 22 	call	0x4482	; 0x4482 <_Z7bcd2dech>
    45a6:	18 2f       	mov	r17, r24
    45a8:	8b 81       	ldd	r24, Y+3	; 0x03
    45aa:	0e 94 41 22 	call	0x4482	; 0x4482 <_Z7bcd2dech>
    45ae:	04 2c       	mov	r0, r4
    45b0:	00 0c       	add	r0, r0
    45b2:	55 08       	sbc	r5, r5
    45b4:	ec e3       	ldi	r30, 0x3C	; 60
    45b6:	1e 02       	muls	r17, r30
    45b8:	40 0c       	add	r4, r0
    45ba:	51 1c       	adc	r5, r1
    45bc:	11 24       	eor	r1, r1
    45be:	05 2c       	mov	r0, r5
    45c0:	00 0c       	add	r0, r0
    45c2:	66 08       	sbc	r6, r6
    45c4:	77 08       	sbc	r7, r7
    45c6:	a8 2f       	mov	r26, r24
    45c8:	88 0f       	add	r24, r24
    45ca:	bb 0b       	sbc	r27, r27
    45cc:	20 e1       	ldi	r18, 0x10	; 16
    45ce:	3e e0       	ldi	r19, 0x0E	; 14
    45d0:	0e 94 a4 28 	call	0x5148	; 0x5148 <__usmulhisi3>
    45d4:	46 0e       	add	r4, r22
    45d6:	57 1e       	adc	r5, r23
    45d8:	68 1e       	adc	r6, r24
    45da:	79 1e       	adc	r7, r25
    45dc:	d7 01       	movw	r26, r14
    45de:	20 e8       	ldi	r18, 0x80	; 128
    45e0:	31 e5       	ldi	r19, 0x51	; 81
    45e2:	41 e0       	ldi	r20, 0x01	; 1
    45e4:	50 e0       	ldi	r21, 0x00	; 0
    45e6:	0e 94 b6 28 	call	0x516c	; 0x516c <__mulshisi3>
    45ea:	46 0e       	add	r4, r22
    45ec:	57 1e       	adc	r5, r23
    45ee:	68 1e       	adc	r6, r24
    45f0:	79 1e       	adc	r7, r25
    45f2:	d5 01       	movw	r26, r10
    45f4:	5e 96       	adiw	r26, 0x1e	; 30
    45f6:	20 e8       	ldi	r18, 0x80	; 128
    45f8:	33 e3       	ldi	r19, 0x33	; 51
    45fa:	41 ee       	ldi	r20, 0xE1	; 225
    45fc:	51 e0       	ldi	r21, 0x01	; 1
    45fe:	0e 94 b6 28 	call	0x516c	; 0x516c <__mulshisi3>
    4602:	46 0e       	add	r4, r22
    4604:	57 1e       	adc	r5, r23
    4606:	68 1e       	adc	r6, r24
    4608:	79 1e       	adc	r7, r25
    460a:	c5 01       	movw	r24, r10
    460c:	4f 96       	adiw	r24, 0x1f	; 31
    460e:	dc 01       	movw	r26, r24
    4610:	0a f4       	brpl	.+2      	; 0x4614 <_Z16rv3028_get_epochPbPc+0x168>
    4612:	13 96       	adiw	r26, 0x03	; 3
    4614:	b5 95       	asr	r27
    4616:	a7 95       	ror	r26
    4618:	b5 95       	asr	r27
    461a:	a7 95       	ror	r26
    461c:	20 e8       	ldi	r18, 0x80	; 128
    461e:	31 e5       	ldi	r19, 0x51	; 81
    4620:	41 e0       	ldi	r20, 0x01	; 1
    4622:	50 e0       	ldi	r21, 0x00	; 0
    4624:	0e 94 b6 28 	call	0x516c	; 0x516c <__mulshisi3>
    4628:	46 0e       	add	r4, r22
    462a:	57 1e       	adc	r5, r23
    462c:	68 1e       	adc	r6, r24
    462e:	79 1e       	adc	r7, r25
    4630:	c5 01       	movw	r24, r10
    4632:	8d 59       	subi	r24, 0x9D	; 157
    4634:	9f 4f       	sbci	r25, 0xFF	; 255
    4636:	64 e6       	ldi	r22, 0x64	; 100
    4638:	70 e0       	ldi	r23, 0x00	; 0
    463a:	0e 94 3a 28 	call	0x5074	; 0x5074 <__divmodhi4>
    463e:	db 01       	movw	r26, r22
    4640:	20 e8       	ldi	r18, 0x80	; 128
    4642:	3e ea       	ldi	r19, 0xAE	; 174
    4644:	4e ef       	ldi	r20, 0xFE	; 254
    4646:	5f ef       	ldi	r21, 0xFF	; 255
    4648:	0e 94 b6 28 	call	0x516c	; 0x516c <__mulshisi3>
    464c:	46 0e       	add	r4, r22
    464e:	57 1e       	adc	r5, r23
    4650:	68 1e       	adc	r6, r24
    4652:	79 1e       	adc	r7, r25
    4654:	c5 01       	movw	r24, r10
    4656:	81 57       	subi	r24, 0x71	; 113
    4658:	9e 4f       	sbci	r25, 0xFE	; 254
    465a:	60 e9       	ldi	r22, 0x90	; 144
    465c:	71 e0       	ldi	r23, 0x01	; 1
    465e:	0e 94 3a 28 	call	0x5074	; 0x5074 <__divmodhi4>
    4662:	db 01       	movw	r26, r22
    4664:	20 e8       	ldi	r18, 0x80	; 128
    4666:	31 e5       	ldi	r19, 0x51	; 81
    4668:	41 e0       	ldi	r20, 0x01	; 1
    466a:	50 e0       	ldi	r21, 0x00	; 0
    466c:	0e 94 b6 28 	call	0x516c	; 0x516c <__mulshisi3>
    4670:	64 0d       	add	r22, r4
    4672:	75 1d       	adc	r23, r5
    4674:	86 1d       	adc	r24, r6
    4676:	97 1d       	adc	r25, r7
    4678:	30 e0       	ldi	r19, 0x00	; 0
    467a:	03 c0       	rjmp	.+6      	; 0x4682 <_Z16rv3028_get_epochPbPc+0x1d6>
    467c:	60 e0       	ldi	r22, 0x00	; 0
    467e:	70 e0       	ldi	r23, 0x00	; 0
    4680:	cb 01       	movw	r24, r22
    4682:	c1 14       	cp	r12, r1
    4684:	d1 04       	cpc	r13, r1
    4686:	31 f0       	breq	.+12     	; 0x4694 <_Z16rv3028_get_epochPbPc+0x1e8>
    4688:	21 e0       	ldi	r18, 0x01	; 1
    468a:	31 11       	cpse	r19, r1
    468c:	01 c0       	rjmp	.+2      	; 0x4690 <_Z16rv3028_get_epochPbPc+0x1e4>
    468e:	20 e0       	ldi	r18, 0x00	; 0
    4690:	d6 01       	movw	r26, r12
    4692:	2c 93       	st	X, r18
    4694:	27 96       	adiw	r28, 0x07	; 7
    4696:	0f b6       	in	r0, 0x3f	; 63
    4698:	f8 94       	cli
    469a:	de bf       	out	0x3e, r29	; 62
    469c:	0f be       	out	0x3f, r0	; 63
    469e:	cd bf       	out	0x3d, r28	; 61
    46a0:	df 91       	pop	r29
    46a2:	cf 91       	pop	r28
    46a4:	1f 91       	pop	r17
    46a6:	0f 91       	pop	r16
    46a8:	ff 90       	pop	r15
    46aa:	ef 90       	pop	r14
    46ac:	df 90       	pop	r13
    46ae:	cf 90       	pop	r12
    46b0:	bf 90       	pop	r11
    46b2:	af 90       	pop	r10
    46b4:	9f 90       	pop	r9
    46b6:	8f 90       	pop	r8
    46b8:	7f 90       	pop	r7
    46ba:	6f 90       	pop	r6
    46bc:	5f 90       	pop	r5
    46be:	4f 90       	pop	r4
    46c0:	08 95       	ret

000046c2 <_Z20rv3028_set_date_timePc>:
    46c2:	cf 93       	push	r28
    46c4:	df 93       	push	r29
    46c6:	cd b7       	in	r28, 0x3d	; 61
    46c8:	de b7       	in	r29, 0x3e	; 62
    46ca:	27 97       	sbiw	r28, 0x07	; 7
    46cc:	0f b6       	in	r0, 0x3f	; 63
    46ce:	f8 94       	cli
    46d0:	de bf       	out	0x3e, r29	; 62
    46d2:	0f be       	out	0x3f, r0	; 63
    46d4:	cd bf       	out	0x3d, r28	; 61
    46d6:	21 e0       	ldi	r18, 0x01	; 1
    46d8:	2c 83       	std	Y+4, r18	; 0x04
    46da:	dc 01       	movw	r26, r24
    46dc:	0d 90       	ld	r0, X+
    46de:	00 20       	and	r0, r0
    46e0:	e9 f7       	brne	.-6      	; 0x46dc <_Z20rv3028_set_date_timePc+0x1a>
    46e2:	11 97       	sbiw	r26, 0x01	; 1
    46e4:	a8 1b       	sub	r26, r24
    46e6:	b9 0b       	sbc	r27, r25
    46e8:	1c 97       	sbiw	r26, 0x0c	; 12
    46ea:	0c f4       	brge	.+2      	; 0x46ee <_Z20rv3028_set_date_timePc+0x2c>
    46ec:	3a c0       	rjmp	.+116    	; 0x4762 <_Z20rv3028_set_date_timePc+0xa0>
    46ee:	fc 01       	movw	r30, r24
    46f0:	92 85       	ldd	r25, Z+10	; 0x0a
    46f2:	83 85       	ldd	r24, Z+11	; 0x0b
    46f4:	80 53       	subi	r24, 0x30	; 48
    46f6:	20 e1       	ldi	r18, 0x10	; 16
    46f8:	92 9f       	mul	r25, r18
    46fa:	80 0d       	add	r24, r0
    46fc:	11 24       	eor	r1, r1
    46fe:	89 83       	std	Y+1, r24	; 0x01
    4700:	90 85       	ldd	r25, Z+8	; 0x08
    4702:	81 85       	ldd	r24, Z+9	; 0x09
    4704:	80 53       	subi	r24, 0x30	; 48
    4706:	20 e1       	ldi	r18, 0x10	; 16
    4708:	92 9f       	mul	r25, r18
    470a:	80 0d       	add	r24, r0
    470c:	11 24       	eor	r1, r1
    470e:	8a 83       	std	Y+2, r24	; 0x02
    4710:	96 81       	ldd	r25, Z+6	; 0x06
    4712:	87 81       	ldd	r24, Z+7	; 0x07
    4714:	80 53       	subi	r24, 0x30	; 48
    4716:	20 e1       	ldi	r18, 0x10	; 16
    4718:	92 9f       	mul	r25, r18
    471a:	80 0d       	add	r24, r0
    471c:	11 24       	eor	r1, r1
    471e:	8b 83       	std	Y+3, r24	; 0x03
    4720:	94 81       	ldd	r25, Z+4	; 0x04
    4722:	85 81       	ldd	r24, Z+5	; 0x05
    4724:	80 53       	subi	r24, 0x30	; 48
    4726:	20 e1       	ldi	r18, 0x10	; 16
    4728:	92 9f       	mul	r25, r18
    472a:	80 0d       	add	r24, r0
    472c:	11 24       	eor	r1, r1
    472e:	8d 83       	std	Y+5, r24	; 0x05
    4730:	92 81       	ldd	r25, Z+2	; 0x02
    4732:	83 81       	ldd	r24, Z+3	; 0x03
    4734:	80 53       	subi	r24, 0x30	; 48
    4736:	20 e1       	ldi	r18, 0x10	; 16
    4738:	92 9f       	mul	r25, r18
    473a:	80 0d       	add	r24, r0
    473c:	11 24       	eor	r1, r1
    473e:	8e 83       	std	Y+6, r24	; 0x06
    4740:	90 81       	ld	r25, Z
    4742:	81 81       	ldd	r24, Z+1	; 0x01
    4744:	80 53       	subi	r24, 0x30	; 48
    4746:	20 e1       	ldi	r18, 0x10	; 16
    4748:	92 9f       	mul	r25, r18
    474a:	80 0d       	add	r24, r0
    474c:	11 24       	eor	r1, r1
    474e:	8f 83       	std	Y+7, r24	; 0x07
    4750:	27 e0       	ldi	r18, 0x07	; 7
    4752:	ae 01       	movw	r20, r28
    4754:	4f 5f       	subi	r20, 0xFF	; 255
    4756:	5f 4f       	sbci	r21, 0xFF	; 255
    4758:	60 e0       	ldi	r22, 0x00	; 0
    475a:	84 ea       	ldi	r24, 0xA4	; 164
    475c:	0e 94 eb 04 	call	0x9d6	; 0x9d6 <_Z16i2c_device_writehhPhh>
    4760:	01 c0       	rjmp	.+2      	; 0x4764 <_Z20rv3028_set_date_timePc+0xa2>
    4762:	81 e0       	ldi	r24, 0x01	; 1
    4764:	27 96       	adiw	r28, 0x07	; 7
    4766:	0f b6       	in	r0, 0x3f	; 63
    4768:	f8 94       	cli
    476a:	de bf       	out	0x3e, r29	; 62
    476c:	0f be       	out	0x3f, r0	; 63
    476e:	cd bf       	out	0x3d, r28	; 61
    4770:	df 91       	pop	r29
    4772:	cf 91       	pop	r28
    4774:	08 95       	ret

00004776 <_Z21rv3028_get_offset_RAMv>:
    4776:	cf 93       	push	r28
    4778:	df 93       	push	r29
    477a:	00 d0       	rcall	.+0      	; 0x477c <_Z21rv3028_get_offset_RAMv+0x6>
    477c:	cd b7       	in	r28, 0x3d	; 61
    477e:	de b7       	in	r29, 0x3e	; 62
    4780:	22 e0       	ldi	r18, 0x02	; 2
    4782:	ae 01       	movw	r20, r28
    4784:	4f 5f       	subi	r20, 0xFF	; 255
    4786:	5f 4f       	sbci	r21, 0xFF	; 255
    4788:	66 e3       	ldi	r22, 0x36	; 54
    478a:	84 ea       	ldi	r24, 0xA4	; 164
    478c:	0e 94 4e 05 	call	0xa9c	; 0xa9c <_Z15i2c_device_readhhPhh>
    4790:	89 81       	ldd	r24, Y+1	; 0x01
    4792:	90 e0       	ldi	r25, 0x00	; 0
    4794:	88 0f       	add	r24, r24
    4796:	99 1f       	adc	r25, r25
    4798:	2a 81       	ldd	r18, Y+2	; 0x02
    479a:	22 23       	and	r18, r18
    479c:	0c f4       	brge	.+2      	; 0x47a0 <_Z21rv3028_get_offset_RAMv+0x2a>
    479e:	01 96       	adiw	r24, 0x01	; 1
    47a0:	0f 90       	pop	r0
    47a2:	0f 90       	pop	r0
    47a4:	df 91       	pop	r29
    47a6:	cf 91       	pop	r28
    47a8:	08 95       	ret

000047aa <_Z21rv3028_set_offset_RAMj>:
    47aa:	cf 93       	push	r28
    47ac:	df 93       	push	r29
    47ae:	00 d0       	rcall	.+0      	; 0x47b0 <_Z21rv3028_set_offset_RAMj+0x6>
    47b0:	cd b7       	in	r28, 0x3d	; 61
    47b2:	de b7       	in	r29, 0x3e	; 62
    47b4:	20 e1       	ldi	r18, 0x10	; 16
    47b6:	2a 83       	std	Y+2, r18	; 0x02
    47b8:	9c 01       	movw	r18, r24
    47ba:	36 95       	lsr	r19
    47bc:	27 95       	ror	r18
    47be:	29 83       	std	Y+1, r18	; 0x01
    47c0:	80 ff       	sbrs	r24, 0
    47c2:	02 c0       	rjmp	.+4      	; 0x47c8 <_Z21rv3028_set_offset_RAMj+0x1e>
    47c4:	80 e9       	ldi	r24, 0x90	; 144
    47c6:	8a 83       	std	Y+2, r24	; 0x02
    47c8:	22 e0       	ldi	r18, 0x02	; 2
    47ca:	ae 01       	movw	r20, r28
    47cc:	4f 5f       	subi	r20, 0xFF	; 255
    47ce:	5f 4f       	sbci	r21, 0xFF	; 255
    47d0:	66 e3       	ldi	r22, 0x36	; 54
    47d2:	84 ea       	ldi	r24, 0xA4	; 164
    47d4:	0e 94 eb 04 	call	0x9d6	; 0x9d6 <_Z16i2c_device_writehhPhh>
    47d8:	0f 90       	pop	r0
    47da:	0f 90       	pop	r0
    47dc:	df 91       	pop	r29
    47de:	cf 91       	pop	r28
    47e0:	08 95       	ret

000047e2 <_Z18waitForEEPROMReadyv>:
    47e2:	cf 93       	push	r28
    47e4:	df 93       	push	r29
    47e6:	1f 92       	push	r1
    47e8:	cd b7       	in	r28, 0x3d	; 61
    47ea:	de b7       	in	r29, 0x3e	; 62
    47ec:	81 e0       	ldi	r24, 0x01	; 1
    47ee:	89 83       	std	Y+1, r24	; 0x01
    47f0:	21 e0       	ldi	r18, 0x01	; 1
    47f2:	ae 01       	movw	r20, r28
    47f4:	4f 5f       	subi	r20, 0xFF	; 255
    47f6:	5f 4f       	sbci	r21, 0xFF	; 255
    47f8:	6e e0       	ldi	r22, 0x0E	; 14
    47fa:	84 ea       	ldi	r24, 0xA4	; 164
    47fc:	0e 94 4e 05 	call	0xa9c	; 0xa9c <_Z15i2c_device_readhhPhh>
    4800:	81 11       	cpse	r24, r1
    4802:	07 c0       	rjmp	.+14     	; 0x4812 <_Z18waitForEEPROMReadyv+0x30>
    4804:	89 81       	ldd	r24, Y+1	; 0x01
    4806:	80 78       	andi	r24, 0x80	; 128
    4808:	89 83       	std	Y+1, r24	; 0x01
    480a:	81 11       	cpse	r24, r1
    480c:	f1 cf       	rjmp	.-30     	; 0x47f0 <_Z18waitForEEPROMReadyv+0xe>
    480e:	80 e0       	ldi	r24, 0x00	; 0
    4810:	03 c0       	rjmp	.+6      	; 0x4818 <_Z18waitForEEPROMReadyv+0x36>
    4812:	89 81       	ldd	r24, Y+1	; 0x01
    4814:	88 23       	and	r24, r24
    4816:	d9 f3       	breq	.-10     	; 0x480e <_Z18waitForEEPROMReadyv+0x2c>
    4818:	0f 90       	pop	r0
    481a:	df 91       	pop	r29
    481c:	cf 91       	pop	r28
    481e:	08 95       	ret

00004820 <_Z18writeOneEEPROMBytehhh>:
    4820:	1f 93       	push	r17
    4822:	cf 93       	push	r28
    4824:	df 93       	push	r29
    4826:	00 d0       	rcall	.+0      	; 0x4828 <_Z18writeOneEEPROMBytehhh+0x8>
    4828:	00 d0       	rcall	.+0      	; 0x482a <_Z18writeOneEEPROMBytehhh+0xa>
    482a:	cd b7       	in	r28, 0x3d	; 61
    482c:	de b7       	in	r29, 0x3e	; 62
    482e:	8b 83       	std	Y+3, r24	; 0x03
    4830:	16 2f       	mov	r17, r22
    4832:	4c 83       	std	Y+4, r20	; 0x04
    4834:	19 82       	std	Y+1, r1	; 0x01
    4836:	0e 94 f1 23 	call	0x47e2	; 0x47e2 <_Z18waitForEEPROMReadyv>
    483a:	81 11       	cpse	r24, r1
    483c:	5e c0       	rjmp	.+188    	; 0x48fa <_Z18writeOneEEPROMBytehhh+0xda>
    483e:	88 e0       	ldi	r24, 0x08	; 8
    4840:	89 83       	std	Y+1, r24	; 0x01
    4842:	21 e0       	ldi	r18, 0x01	; 1
    4844:	ae 01       	movw	r20, r28
    4846:	4f 5f       	subi	r20, 0xFF	; 255
    4848:	5f 4f       	sbci	r21, 0xFF	; 255
    484a:	6f e0       	ldi	r22, 0x0F	; 15
    484c:	84 ea       	ldi	r24, 0xA4	; 164
    484e:	0e 94 eb 04 	call	0x9d6	; 0x9d6 <_Z16i2c_device_writehhPhh>
    4852:	81 11       	cpse	r24, r1
    4854:	54 c0       	rjmp	.+168    	; 0x48fe <_Z18writeOneEEPROMBytehhh+0xde>
    4856:	21 e0       	ldi	r18, 0x01	; 1
    4858:	ae 01       	movw	r20, r28
    485a:	4e 5f       	subi	r20, 0xFE	; 254
    485c:	5f 4f       	sbci	r21, 0xFF	; 255
    485e:	6b 81       	ldd	r22, Y+3	; 0x03
    4860:	84 ea       	ldi	r24, 0xA4	; 164
    4862:	0e 94 4e 05 	call	0xa9c	; 0xa9c <_Z15i2c_device_readhhPhh>
    4866:	91 2f       	mov	r25, r17
    4868:	90 95       	com	r25
    486a:	8a 81       	ldd	r24, Y+2	; 0x02
    486c:	89 23       	and	r24, r25
    486e:	8a 83       	std	Y+2, r24	; 0x02
    4870:	9c 81       	ldd	r25, Y+4	; 0x04
    4872:	19 23       	and	r17, r25
    4874:	81 2b       	or	r24, r17
    4876:	8c 83       	std	Y+4, r24	; 0x04
    4878:	21 e0       	ldi	r18, 0x01	; 1
    487a:	ae 01       	movw	r20, r28
    487c:	4d 5f       	subi	r20, 0xFD	; 253
    487e:	5f 4f       	sbci	r21, 0xFF	; 255
    4880:	65 e2       	ldi	r22, 0x25	; 37
    4882:	84 ea       	ldi	r24, 0xA4	; 164
    4884:	0e 94 eb 04 	call	0x9d6	; 0x9d6 <_Z16i2c_device_writehhPhh>
    4888:	81 11       	cpse	r24, r1
    488a:	3b c0       	rjmp	.+118    	; 0x4902 <_Z18writeOneEEPROMBytehhh+0xe2>
    488c:	21 e0       	ldi	r18, 0x01	; 1
    488e:	ae 01       	movw	r20, r28
    4890:	4c 5f       	subi	r20, 0xFC	; 252
    4892:	5f 4f       	sbci	r21, 0xFF	; 255
    4894:	66 e2       	ldi	r22, 0x26	; 38
    4896:	84 ea       	ldi	r24, 0xA4	; 164
    4898:	0e 94 eb 04 	call	0x9d6	; 0x9d6 <_Z16i2c_device_writehhPhh>
    489c:	81 11       	cpse	r24, r1
    489e:	33 c0       	rjmp	.+102    	; 0x4906 <_Z18writeOneEEPROMBytehhh+0xe6>
    48a0:	19 82       	std	Y+1, r1	; 0x01
    48a2:	21 e0       	ldi	r18, 0x01	; 1
    48a4:	ae 01       	movw	r20, r28
    48a6:	4f 5f       	subi	r20, 0xFF	; 255
    48a8:	5f 4f       	sbci	r21, 0xFF	; 255
    48aa:	67 e2       	ldi	r22, 0x27	; 39
    48ac:	84 ea       	ldi	r24, 0xA4	; 164
    48ae:	0e 94 eb 04 	call	0x9d6	; 0x9d6 <_Z16i2c_device_writehhPhh>
    48b2:	81 11       	cpse	r24, r1
    48b4:	2a c0       	rjmp	.+84     	; 0x490a <_Z18writeOneEEPROMBytehhh+0xea>
    48b6:	0e 94 f1 23 	call	0x47e2	; 0x47e2 <_Z18waitForEEPROMReadyv>
    48ba:	81 11       	cpse	r24, r1
    48bc:	28 c0       	rjmp	.+80     	; 0x490e <_Z18writeOneEEPROMBytehhh+0xee>
    48be:	81 e2       	ldi	r24, 0x21	; 33
    48c0:	89 83       	std	Y+1, r24	; 0x01
    48c2:	21 e0       	ldi	r18, 0x01	; 1
    48c4:	ae 01       	movw	r20, r28
    48c6:	4f 5f       	subi	r20, 0xFF	; 255
    48c8:	5f 4f       	sbci	r21, 0xFF	; 255
    48ca:	67 e2       	ldi	r22, 0x27	; 39
    48cc:	84 ea       	ldi	r24, 0xA4	; 164
    48ce:	0e 94 eb 04 	call	0x9d6	; 0x9d6 <_Z16i2c_device_writehhPhh>
    48d2:	81 11       	cpse	r24, r1
    48d4:	1e c0       	rjmp	.+60     	; 0x4912 <_Z18writeOneEEPROMBytehhh+0xf2>
    48d6:	0e 94 f1 23 	call	0x47e2	; 0x47e2 <_Z18waitForEEPROMReadyv>
    48da:	81 11       	cpse	r24, r1
    48dc:	1c c0       	rjmp	.+56     	; 0x4916 <_Z18writeOneEEPROMBytehhh+0xf6>
    48de:	19 82       	std	Y+1, r1	; 0x01
    48e0:	21 e0       	ldi	r18, 0x01	; 1
    48e2:	ae 01       	movw	r20, r28
    48e4:	4f 5f       	subi	r20, 0xFF	; 255
    48e6:	5f 4f       	sbci	r21, 0xFF	; 255
    48e8:	6f e0       	ldi	r22, 0x0F	; 15
    48ea:	84 ea       	ldi	r24, 0xA4	; 164
    48ec:	0e 94 eb 04 	call	0x9d6	; 0x9d6 <_Z16i2c_device_writehhPhh>
    48f0:	91 e0       	ldi	r25, 0x01	; 1
    48f2:	81 11       	cpse	r24, r1
    48f4:	11 c0       	rjmp	.+34     	; 0x4918 <_Z18writeOneEEPROMBytehhh+0xf8>
    48f6:	90 e0       	ldi	r25, 0x00	; 0
    48f8:	0f c0       	rjmp	.+30     	; 0x4918 <_Z18writeOneEEPROMBytehhh+0xf8>
    48fa:	91 e0       	ldi	r25, 0x01	; 1
    48fc:	0d c0       	rjmp	.+26     	; 0x4918 <_Z18writeOneEEPROMBytehhh+0xf8>
    48fe:	91 e0       	ldi	r25, 0x01	; 1
    4900:	0b c0       	rjmp	.+22     	; 0x4918 <_Z18writeOneEEPROMBytehhh+0xf8>
    4902:	91 e0       	ldi	r25, 0x01	; 1
    4904:	09 c0       	rjmp	.+18     	; 0x4918 <_Z18writeOneEEPROMBytehhh+0xf8>
    4906:	91 e0       	ldi	r25, 0x01	; 1
    4908:	07 c0       	rjmp	.+14     	; 0x4918 <_Z18writeOneEEPROMBytehhh+0xf8>
    490a:	91 e0       	ldi	r25, 0x01	; 1
    490c:	05 c0       	rjmp	.+10     	; 0x4918 <_Z18writeOneEEPROMBytehhh+0xf8>
    490e:	91 e0       	ldi	r25, 0x01	; 1
    4910:	03 c0       	rjmp	.+6      	; 0x4918 <_Z18writeOneEEPROMBytehhh+0xf8>
    4912:	91 e0       	ldi	r25, 0x01	; 1
    4914:	01 c0       	rjmp	.+2      	; 0x4918 <_Z18writeOneEEPROMBytehhh+0xf8>
    4916:	91 e0       	ldi	r25, 0x01	; 1
    4918:	89 2f       	mov	r24, r25
    491a:	0f 90       	pop	r0
    491c:	0f 90       	pop	r0
    491e:	0f 90       	pop	r0
    4920:	0f 90       	pop	r0
    4922:	df 91       	pop	r29
    4924:	cf 91       	pop	r28
    4926:	1f 91       	pop	r17
    4928:	08 95       	ret

0000492a <_Z13rv3028_1s_sqwv>:
 #define RTC_EE_DATA                     0x26
 #define RTC_EE_COMMAND                  0x27
 #define RTC_STATUS                      0x0E
 */
		uint8_t rv3028_1s_sqw(void)
		{
    492a:	cf 93       	push	r28
    492c:	df 93       	push	r29
    492e:	00 d0       	rcall	.+0      	; 0x4930 <_Z13rv3028_1s_sqwv+0x6>
    4930:	cd b7       	in	r28, 0x3d	; 61
    4932:	de b7       	in	r29, 0x3e	; 62
			uint8_t status = FALSE;
    4934:	19 82       	std	Y+1, r1	; 0x01
			uint8_t temp = 0, mask;
    4936:	1a 82       	std	Y+2, r1	; 0x02

			if(g_allow_rv3028_eeprom_changes)
    4938:	80 91 0d 06 	lds	r24, 0x060D	; 0x80060d <g_allow_rv3028_eeprom_changes>
    493c:	88 23       	and	r24, r24
    493e:	c9 f0       	breq	.+50     	; 0x4972 <_Z13rv3028_1s_sqwv+0x48>
			{

				if(waitForEEPROMReady())
    4940:	0e 94 f1 23 	call	0x47e2	; 0x47e2 <_Z18waitForEEPROMReadyv>
    4944:	81 11       	cpse	r24, r1
    4946:	4b c0       	rjmp	.+150    	; 0x49de <_Z13rv3028_1s_sqwv+0xb4>
				{
					return( 1);
				}

				temp = 0xC5;    /* Enable 1Hz Output */
    4948:	85 ec       	ldi	r24, 0xC5	; 197
    494a:	8a 83       	std	Y+2, r24	; 0x02
				mask = 0xFF;    /* 11111111 */
				if(writeOneEEPROMByte(RTC_EEPROM_CLKOUT, mask, temp))
    494c:	45 ec       	ldi	r20, 0xC5	; 197
    494e:	6f ef       	ldi	r22, 0xFF	; 255
    4950:	85 e3       	ldi	r24, 0x35	; 53
    4952:	0e 94 10 24 	call	0x4820	; 0x4820 <_Z18writeOneEEPROMBytehhh>
    4956:	81 11       	cpse	r24, r1
    4958:	44 c0       	rjmp	.+136    	; 0x49e2 <_Z13rv3028_1s_sqwv+0xb8>
				{
					return( 1);
				}

				temp = 0x04;    /* Enable direct switching mode */
    495a:	84 e0       	ldi	r24, 0x04	; 4
    495c:	8a 83       	std	Y+2, r24	; 0x02
				mask = 0x06;    /* 00001100 */
				if(writeOneEEPROMByte(RTC_EEPROM_BACKUP, mask, temp))
    495e:	44 e0       	ldi	r20, 0x04	; 4
    4960:	66 e0       	ldi	r22, 0x06	; 6
    4962:	87 e3       	ldi	r24, 0x37	; 55
    4964:	0e 94 10 24 	call	0x4820	; 0x4820 <_Z18writeOneEEPROMBytehhh>
    4968:	81 11       	cpse	r24, r1
    496a:	3d c0       	rjmp	.+122    	; 0x49e6 <_Z13rv3028_1s_sqwv+0xbc>
 *				if(writeOneEEPROMByte(RTC_EEPROM_BACKUP, mask, temp))
 *				{
 *					return( 1);
 *				} */

				g_allow_rv3028_eeprom_changes = FALSE;
    496c:	10 92 0d 06 	sts	0x060D, r1	; 0x80060d <g_allow_rv3028_eeprom_changes>
    4970:	1a c0       	rjmp	.+52     	; 0x49a6 <_Z13rv3028_1s_sqwv+0x7c>
			}
			else    /* Read values from EEPROM - happens automatically for POR but not debugger reset */
			{
				temp = 0x00;
				status = i2c_device_write(RV3028_I2C_SLAVE_ADDR, RTC_EE_COMMAND, &temp, 1);
    4972:	21 e0       	ldi	r18, 0x01	; 1
    4974:	ae 01       	movw	r20, r28
    4976:	4e 5f       	subi	r20, 0xFE	; 254
    4978:	5f 4f       	sbci	r21, 0xFF	; 255
    497a:	67 e2       	ldi	r22, 0x27	; 39
    497c:	84 ea       	ldi	r24, 0xA4	; 164
    497e:	0e 94 eb 04 	call	0x9d6	; 0x9d6 <_Z16i2c_device_writehhPhh>
    4982:	89 83       	std	Y+1, r24	; 0x01
				waitForEEPROMReady();
    4984:	0e 94 f1 23 	call	0x47e2	; 0x47e2 <_Z18waitForEEPROMReadyv>
				temp = 0x12;    /* Refresh RAM from EEPROM */
    4988:	82 e1       	ldi	r24, 0x12	; 18
    498a:	8a 83       	std	Y+2, r24	; 0x02
				status |= i2c_device_write(RV3028_I2C_SLAVE_ADDR, RTC_EE_COMMAND, &temp, 1);
    498c:	21 e0       	ldi	r18, 0x01	; 1
    498e:	ae 01       	movw	r20, r28
    4990:	4e 5f       	subi	r20, 0xFE	; 254
    4992:	5f 4f       	sbci	r21, 0xFF	; 255
    4994:	67 e2       	ldi	r22, 0x27	; 39
    4996:	84 ea       	ldi	r24, 0xA4	; 164
    4998:	0e 94 eb 04 	call	0x9d6	; 0x9d6 <_Z16i2c_device_writehhPhh>
    499c:	99 81       	ldd	r25, Y+1	; 0x01
    499e:	89 2b       	or	r24, r25
    49a0:	89 83       	std	Y+1, r24	; 0x01
				waitForEEPROMReady();
    49a2:	0e 94 f1 23 	call	0x47e2	; 0x47e2 <_Z18waitForEEPROMReadyv>
			/*i2c_device_read(RV3028_I2C_SLAVE_ADDR, g_temp_byte, &g_hold_byte, 1); */
/*				readOneEEPROMByte(g_temp_byte, &g_hold_byte); */
/*			} */
/* End debugging */

			if(!status)
    49a6:	89 81       	ldd	r24, Y+1	; 0x01
    49a8:	81 11       	cpse	r24, r1
    49aa:	0c c0       	rjmp	.+24     	; 0x49c4 <_Z13rv3028_1s_sqwv+0x9a>
			{
				temp = i2c_device_read(RV3028_I2C_SLAVE_ADDR, RTC_STATUS, &status, 1);
    49ac:	21 e0       	ldi	r18, 0x01	; 1
    49ae:	ae 01       	movw	r20, r28
    49b0:	4f 5f       	subi	r20, 0xFF	; 255
    49b2:	5f 4f       	sbci	r21, 0xFF	; 255
    49b4:	6e e0       	ldi	r22, 0x0E	; 14
    49b6:	84 ea       	ldi	r24, 0xA4	; 164
    49b8:	0e 94 4e 05 	call	0xa9c	; 0xa9c <_Z15i2c_device_readhhPhh>
				status &= 0x6F; /* Mask off relevant flags: 01101111 */
    49bc:	89 81       	ldd	r24, Y+1	; 0x01
    49be:	8f 76       	andi	r24, 0x6F	; 111
    49c0:	89 83       	std	Y+1, r24	; 0x01
    49c2:	02 c0       	rjmp	.+4      	; 0x49c8 <_Z13rv3028_1s_sqwv+0x9e>
			}
			else
			{
				status = 1 << RTC_STATUS_I2C_ERROR;
    49c4:	80 e8       	ldi	r24, 0x80	; 128
    49c6:	89 83       	std	Y+1, r24	; 0x01
			}

			temp = 0x00;    /* Clear status flags */
    49c8:	1a 82       	std	Y+2, r1	; 0x02
			i2c_device_write(RV3028_I2C_SLAVE_ADDR, RTC_STATUS, &temp, 1);
    49ca:	21 e0       	ldi	r18, 0x01	; 1
    49cc:	ae 01       	movw	r20, r28
    49ce:	4e 5f       	subi	r20, 0xFE	; 254
    49d0:	5f 4f       	sbci	r21, 0xFF	; 255
    49d2:	6e e0       	ldi	r22, 0x0E	; 14
    49d4:	84 ea       	ldi	r24, 0xA4	; 164
    49d6:	0e 94 eb 04 	call	0x9d6	; 0x9d6 <_Z16i2c_device_writehhPhh>

			return(status);
    49da:	89 81       	ldd	r24, Y+1	; 0x01
    49dc:	05 c0       	rjmp	.+10     	; 0x49e8 <_Z13rv3028_1s_sqwv+0xbe>
			if(g_allow_rv3028_eeprom_changes)
			{

				if(waitForEEPROMReady())
				{
					return( 1);
    49de:	81 e0       	ldi	r24, 0x01	; 1
    49e0:	03 c0       	rjmp	.+6      	; 0x49e8 <_Z13rv3028_1s_sqwv+0xbe>

				temp = 0xC5;    /* Enable 1Hz Output */
				mask = 0xFF;    /* 11111111 */
				if(writeOneEEPROMByte(RTC_EEPROM_CLKOUT, mask, temp))
				{
					return( 1);
    49e2:	81 e0       	ldi	r24, 0x01	; 1
    49e4:	01 c0       	rjmp	.+2      	; 0x49e8 <_Z13rv3028_1s_sqwv+0xbe>

				temp = 0x04;    /* Enable direct switching mode */
				mask = 0x06;    /* 00001100 */
				if(writeOneEEPROMByte(RTC_EEPROM_BACKUP, mask, temp))
				{
					return( 1);
    49e6:	81 e0       	ldi	r24, 0x01	; 1

			temp = 0x00;    /* Clear status flags */
			i2c_device_write(RV3028_I2C_SLAVE_ADDR, RTC_STATUS, &temp, 1);

			return(status);
		}
    49e8:	0f 90       	pop	r0
    49ea:	0f 90       	pop	r0
    49ec:	df 91       	pop	r29
    49ee:	cf 91       	pop	r28
    49f0:	08 95       	ret

000049f2 <_Z16rv3028_32kHz_sqwv>:


#endif  /* INIT_EEPROM_ONLY */

	void rv3028_32kHz_sqw(void)
	{
    49f2:	cf 93       	push	r28
    49f4:	df 93       	push	r29
    49f6:	1f 92       	push	r1
    49f8:	cd b7       	in	r28, 0x3d	; 61
    49fa:	de b7       	in	r29, 0x3e	; 62
		/* Just set RAM value */
		uint8_t byte = 0xC0;    /* FD = 32.768 kHz */
    49fc:	80 ec       	ldi	r24, 0xC0	; 192
    49fe:	89 83       	std	Y+1, r24	; 0x01

		i2c_device_write(RV3028_I2C_SLAVE_ADDR, RTC_EEPROM_CLKOUT, &byte, 1);
    4a00:	21 e0       	ldi	r18, 0x01	; 1
    4a02:	ae 01       	movw	r20, r28
    4a04:	4f 5f       	subi	r20, 0xFF	; 255
    4a06:	5f 4f       	sbci	r21, 0xFF	; 255
    4a08:	65 e3       	ldi	r22, 0x35	; 53
    4a0a:	84 ea       	ldi	r24, 0xA4	; 164
    4a0c:	0e 94 eb 04 	call	0x9d6	; 0x9d6 <_Z16i2c_device_writehhPhh>
	}
    4a10:	0f 90       	pop	r0
    4a12:	df 91       	pop	r29
    4a14:	cf 91       	pop	r28
    4a16:	08 95       	ret

00004a18 <__subsf3>:
    4a18:	50 58       	subi	r21, 0x80	; 128

00004a1a <__addsf3>:
    4a1a:	bb 27       	eor	r27, r27
    4a1c:	aa 27       	eor	r26, r26
    4a1e:	0e 94 24 25 	call	0x4a48	; 0x4a48 <__addsf3x>
    4a22:	0c 94 ce 26 	jmp	0x4d9c	; 0x4d9c <__fp_round>
    4a26:	0e 94 95 26 	call	0x4d2a	; 0x4d2a <__fp_pscA>
    4a2a:	38 f0       	brcs	.+14     	; 0x4a3a <__addsf3+0x20>
    4a2c:	0e 94 9c 26 	call	0x4d38	; 0x4d38 <__fp_pscB>
    4a30:	20 f0       	brcs	.+8      	; 0x4a3a <__addsf3+0x20>
    4a32:	39 f4       	brne	.+14     	; 0x4a42 <__addsf3+0x28>
    4a34:	9f 3f       	cpi	r25, 0xFF	; 255
    4a36:	19 f4       	brne	.+6      	; 0x4a3e <__addsf3+0x24>
    4a38:	26 f4       	brtc	.+8      	; 0x4a42 <__addsf3+0x28>
    4a3a:	0c 94 92 26 	jmp	0x4d24	; 0x4d24 <__fp_nan>
    4a3e:	0e f4       	brtc	.+2      	; 0x4a42 <__addsf3+0x28>
    4a40:	e0 95       	com	r30
    4a42:	e7 fb       	bst	r30, 7
    4a44:	0c 94 8c 26 	jmp	0x4d18	; 0x4d18 <__fp_inf>

00004a48 <__addsf3x>:
    4a48:	e9 2f       	mov	r30, r25
    4a4a:	0e 94 f3 26 	call	0x4de6	; 0x4de6 <__fp_split3>
    4a4e:	58 f3       	brcs	.-42     	; 0x4a26 <__addsf3+0xc>
    4a50:	ba 17       	cp	r27, r26
    4a52:	62 07       	cpc	r22, r18
    4a54:	73 07       	cpc	r23, r19
    4a56:	84 07       	cpc	r24, r20
    4a58:	95 07       	cpc	r25, r21
    4a5a:	20 f0       	brcs	.+8      	; 0x4a64 <__addsf3x+0x1c>
    4a5c:	79 f4       	brne	.+30     	; 0x4a7c <__addsf3x+0x34>
    4a5e:	a6 f5       	brtc	.+104    	; 0x4ac8 <__addsf3x+0x80>
    4a60:	0c 94 15 27 	jmp	0x4e2a	; 0x4e2a <__fp_zero>
    4a64:	0e f4       	brtc	.+2      	; 0x4a68 <__addsf3x+0x20>
    4a66:	e0 95       	com	r30
    4a68:	0b 2e       	mov	r0, r27
    4a6a:	ba 2f       	mov	r27, r26
    4a6c:	a0 2d       	mov	r26, r0
    4a6e:	0b 01       	movw	r0, r22
    4a70:	b9 01       	movw	r22, r18
    4a72:	90 01       	movw	r18, r0
    4a74:	0c 01       	movw	r0, r24
    4a76:	ca 01       	movw	r24, r20
    4a78:	a0 01       	movw	r20, r0
    4a7a:	11 24       	eor	r1, r1
    4a7c:	ff 27       	eor	r31, r31
    4a7e:	59 1b       	sub	r21, r25
    4a80:	99 f0       	breq	.+38     	; 0x4aa8 <__addsf3x+0x60>
    4a82:	59 3f       	cpi	r21, 0xF9	; 249
    4a84:	50 f4       	brcc	.+20     	; 0x4a9a <__addsf3x+0x52>
    4a86:	50 3e       	cpi	r21, 0xE0	; 224
    4a88:	68 f1       	brcs	.+90     	; 0x4ae4 <__addsf3x+0x9c>
    4a8a:	1a 16       	cp	r1, r26
    4a8c:	f0 40       	sbci	r31, 0x00	; 0
    4a8e:	a2 2f       	mov	r26, r18
    4a90:	23 2f       	mov	r18, r19
    4a92:	34 2f       	mov	r19, r20
    4a94:	44 27       	eor	r20, r20
    4a96:	58 5f       	subi	r21, 0xF8	; 248
    4a98:	f3 cf       	rjmp	.-26     	; 0x4a80 <__addsf3x+0x38>
    4a9a:	46 95       	lsr	r20
    4a9c:	37 95       	ror	r19
    4a9e:	27 95       	ror	r18
    4aa0:	a7 95       	ror	r26
    4aa2:	f0 40       	sbci	r31, 0x00	; 0
    4aa4:	53 95       	inc	r21
    4aa6:	c9 f7       	brne	.-14     	; 0x4a9a <__addsf3x+0x52>
    4aa8:	7e f4       	brtc	.+30     	; 0x4ac8 <__addsf3x+0x80>
    4aaa:	1f 16       	cp	r1, r31
    4aac:	ba 0b       	sbc	r27, r26
    4aae:	62 0b       	sbc	r22, r18
    4ab0:	73 0b       	sbc	r23, r19
    4ab2:	84 0b       	sbc	r24, r20
    4ab4:	ba f0       	brmi	.+46     	; 0x4ae4 <__addsf3x+0x9c>
    4ab6:	91 50       	subi	r25, 0x01	; 1
    4ab8:	a1 f0       	breq	.+40     	; 0x4ae2 <__addsf3x+0x9a>
    4aba:	ff 0f       	add	r31, r31
    4abc:	bb 1f       	adc	r27, r27
    4abe:	66 1f       	adc	r22, r22
    4ac0:	77 1f       	adc	r23, r23
    4ac2:	88 1f       	adc	r24, r24
    4ac4:	c2 f7       	brpl	.-16     	; 0x4ab6 <__addsf3x+0x6e>
    4ac6:	0e c0       	rjmp	.+28     	; 0x4ae4 <__addsf3x+0x9c>
    4ac8:	ba 0f       	add	r27, r26
    4aca:	62 1f       	adc	r22, r18
    4acc:	73 1f       	adc	r23, r19
    4ace:	84 1f       	adc	r24, r20
    4ad0:	48 f4       	brcc	.+18     	; 0x4ae4 <__addsf3x+0x9c>
    4ad2:	87 95       	ror	r24
    4ad4:	77 95       	ror	r23
    4ad6:	67 95       	ror	r22
    4ad8:	b7 95       	ror	r27
    4ada:	f7 95       	ror	r31
    4adc:	9e 3f       	cpi	r25, 0xFE	; 254
    4ade:	08 f0       	brcs	.+2      	; 0x4ae2 <__addsf3x+0x9a>
    4ae0:	b0 cf       	rjmp	.-160    	; 0x4a42 <__addsf3+0x28>
    4ae2:	93 95       	inc	r25
    4ae4:	88 0f       	add	r24, r24
    4ae6:	08 f0       	brcs	.+2      	; 0x4aea <__addsf3x+0xa2>
    4ae8:	99 27       	eor	r25, r25
    4aea:	ee 0f       	add	r30, r30
    4aec:	97 95       	ror	r25
    4aee:	87 95       	ror	r24
    4af0:	08 95       	ret

00004af2 <__cmpsf2>:
    4af2:	0e 94 68 26 	call	0x4cd0	; 0x4cd0 <__fp_cmp>
    4af6:	08 f4       	brcc	.+2      	; 0x4afa <__cmpsf2+0x8>
    4af8:	81 e0       	ldi	r24, 0x01	; 1
    4afa:	08 95       	ret

00004afc <cos>:
    4afc:	0e 94 a5 26 	call	0x4d4a	; 0x4d4a <__fp_rempio2>
    4b00:	e3 95       	inc	r30
    4b02:	0c 94 df 26 	jmp	0x4dbe	; 0x4dbe <__fp_sinus>

00004b06 <__divsf3>:
    4b06:	0e 94 97 25 	call	0x4b2e	; 0x4b2e <__divsf3x>
    4b0a:	0c 94 ce 26 	jmp	0x4d9c	; 0x4d9c <__fp_round>
    4b0e:	0e 94 9c 26 	call	0x4d38	; 0x4d38 <__fp_pscB>
    4b12:	58 f0       	brcs	.+22     	; 0x4b2a <__divsf3+0x24>
    4b14:	0e 94 95 26 	call	0x4d2a	; 0x4d2a <__fp_pscA>
    4b18:	40 f0       	brcs	.+16     	; 0x4b2a <__divsf3+0x24>
    4b1a:	29 f4       	brne	.+10     	; 0x4b26 <__divsf3+0x20>
    4b1c:	5f 3f       	cpi	r21, 0xFF	; 255
    4b1e:	29 f0       	breq	.+10     	; 0x4b2a <__divsf3+0x24>
    4b20:	0c 94 8c 26 	jmp	0x4d18	; 0x4d18 <__fp_inf>
    4b24:	51 11       	cpse	r21, r1
    4b26:	0c 94 16 27 	jmp	0x4e2c	; 0x4e2c <__fp_szero>
    4b2a:	0c 94 92 26 	jmp	0x4d24	; 0x4d24 <__fp_nan>

00004b2e <__divsf3x>:
    4b2e:	0e 94 f3 26 	call	0x4de6	; 0x4de6 <__fp_split3>
    4b32:	68 f3       	brcs	.-38     	; 0x4b0e <__divsf3+0x8>

00004b34 <__divsf3_pse>:
    4b34:	99 23       	and	r25, r25
    4b36:	b1 f3       	breq	.-20     	; 0x4b24 <__divsf3+0x1e>
    4b38:	55 23       	and	r21, r21
    4b3a:	91 f3       	breq	.-28     	; 0x4b20 <__divsf3+0x1a>
    4b3c:	95 1b       	sub	r25, r21
    4b3e:	55 0b       	sbc	r21, r21
    4b40:	bb 27       	eor	r27, r27
    4b42:	aa 27       	eor	r26, r26
    4b44:	62 17       	cp	r22, r18
    4b46:	73 07       	cpc	r23, r19
    4b48:	84 07       	cpc	r24, r20
    4b4a:	38 f0       	brcs	.+14     	; 0x4b5a <__divsf3_pse+0x26>
    4b4c:	9f 5f       	subi	r25, 0xFF	; 255
    4b4e:	5f 4f       	sbci	r21, 0xFF	; 255
    4b50:	22 0f       	add	r18, r18
    4b52:	33 1f       	adc	r19, r19
    4b54:	44 1f       	adc	r20, r20
    4b56:	aa 1f       	adc	r26, r26
    4b58:	a9 f3       	breq	.-22     	; 0x4b44 <__divsf3_pse+0x10>
    4b5a:	35 d0       	rcall	.+106    	; 0x4bc6 <__divsf3_pse+0x92>
    4b5c:	0e 2e       	mov	r0, r30
    4b5e:	3a f0       	brmi	.+14     	; 0x4b6e <__divsf3_pse+0x3a>
    4b60:	e0 e8       	ldi	r30, 0x80	; 128
    4b62:	32 d0       	rcall	.+100    	; 0x4bc8 <__divsf3_pse+0x94>
    4b64:	91 50       	subi	r25, 0x01	; 1
    4b66:	50 40       	sbci	r21, 0x00	; 0
    4b68:	e6 95       	lsr	r30
    4b6a:	00 1c       	adc	r0, r0
    4b6c:	ca f7       	brpl	.-14     	; 0x4b60 <__divsf3_pse+0x2c>
    4b6e:	2b d0       	rcall	.+86     	; 0x4bc6 <__divsf3_pse+0x92>
    4b70:	fe 2f       	mov	r31, r30
    4b72:	29 d0       	rcall	.+82     	; 0x4bc6 <__divsf3_pse+0x92>
    4b74:	66 0f       	add	r22, r22
    4b76:	77 1f       	adc	r23, r23
    4b78:	88 1f       	adc	r24, r24
    4b7a:	bb 1f       	adc	r27, r27
    4b7c:	26 17       	cp	r18, r22
    4b7e:	37 07       	cpc	r19, r23
    4b80:	48 07       	cpc	r20, r24
    4b82:	ab 07       	cpc	r26, r27
    4b84:	b0 e8       	ldi	r27, 0x80	; 128
    4b86:	09 f0       	breq	.+2      	; 0x4b8a <__divsf3_pse+0x56>
    4b88:	bb 0b       	sbc	r27, r27
    4b8a:	80 2d       	mov	r24, r0
    4b8c:	bf 01       	movw	r22, r30
    4b8e:	ff 27       	eor	r31, r31
    4b90:	93 58       	subi	r25, 0x83	; 131
    4b92:	5f 4f       	sbci	r21, 0xFF	; 255
    4b94:	3a f0       	brmi	.+14     	; 0x4ba4 <__divsf3_pse+0x70>
    4b96:	9e 3f       	cpi	r25, 0xFE	; 254
    4b98:	51 05       	cpc	r21, r1
    4b9a:	78 f0       	brcs	.+30     	; 0x4bba <__divsf3_pse+0x86>
    4b9c:	0c 94 8c 26 	jmp	0x4d18	; 0x4d18 <__fp_inf>
    4ba0:	0c 94 16 27 	jmp	0x4e2c	; 0x4e2c <__fp_szero>
    4ba4:	5f 3f       	cpi	r21, 0xFF	; 255
    4ba6:	e4 f3       	brlt	.-8      	; 0x4ba0 <__divsf3_pse+0x6c>
    4ba8:	98 3e       	cpi	r25, 0xE8	; 232
    4baa:	d4 f3       	brlt	.-12     	; 0x4ba0 <__divsf3_pse+0x6c>
    4bac:	86 95       	lsr	r24
    4bae:	77 95       	ror	r23
    4bb0:	67 95       	ror	r22
    4bb2:	b7 95       	ror	r27
    4bb4:	f7 95       	ror	r31
    4bb6:	9f 5f       	subi	r25, 0xFF	; 255
    4bb8:	c9 f7       	brne	.-14     	; 0x4bac <__divsf3_pse+0x78>
    4bba:	88 0f       	add	r24, r24
    4bbc:	91 1d       	adc	r25, r1
    4bbe:	96 95       	lsr	r25
    4bc0:	87 95       	ror	r24
    4bc2:	97 f9       	bld	r25, 7
    4bc4:	08 95       	ret
    4bc6:	e1 e0       	ldi	r30, 0x01	; 1
    4bc8:	66 0f       	add	r22, r22
    4bca:	77 1f       	adc	r23, r23
    4bcc:	88 1f       	adc	r24, r24
    4bce:	bb 1f       	adc	r27, r27
    4bd0:	62 17       	cp	r22, r18
    4bd2:	73 07       	cpc	r23, r19
    4bd4:	84 07       	cpc	r24, r20
    4bd6:	ba 07       	cpc	r27, r26
    4bd8:	20 f0       	brcs	.+8      	; 0x4be2 <__divsf3_pse+0xae>
    4bda:	62 1b       	sub	r22, r18
    4bdc:	73 0b       	sbc	r23, r19
    4bde:	84 0b       	sbc	r24, r20
    4be0:	ba 0b       	sbc	r27, r26
    4be2:	ee 1f       	adc	r30, r30
    4be4:	88 f7       	brcc	.-30     	; 0x4bc8 <__divsf3_pse+0x94>
    4be6:	e0 95       	com	r30
    4be8:	08 95       	ret

00004bea <__fixsfsi>:
    4bea:	0e 94 fc 25 	call	0x4bf8	; 0x4bf8 <__fixunssfsi>
    4bee:	68 94       	set
    4bf0:	b1 11       	cpse	r27, r1
    4bf2:	0c 94 16 27 	jmp	0x4e2c	; 0x4e2c <__fp_szero>
    4bf6:	08 95       	ret

00004bf8 <__fixunssfsi>:
    4bf8:	0e 94 fb 26 	call	0x4df6	; 0x4df6 <__fp_splitA>
    4bfc:	88 f0       	brcs	.+34     	; 0x4c20 <__fixunssfsi+0x28>
    4bfe:	9f 57       	subi	r25, 0x7F	; 127
    4c00:	98 f0       	brcs	.+38     	; 0x4c28 <__fixunssfsi+0x30>
    4c02:	b9 2f       	mov	r27, r25
    4c04:	99 27       	eor	r25, r25
    4c06:	b7 51       	subi	r27, 0x17	; 23
    4c08:	b0 f0       	brcs	.+44     	; 0x4c36 <__fixunssfsi+0x3e>
    4c0a:	e1 f0       	breq	.+56     	; 0x4c44 <__fixunssfsi+0x4c>
    4c0c:	66 0f       	add	r22, r22
    4c0e:	77 1f       	adc	r23, r23
    4c10:	88 1f       	adc	r24, r24
    4c12:	99 1f       	adc	r25, r25
    4c14:	1a f0       	brmi	.+6      	; 0x4c1c <__fixunssfsi+0x24>
    4c16:	ba 95       	dec	r27
    4c18:	c9 f7       	brne	.-14     	; 0x4c0c <__fixunssfsi+0x14>
    4c1a:	14 c0       	rjmp	.+40     	; 0x4c44 <__fixunssfsi+0x4c>
    4c1c:	b1 30       	cpi	r27, 0x01	; 1
    4c1e:	91 f0       	breq	.+36     	; 0x4c44 <__fixunssfsi+0x4c>
    4c20:	0e 94 15 27 	call	0x4e2a	; 0x4e2a <__fp_zero>
    4c24:	b1 e0       	ldi	r27, 0x01	; 1
    4c26:	08 95       	ret
    4c28:	0c 94 15 27 	jmp	0x4e2a	; 0x4e2a <__fp_zero>
    4c2c:	67 2f       	mov	r22, r23
    4c2e:	78 2f       	mov	r23, r24
    4c30:	88 27       	eor	r24, r24
    4c32:	b8 5f       	subi	r27, 0xF8	; 248
    4c34:	39 f0       	breq	.+14     	; 0x4c44 <__fixunssfsi+0x4c>
    4c36:	b9 3f       	cpi	r27, 0xF9	; 249
    4c38:	cc f3       	brlt	.-14     	; 0x4c2c <__fixunssfsi+0x34>
    4c3a:	86 95       	lsr	r24
    4c3c:	77 95       	ror	r23
    4c3e:	67 95       	ror	r22
    4c40:	b3 95       	inc	r27
    4c42:	d9 f7       	brne	.-10     	; 0x4c3a <__fixunssfsi+0x42>
    4c44:	3e f4       	brtc	.+14     	; 0x4c54 <__fixunssfsi+0x5c>
    4c46:	90 95       	com	r25
    4c48:	80 95       	com	r24
    4c4a:	70 95       	com	r23
    4c4c:	61 95       	neg	r22
    4c4e:	7f 4f       	sbci	r23, 0xFF	; 255
    4c50:	8f 4f       	sbci	r24, 0xFF	; 255
    4c52:	9f 4f       	sbci	r25, 0xFF	; 255
    4c54:	08 95       	ret

00004c56 <__floatunsisf>:
    4c56:	e8 94       	clt
    4c58:	09 c0       	rjmp	.+18     	; 0x4c6c <__floatsisf+0x12>

00004c5a <__floatsisf>:
    4c5a:	97 fb       	bst	r25, 7
    4c5c:	3e f4       	brtc	.+14     	; 0x4c6c <__floatsisf+0x12>
    4c5e:	90 95       	com	r25
    4c60:	80 95       	com	r24
    4c62:	70 95       	com	r23
    4c64:	61 95       	neg	r22
    4c66:	7f 4f       	sbci	r23, 0xFF	; 255
    4c68:	8f 4f       	sbci	r24, 0xFF	; 255
    4c6a:	9f 4f       	sbci	r25, 0xFF	; 255
    4c6c:	99 23       	and	r25, r25
    4c6e:	a9 f0       	breq	.+42     	; 0x4c9a <__floatsisf+0x40>
    4c70:	f9 2f       	mov	r31, r25
    4c72:	96 e9       	ldi	r25, 0x96	; 150
    4c74:	bb 27       	eor	r27, r27
    4c76:	93 95       	inc	r25
    4c78:	f6 95       	lsr	r31
    4c7a:	87 95       	ror	r24
    4c7c:	77 95       	ror	r23
    4c7e:	67 95       	ror	r22
    4c80:	b7 95       	ror	r27
    4c82:	f1 11       	cpse	r31, r1
    4c84:	f8 cf       	rjmp	.-16     	; 0x4c76 <__floatsisf+0x1c>
    4c86:	fa f4       	brpl	.+62     	; 0x4cc6 <__floatsisf+0x6c>
    4c88:	bb 0f       	add	r27, r27
    4c8a:	11 f4       	brne	.+4      	; 0x4c90 <__floatsisf+0x36>
    4c8c:	60 ff       	sbrs	r22, 0
    4c8e:	1b c0       	rjmp	.+54     	; 0x4cc6 <__floatsisf+0x6c>
    4c90:	6f 5f       	subi	r22, 0xFF	; 255
    4c92:	7f 4f       	sbci	r23, 0xFF	; 255
    4c94:	8f 4f       	sbci	r24, 0xFF	; 255
    4c96:	9f 4f       	sbci	r25, 0xFF	; 255
    4c98:	16 c0       	rjmp	.+44     	; 0x4cc6 <__floatsisf+0x6c>
    4c9a:	88 23       	and	r24, r24
    4c9c:	11 f0       	breq	.+4      	; 0x4ca2 <__floatsisf+0x48>
    4c9e:	96 e9       	ldi	r25, 0x96	; 150
    4ca0:	11 c0       	rjmp	.+34     	; 0x4cc4 <__floatsisf+0x6a>
    4ca2:	77 23       	and	r23, r23
    4ca4:	21 f0       	breq	.+8      	; 0x4cae <__floatsisf+0x54>
    4ca6:	9e e8       	ldi	r25, 0x8E	; 142
    4ca8:	87 2f       	mov	r24, r23
    4caa:	76 2f       	mov	r23, r22
    4cac:	05 c0       	rjmp	.+10     	; 0x4cb8 <__floatsisf+0x5e>
    4cae:	66 23       	and	r22, r22
    4cb0:	71 f0       	breq	.+28     	; 0x4cce <__floatsisf+0x74>
    4cb2:	96 e8       	ldi	r25, 0x86	; 134
    4cb4:	86 2f       	mov	r24, r22
    4cb6:	70 e0       	ldi	r23, 0x00	; 0
    4cb8:	60 e0       	ldi	r22, 0x00	; 0
    4cba:	2a f0       	brmi	.+10     	; 0x4cc6 <__floatsisf+0x6c>
    4cbc:	9a 95       	dec	r25
    4cbe:	66 0f       	add	r22, r22
    4cc0:	77 1f       	adc	r23, r23
    4cc2:	88 1f       	adc	r24, r24
    4cc4:	da f7       	brpl	.-10     	; 0x4cbc <__floatsisf+0x62>
    4cc6:	88 0f       	add	r24, r24
    4cc8:	96 95       	lsr	r25
    4cca:	87 95       	ror	r24
    4ccc:	97 f9       	bld	r25, 7
    4cce:	08 95       	ret

00004cd0 <__fp_cmp>:
    4cd0:	99 0f       	add	r25, r25
    4cd2:	00 08       	sbc	r0, r0
    4cd4:	55 0f       	add	r21, r21
    4cd6:	aa 0b       	sbc	r26, r26
    4cd8:	e0 e8       	ldi	r30, 0x80	; 128
    4cda:	fe ef       	ldi	r31, 0xFE	; 254
    4cdc:	16 16       	cp	r1, r22
    4cde:	17 06       	cpc	r1, r23
    4ce0:	e8 07       	cpc	r30, r24
    4ce2:	f9 07       	cpc	r31, r25
    4ce4:	c0 f0       	brcs	.+48     	; 0x4d16 <__fp_cmp+0x46>
    4ce6:	12 16       	cp	r1, r18
    4ce8:	13 06       	cpc	r1, r19
    4cea:	e4 07       	cpc	r30, r20
    4cec:	f5 07       	cpc	r31, r21
    4cee:	98 f0       	brcs	.+38     	; 0x4d16 <__fp_cmp+0x46>
    4cf0:	62 1b       	sub	r22, r18
    4cf2:	73 0b       	sbc	r23, r19
    4cf4:	84 0b       	sbc	r24, r20
    4cf6:	95 0b       	sbc	r25, r21
    4cf8:	39 f4       	brne	.+14     	; 0x4d08 <__fp_cmp+0x38>
    4cfa:	0a 26       	eor	r0, r26
    4cfc:	61 f0       	breq	.+24     	; 0x4d16 <__fp_cmp+0x46>
    4cfe:	23 2b       	or	r18, r19
    4d00:	24 2b       	or	r18, r20
    4d02:	25 2b       	or	r18, r21
    4d04:	21 f4       	brne	.+8      	; 0x4d0e <__fp_cmp+0x3e>
    4d06:	08 95       	ret
    4d08:	0a 26       	eor	r0, r26
    4d0a:	09 f4       	brne	.+2      	; 0x4d0e <__fp_cmp+0x3e>
    4d0c:	a1 40       	sbci	r26, 0x01	; 1
    4d0e:	a6 95       	lsr	r26
    4d10:	8f ef       	ldi	r24, 0xFF	; 255
    4d12:	81 1d       	adc	r24, r1
    4d14:	81 1d       	adc	r24, r1
    4d16:	08 95       	ret

00004d18 <__fp_inf>:
    4d18:	97 f9       	bld	r25, 7
    4d1a:	9f 67       	ori	r25, 0x7F	; 127
    4d1c:	80 e8       	ldi	r24, 0x80	; 128
    4d1e:	70 e0       	ldi	r23, 0x00	; 0
    4d20:	60 e0       	ldi	r22, 0x00	; 0
    4d22:	08 95       	ret

00004d24 <__fp_nan>:
    4d24:	9f ef       	ldi	r25, 0xFF	; 255
    4d26:	80 ec       	ldi	r24, 0xC0	; 192
    4d28:	08 95       	ret

00004d2a <__fp_pscA>:
    4d2a:	00 24       	eor	r0, r0
    4d2c:	0a 94       	dec	r0
    4d2e:	16 16       	cp	r1, r22
    4d30:	17 06       	cpc	r1, r23
    4d32:	18 06       	cpc	r1, r24
    4d34:	09 06       	cpc	r0, r25
    4d36:	08 95       	ret

00004d38 <__fp_pscB>:
    4d38:	00 24       	eor	r0, r0
    4d3a:	0a 94       	dec	r0
    4d3c:	12 16       	cp	r1, r18
    4d3e:	13 06       	cpc	r1, r19
    4d40:	14 06       	cpc	r1, r20
    4d42:	05 06       	cpc	r0, r21
    4d44:	08 95       	ret
    4d46:	0c 94 92 26 	jmp	0x4d24	; 0x4d24 <__fp_nan>

00004d4a <__fp_rempio2>:
    4d4a:	0e 94 fb 26 	call	0x4df6	; 0x4df6 <__fp_splitA>
    4d4e:	d8 f3       	brcs	.-10     	; 0x4d46 <__fp_pscB+0xe>
    4d50:	e8 94       	clt
    4d52:	e0 e0       	ldi	r30, 0x00	; 0
    4d54:	bb 27       	eor	r27, r27
    4d56:	9f 57       	subi	r25, 0x7F	; 127
    4d58:	f0 f0       	brcs	.+60     	; 0x4d96 <__fp_rempio2+0x4c>
    4d5a:	2a ed       	ldi	r18, 0xDA	; 218
    4d5c:	3f e0       	ldi	r19, 0x0F	; 15
    4d5e:	49 ec       	ldi	r20, 0xC9	; 201
    4d60:	06 c0       	rjmp	.+12     	; 0x4d6e <__fp_rempio2+0x24>
    4d62:	ee 0f       	add	r30, r30
    4d64:	bb 0f       	add	r27, r27
    4d66:	66 1f       	adc	r22, r22
    4d68:	77 1f       	adc	r23, r23
    4d6a:	88 1f       	adc	r24, r24
    4d6c:	28 f0       	brcs	.+10     	; 0x4d78 <__fp_rempio2+0x2e>
    4d6e:	b2 3a       	cpi	r27, 0xA2	; 162
    4d70:	62 07       	cpc	r22, r18
    4d72:	73 07       	cpc	r23, r19
    4d74:	84 07       	cpc	r24, r20
    4d76:	28 f0       	brcs	.+10     	; 0x4d82 <__fp_rempio2+0x38>
    4d78:	b2 5a       	subi	r27, 0xA2	; 162
    4d7a:	62 0b       	sbc	r22, r18
    4d7c:	73 0b       	sbc	r23, r19
    4d7e:	84 0b       	sbc	r24, r20
    4d80:	e3 95       	inc	r30
    4d82:	9a 95       	dec	r25
    4d84:	72 f7       	brpl	.-36     	; 0x4d62 <__fp_rempio2+0x18>
    4d86:	80 38       	cpi	r24, 0x80	; 128
    4d88:	30 f4       	brcc	.+12     	; 0x4d96 <__fp_rempio2+0x4c>
    4d8a:	9a 95       	dec	r25
    4d8c:	bb 0f       	add	r27, r27
    4d8e:	66 1f       	adc	r22, r22
    4d90:	77 1f       	adc	r23, r23
    4d92:	88 1f       	adc	r24, r24
    4d94:	d2 f7       	brpl	.-12     	; 0x4d8a <__fp_rempio2+0x40>
    4d96:	90 48       	sbci	r25, 0x80	; 128
    4d98:	0c 94 cf 27 	jmp	0x4f9e	; 0x4f9e <__fp_mpack_finite>

00004d9c <__fp_round>:
    4d9c:	09 2e       	mov	r0, r25
    4d9e:	03 94       	inc	r0
    4da0:	00 0c       	add	r0, r0
    4da2:	11 f4       	brne	.+4      	; 0x4da8 <__fp_round+0xc>
    4da4:	88 23       	and	r24, r24
    4da6:	52 f0       	brmi	.+20     	; 0x4dbc <__fp_round+0x20>
    4da8:	bb 0f       	add	r27, r27
    4daa:	40 f4       	brcc	.+16     	; 0x4dbc <__fp_round+0x20>
    4dac:	bf 2b       	or	r27, r31
    4dae:	11 f4       	brne	.+4      	; 0x4db4 <__fp_round+0x18>
    4db0:	60 ff       	sbrs	r22, 0
    4db2:	04 c0       	rjmp	.+8      	; 0x4dbc <__fp_round+0x20>
    4db4:	6f 5f       	subi	r22, 0xFF	; 255
    4db6:	7f 4f       	sbci	r23, 0xFF	; 255
    4db8:	8f 4f       	sbci	r24, 0xFF	; 255
    4dba:	9f 4f       	sbci	r25, 0xFF	; 255
    4dbc:	08 95       	ret

00004dbe <__fp_sinus>:
    4dbe:	ef 93       	push	r30
    4dc0:	e0 ff       	sbrs	r30, 0
    4dc2:	07 c0       	rjmp	.+14     	; 0x4dd2 <__fp_sinus+0x14>
    4dc4:	a2 ea       	ldi	r26, 0xA2	; 162
    4dc6:	2a ed       	ldi	r18, 0xDA	; 218
    4dc8:	3f e0       	ldi	r19, 0x0F	; 15
    4dca:	49 ec       	ldi	r20, 0xC9	; 201
    4dcc:	5f eb       	ldi	r21, 0xBF	; 191
    4dce:	0e 94 24 25 	call	0x4a48	; 0x4a48 <__addsf3x>
    4dd2:	0e 94 ce 26 	call	0x4d9c	; 0x4d9c <__fp_round>
    4dd6:	0f 90       	pop	r0
    4dd8:	03 94       	inc	r0
    4dda:	01 fc       	sbrc	r0, 1
    4ddc:	90 58       	subi	r25, 0x80	; 128
    4dde:	ea ec       	ldi	r30, 0xCA	; 202
    4de0:	f1 e0       	ldi	r31, 0x01	; 1
    4de2:	0c 94 db 27 	jmp	0x4fb6	; 0x4fb6 <__fp_powsodd>

00004de6 <__fp_split3>:
    4de6:	57 fd       	sbrc	r21, 7
    4de8:	90 58       	subi	r25, 0x80	; 128
    4dea:	44 0f       	add	r20, r20
    4dec:	55 1f       	adc	r21, r21
    4dee:	59 f0       	breq	.+22     	; 0x4e06 <__fp_splitA+0x10>
    4df0:	5f 3f       	cpi	r21, 0xFF	; 255
    4df2:	71 f0       	breq	.+28     	; 0x4e10 <__fp_splitA+0x1a>
    4df4:	47 95       	ror	r20

00004df6 <__fp_splitA>:
    4df6:	88 0f       	add	r24, r24
    4df8:	97 fb       	bst	r25, 7
    4dfa:	99 1f       	adc	r25, r25
    4dfc:	61 f0       	breq	.+24     	; 0x4e16 <__fp_splitA+0x20>
    4dfe:	9f 3f       	cpi	r25, 0xFF	; 255
    4e00:	79 f0       	breq	.+30     	; 0x4e20 <__fp_splitA+0x2a>
    4e02:	87 95       	ror	r24
    4e04:	08 95       	ret
    4e06:	12 16       	cp	r1, r18
    4e08:	13 06       	cpc	r1, r19
    4e0a:	14 06       	cpc	r1, r20
    4e0c:	55 1f       	adc	r21, r21
    4e0e:	f2 cf       	rjmp	.-28     	; 0x4df4 <__fp_split3+0xe>
    4e10:	46 95       	lsr	r20
    4e12:	f1 df       	rcall	.-30     	; 0x4df6 <__fp_splitA>
    4e14:	08 c0       	rjmp	.+16     	; 0x4e26 <__fp_splitA+0x30>
    4e16:	16 16       	cp	r1, r22
    4e18:	17 06       	cpc	r1, r23
    4e1a:	18 06       	cpc	r1, r24
    4e1c:	99 1f       	adc	r25, r25
    4e1e:	f1 cf       	rjmp	.-30     	; 0x4e02 <__fp_splitA+0xc>
    4e20:	86 95       	lsr	r24
    4e22:	71 05       	cpc	r23, r1
    4e24:	61 05       	cpc	r22, r1
    4e26:	08 94       	sec
    4e28:	08 95       	ret

00004e2a <__fp_zero>:
    4e2a:	e8 94       	clt

00004e2c <__fp_szero>:
    4e2c:	bb 27       	eor	r27, r27
    4e2e:	66 27       	eor	r22, r22
    4e30:	77 27       	eor	r23, r23
    4e32:	cb 01       	movw	r24, r22
    4e34:	97 f9       	bld	r25, 7
    4e36:	08 95       	ret

00004e38 <__gesf2>:
    4e38:	0e 94 68 26 	call	0x4cd0	; 0x4cd0 <__fp_cmp>
    4e3c:	08 f4       	brcc	.+2      	; 0x4e40 <__gesf2+0x8>
    4e3e:	8f ef       	ldi	r24, 0xFF	; 255
    4e40:	08 95       	ret

00004e42 <__mulsf3>:
    4e42:	0e 94 34 27 	call	0x4e68	; 0x4e68 <__mulsf3x>
    4e46:	0c 94 ce 26 	jmp	0x4d9c	; 0x4d9c <__fp_round>
    4e4a:	0e 94 95 26 	call	0x4d2a	; 0x4d2a <__fp_pscA>
    4e4e:	38 f0       	brcs	.+14     	; 0x4e5e <__mulsf3+0x1c>
    4e50:	0e 94 9c 26 	call	0x4d38	; 0x4d38 <__fp_pscB>
    4e54:	20 f0       	brcs	.+8      	; 0x4e5e <__mulsf3+0x1c>
    4e56:	95 23       	and	r25, r21
    4e58:	11 f0       	breq	.+4      	; 0x4e5e <__mulsf3+0x1c>
    4e5a:	0c 94 8c 26 	jmp	0x4d18	; 0x4d18 <__fp_inf>
    4e5e:	0c 94 92 26 	jmp	0x4d24	; 0x4d24 <__fp_nan>
    4e62:	11 24       	eor	r1, r1
    4e64:	0c 94 16 27 	jmp	0x4e2c	; 0x4e2c <__fp_szero>

00004e68 <__mulsf3x>:
    4e68:	0e 94 f3 26 	call	0x4de6	; 0x4de6 <__fp_split3>
    4e6c:	70 f3       	brcs	.-36     	; 0x4e4a <__mulsf3+0x8>

00004e6e <__mulsf3_pse>:
    4e6e:	95 9f       	mul	r25, r21
    4e70:	c1 f3       	breq	.-16     	; 0x4e62 <__mulsf3+0x20>
    4e72:	95 0f       	add	r25, r21
    4e74:	50 e0       	ldi	r21, 0x00	; 0
    4e76:	55 1f       	adc	r21, r21
    4e78:	62 9f       	mul	r22, r18
    4e7a:	f0 01       	movw	r30, r0
    4e7c:	72 9f       	mul	r23, r18
    4e7e:	bb 27       	eor	r27, r27
    4e80:	f0 0d       	add	r31, r0
    4e82:	b1 1d       	adc	r27, r1
    4e84:	63 9f       	mul	r22, r19
    4e86:	aa 27       	eor	r26, r26
    4e88:	f0 0d       	add	r31, r0
    4e8a:	b1 1d       	adc	r27, r1
    4e8c:	aa 1f       	adc	r26, r26
    4e8e:	64 9f       	mul	r22, r20
    4e90:	66 27       	eor	r22, r22
    4e92:	b0 0d       	add	r27, r0
    4e94:	a1 1d       	adc	r26, r1
    4e96:	66 1f       	adc	r22, r22
    4e98:	82 9f       	mul	r24, r18
    4e9a:	22 27       	eor	r18, r18
    4e9c:	b0 0d       	add	r27, r0
    4e9e:	a1 1d       	adc	r26, r1
    4ea0:	62 1f       	adc	r22, r18
    4ea2:	73 9f       	mul	r23, r19
    4ea4:	b0 0d       	add	r27, r0
    4ea6:	a1 1d       	adc	r26, r1
    4ea8:	62 1f       	adc	r22, r18
    4eaa:	83 9f       	mul	r24, r19
    4eac:	a0 0d       	add	r26, r0
    4eae:	61 1d       	adc	r22, r1
    4eb0:	22 1f       	adc	r18, r18
    4eb2:	74 9f       	mul	r23, r20
    4eb4:	33 27       	eor	r19, r19
    4eb6:	a0 0d       	add	r26, r0
    4eb8:	61 1d       	adc	r22, r1
    4eba:	23 1f       	adc	r18, r19
    4ebc:	84 9f       	mul	r24, r20
    4ebe:	60 0d       	add	r22, r0
    4ec0:	21 1d       	adc	r18, r1
    4ec2:	82 2f       	mov	r24, r18
    4ec4:	76 2f       	mov	r23, r22
    4ec6:	6a 2f       	mov	r22, r26
    4ec8:	11 24       	eor	r1, r1
    4eca:	9f 57       	subi	r25, 0x7F	; 127
    4ecc:	50 40       	sbci	r21, 0x00	; 0
    4ece:	9a f0       	brmi	.+38     	; 0x4ef6 <__mulsf3_pse+0x88>
    4ed0:	f1 f0       	breq	.+60     	; 0x4f0e <__mulsf3_pse+0xa0>
    4ed2:	88 23       	and	r24, r24
    4ed4:	4a f0       	brmi	.+18     	; 0x4ee8 <__mulsf3_pse+0x7a>
    4ed6:	ee 0f       	add	r30, r30
    4ed8:	ff 1f       	adc	r31, r31
    4eda:	bb 1f       	adc	r27, r27
    4edc:	66 1f       	adc	r22, r22
    4ede:	77 1f       	adc	r23, r23
    4ee0:	88 1f       	adc	r24, r24
    4ee2:	91 50       	subi	r25, 0x01	; 1
    4ee4:	50 40       	sbci	r21, 0x00	; 0
    4ee6:	a9 f7       	brne	.-22     	; 0x4ed2 <__mulsf3_pse+0x64>
    4ee8:	9e 3f       	cpi	r25, 0xFE	; 254
    4eea:	51 05       	cpc	r21, r1
    4eec:	80 f0       	brcs	.+32     	; 0x4f0e <__mulsf3_pse+0xa0>
    4eee:	0c 94 8c 26 	jmp	0x4d18	; 0x4d18 <__fp_inf>
    4ef2:	0c 94 16 27 	jmp	0x4e2c	; 0x4e2c <__fp_szero>
    4ef6:	5f 3f       	cpi	r21, 0xFF	; 255
    4ef8:	e4 f3       	brlt	.-8      	; 0x4ef2 <__mulsf3_pse+0x84>
    4efa:	98 3e       	cpi	r25, 0xE8	; 232
    4efc:	d4 f3       	brlt	.-12     	; 0x4ef2 <__mulsf3_pse+0x84>
    4efe:	86 95       	lsr	r24
    4f00:	77 95       	ror	r23
    4f02:	67 95       	ror	r22
    4f04:	b7 95       	ror	r27
    4f06:	f7 95       	ror	r31
    4f08:	e7 95       	ror	r30
    4f0a:	9f 5f       	subi	r25, 0xFF	; 255
    4f0c:	c1 f7       	brne	.-16     	; 0x4efe <__mulsf3_pse+0x90>
    4f0e:	fe 2b       	or	r31, r30
    4f10:	88 0f       	add	r24, r24
    4f12:	91 1d       	adc	r25, r1
    4f14:	96 95       	lsr	r25
    4f16:	87 95       	ror	r24
    4f18:	97 f9       	bld	r25, 7
    4f1a:	08 95       	ret

00004f1c <round>:
    4f1c:	0e 94 fb 26 	call	0x4df6	; 0x4df6 <__fp_splitA>
    4f20:	e8 f0       	brcs	.+58     	; 0x4f5c <round+0x40>
    4f22:	9e 37       	cpi	r25, 0x7E	; 126
    4f24:	e8 f0       	brcs	.+58     	; 0x4f60 <round+0x44>
    4f26:	96 39       	cpi	r25, 0x96	; 150
    4f28:	b8 f4       	brcc	.+46     	; 0x4f58 <round+0x3c>
    4f2a:	9e 38       	cpi	r25, 0x8E	; 142
    4f2c:	48 f4       	brcc	.+18     	; 0x4f40 <round+0x24>
    4f2e:	67 2f       	mov	r22, r23
    4f30:	78 2f       	mov	r23, r24
    4f32:	88 27       	eor	r24, r24
    4f34:	98 5f       	subi	r25, 0xF8	; 248
    4f36:	f9 cf       	rjmp	.-14     	; 0x4f2a <round+0xe>
    4f38:	86 95       	lsr	r24
    4f3a:	77 95       	ror	r23
    4f3c:	67 95       	ror	r22
    4f3e:	93 95       	inc	r25
    4f40:	95 39       	cpi	r25, 0x95	; 149
    4f42:	d0 f3       	brcs	.-12     	; 0x4f38 <round+0x1c>
    4f44:	b6 2f       	mov	r27, r22
    4f46:	b1 70       	andi	r27, 0x01	; 1
    4f48:	6b 0f       	add	r22, r27
    4f4a:	71 1d       	adc	r23, r1
    4f4c:	81 1d       	adc	r24, r1
    4f4e:	20 f4       	brcc	.+8      	; 0x4f58 <round+0x3c>
    4f50:	87 95       	ror	r24
    4f52:	77 95       	ror	r23
    4f54:	67 95       	ror	r22
    4f56:	93 95       	inc	r25
    4f58:	0c 94 b2 27 	jmp	0x4f64	; 0x4f64 <__fp_mintl>
    4f5c:	0c 94 cd 27 	jmp	0x4f9a	; 0x4f9a <__fp_mpack>
    4f60:	0c 94 16 27 	jmp	0x4e2c	; 0x4e2c <__fp_szero>

00004f64 <__fp_mintl>:
    4f64:	88 23       	and	r24, r24
    4f66:	71 f4       	brne	.+28     	; 0x4f84 <__fp_mintl+0x20>
    4f68:	77 23       	and	r23, r23
    4f6a:	21 f0       	breq	.+8      	; 0x4f74 <__fp_mintl+0x10>
    4f6c:	98 50       	subi	r25, 0x08	; 8
    4f6e:	87 2b       	or	r24, r23
    4f70:	76 2f       	mov	r23, r22
    4f72:	07 c0       	rjmp	.+14     	; 0x4f82 <__fp_mintl+0x1e>
    4f74:	66 23       	and	r22, r22
    4f76:	11 f4       	brne	.+4      	; 0x4f7c <__fp_mintl+0x18>
    4f78:	99 27       	eor	r25, r25
    4f7a:	0d c0       	rjmp	.+26     	; 0x4f96 <__fp_mintl+0x32>
    4f7c:	90 51       	subi	r25, 0x10	; 16
    4f7e:	86 2b       	or	r24, r22
    4f80:	70 e0       	ldi	r23, 0x00	; 0
    4f82:	60 e0       	ldi	r22, 0x00	; 0
    4f84:	2a f0       	brmi	.+10     	; 0x4f90 <__fp_mintl+0x2c>
    4f86:	9a 95       	dec	r25
    4f88:	66 0f       	add	r22, r22
    4f8a:	77 1f       	adc	r23, r23
    4f8c:	88 1f       	adc	r24, r24
    4f8e:	da f7       	brpl	.-10     	; 0x4f86 <__fp_mintl+0x22>
    4f90:	88 0f       	add	r24, r24
    4f92:	96 95       	lsr	r25
    4f94:	87 95       	ror	r24
    4f96:	97 f9       	bld	r25, 7
    4f98:	08 95       	ret

00004f9a <__fp_mpack>:
    4f9a:	9f 3f       	cpi	r25, 0xFF	; 255
    4f9c:	31 f0       	breq	.+12     	; 0x4faa <__fp_mpack_finite+0xc>

00004f9e <__fp_mpack_finite>:
    4f9e:	91 50       	subi	r25, 0x01	; 1
    4fa0:	20 f4       	brcc	.+8      	; 0x4faa <__fp_mpack_finite+0xc>
    4fa2:	87 95       	ror	r24
    4fa4:	77 95       	ror	r23
    4fa6:	67 95       	ror	r22
    4fa8:	b7 95       	ror	r27
    4faa:	88 0f       	add	r24, r24
    4fac:	91 1d       	adc	r25, r1
    4fae:	96 95       	lsr	r25
    4fb0:	87 95       	ror	r24
    4fb2:	97 f9       	bld	r25, 7
    4fb4:	08 95       	ret

00004fb6 <__fp_powsodd>:
    4fb6:	9f 93       	push	r25
    4fb8:	8f 93       	push	r24
    4fba:	7f 93       	push	r23
    4fbc:	6f 93       	push	r22
    4fbe:	ff 93       	push	r31
    4fc0:	ef 93       	push	r30
    4fc2:	9b 01       	movw	r18, r22
    4fc4:	ac 01       	movw	r20, r24
    4fc6:	0e 94 21 27 	call	0x4e42	; 0x4e42 <__mulsf3>
    4fca:	ef 91       	pop	r30
    4fcc:	ff 91       	pop	r31
    4fce:	0e 94 ef 27 	call	0x4fde	; 0x4fde <__fp_powser>
    4fd2:	2f 91       	pop	r18
    4fd4:	3f 91       	pop	r19
    4fd6:	4f 91       	pop	r20
    4fd8:	5f 91       	pop	r21
    4fda:	0c 94 21 27 	jmp	0x4e42	; 0x4e42 <__mulsf3>

00004fde <__fp_powser>:
    4fde:	df 93       	push	r29
    4fe0:	cf 93       	push	r28
    4fe2:	1f 93       	push	r17
    4fe4:	0f 93       	push	r16
    4fe6:	ff 92       	push	r15
    4fe8:	ef 92       	push	r14
    4fea:	df 92       	push	r13
    4fec:	7b 01       	movw	r14, r22
    4fee:	8c 01       	movw	r16, r24
    4ff0:	68 94       	set
    4ff2:	06 c0       	rjmp	.+12     	; 0x5000 <__fp_powser+0x22>
    4ff4:	da 2e       	mov	r13, r26
    4ff6:	ef 01       	movw	r28, r30
    4ff8:	0e 94 34 27 	call	0x4e68	; 0x4e68 <__mulsf3x>
    4ffc:	fe 01       	movw	r30, r28
    4ffe:	e8 94       	clt
    5000:	a5 91       	lpm	r26, Z+
    5002:	25 91       	lpm	r18, Z+
    5004:	35 91       	lpm	r19, Z+
    5006:	45 91       	lpm	r20, Z+
    5008:	55 91       	lpm	r21, Z+
    500a:	a6 f3       	brts	.-24     	; 0x4ff4 <__fp_powser+0x16>
    500c:	ef 01       	movw	r28, r30
    500e:	0e 94 24 25 	call	0x4a48	; 0x4a48 <__addsf3x>
    5012:	fe 01       	movw	r30, r28
    5014:	97 01       	movw	r18, r14
    5016:	a8 01       	movw	r20, r16
    5018:	da 94       	dec	r13
    501a:	69 f7       	brne	.-38     	; 0x4ff6 <__fp_powser+0x18>
    501c:	df 90       	pop	r13
    501e:	ef 90       	pop	r14
    5020:	ff 90       	pop	r15
    5022:	0f 91       	pop	r16
    5024:	1f 91       	pop	r17
    5026:	cf 91       	pop	r28
    5028:	df 91       	pop	r29
    502a:	08 95       	ret

0000502c <__mulsi3>:
    502c:	db 01       	movw	r26, r22
    502e:	8f 93       	push	r24
    5030:	9f 93       	push	r25
    5032:	0e 94 ab 28 	call	0x5156	; 0x5156 <__muluhisi3>
    5036:	bf 91       	pop	r27
    5038:	af 91       	pop	r26
    503a:	a2 9f       	mul	r26, r18
    503c:	80 0d       	add	r24, r0
    503e:	91 1d       	adc	r25, r1
    5040:	a3 9f       	mul	r26, r19
    5042:	90 0d       	add	r25, r0
    5044:	b2 9f       	mul	r27, r18
    5046:	90 0d       	add	r25, r0
    5048:	11 24       	eor	r1, r1
    504a:	08 95       	ret

0000504c <__udivmodhi4>:
    504c:	aa 1b       	sub	r26, r26
    504e:	bb 1b       	sub	r27, r27
    5050:	51 e1       	ldi	r21, 0x11	; 17
    5052:	07 c0       	rjmp	.+14     	; 0x5062 <__udivmodhi4_ep>

00005054 <__udivmodhi4_loop>:
    5054:	aa 1f       	adc	r26, r26
    5056:	bb 1f       	adc	r27, r27
    5058:	a6 17       	cp	r26, r22
    505a:	b7 07       	cpc	r27, r23
    505c:	10 f0       	brcs	.+4      	; 0x5062 <__udivmodhi4_ep>
    505e:	a6 1b       	sub	r26, r22
    5060:	b7 0b       	sbc	r27, r23

00005062 <__udivmodhi4_ep>:
    5062:	88 1f       	adc	r24, r24
    5064:	99 1f       	adc	r25, r25
    5066:	5a 95       	dec	r21
    5068:	a9 f7       	brne	.-22     	; 0x5054 <__udivmodhi4_loop>
    506a:	80 95       	com	r24
    506c:	90 95       	com	r25
    506e:	bc 01       	movw	r22, r24
    5070:	cd 01       	movw	r24, r26
    5072:	08 95       	ret

00005074 <__divmodhi4>:
    5074:	97 fb       	bst	r25, 7
    5076:	07 2e       	mov	r0, r23
    5078:	16 f4       	brtc	.+4      	; 0x507e <__divmodhi4+0xa>
    507a:	00 94       	com	r0
    507c:	07 d0       	rcall	.+14     	; 0x508c <__divmodhi4_neg1>
    507e:	77 fd       	sbrc	r23, 7
    5080:	09 d0       	rcall	.+18     	; 0x5094 <__divmodhi4_neg2>
    5082:	0e 94 26 28 	call	0x504c	; 0x504c <__udivmodhi4>
    5086:	07 fc       	sbrc	r0, 7
    5088:	05 d0       	rcall	.+10     	; 0x5094 <__divmodhi4_neg2>
    508a:	3e f4       	brtc	.+14     	; 0x509a <__divmodhi4_exit>

0000508c <__divmodhi4_neg1>:
    508c:	90 95       	com	r25
    508e:	81 95       	neg	r24
    5090:	9f 4f       	sbci	r25, 0xFF	; 255
    5092:	08 95       	ret

00005094 <__divmodhi4_neg2>:
    5094:	70 95       	com	r23
    5096:	61 95       	neg	r22
    5098:	7f 4f       	sbci	r23, 0xFF	; 255

0000509a <__divmodhi4_exit>:
    509a:	08 95       	ret

0000509c <__udivmodsi4>:
    509c:	a1 e2       	ldi	r26, 0x21	; 33
    509e:	1a 2e       	mov	r1, r26
    50a0:	aa 1b       	sub	r26, r26
    50a2:	bb 1b       	sub	r27, r27
    50a4:	fd 01       	movw	r30, r26
    50a6:	0d c0       	rjmp	.+26     	; 0x50c2 <__udivmodsi4_ep>

000050a8 <__udivmodsi4_loop>:
    50a8:	aa 1f       	adc	r26, r26
    50aa:	bb 1f       	adc	r27, r27
    50ac:	ee 1f       	adc	r30, r30
    50ae:	ff 1f       	adc	r31, r31
    50b0:	a2 17       	cp	r26, r18
    50b2:	b3 07       	cpc	r27, r19
    50b4:	e4 07       	cpc	r30, r20
    50b6:	f5 07       	cpc	r31, r21
    50b8:	20 f0       	brcs	.+8      	; 0x50c2 <__udivmodsi4_ep>
    50ba:	a2 1b       	sub	r26, r18
    50bc:	b3 0b       	sbc	r27, r19
    50be:	e4 0b       	sbc	r30, r20
    50c0:	f5 0b       	sbc	r31, r21

000050c2 <__udivmodsi4_ep>:
    50c2:	66 1f       	adc	r22, r22
    50c4:	77 1f       	adc	r23, r23
    50c6:	88 1f       	adc	r24, r24
    50c8:	99 1f       	adc	r25, r25
    50ca:	1a 94       	dec	r1
    50cc:	69 f7       	brne	.-38     	; 0x50a8 <__udivmodsi4_loop>
    50ce:	60 95       	com	r22
    50d0:	70 95       	com	r23
    50d2:	80 95       	com	r24
    50d4:	90 95       	com	r25
    50d6:	9b 01       	movw	r18, r22
    50d8:	ac 01       	movw	r20, r24
    50da:	bd 01       	movw	r22, r26
    50dc:	cf 01       	movw	r24, r30
    50de:	08 95       	ret

000050e0 <__divmodsi4>:
    50e0:	05 2e       	mov	r0, r21
    50e2:	97 fb       	bst	r25, 7
    50e4:	1e f4       	brtc	.+6      	; 0x50ec <__divmodsi4+0xc>
    50e6:	00 94       	com	r0
    50e8:	0e 94 87 28 	call	0x510e	; 0x510e <__negsi2>
    50ec:	57 fd       	sbrc	r21, 7
    50ee:	07 d0       	rcall	.+14     	; 0x50fe <__divmodsi4_neg2>
    50f0:	0e 94 4e 28 	call	0x509c	; 0x509c <__udivmodsi4>
    50f4:	07 fc       	sbrc	r0, 7
    50f6:	03 d0       	rcall	.+6      	; 0x50fe <__divmodsi4_neg2>
    50f8:	4e f4       	brtc	.+18     	; 0x510c <__divmodsi4_exit>
    50fa:	0c 94 87 28 	jmp	0x510e	; 0x510e <__negsi2>

000050fe <__divmodsi4_neg2>:
    50fe:	50 95       	com	r21
    5100:	40 95       	com	r20
    5102:	30 95       	com	r19
    5104:	21 95       	neg	r18
    5106:	3f 4f       	sbci	r19, 0xFF	; 255
    5108:	4f 4f       	sbci	r20, 0xFF	; 255
    510a:	5f 4f       	sbci	r21, 0xFF	; 255

0000510c <__divmodsi4_exit>:
    510c:	08 95       	ret

0000510e <__negsi2>:
    510e:	90 95       	com	r25
    5110:	80 95       	com	r24
    5112:	70 95       	com	r23
    5114:	61 95       	neg	r22
    5116:	7f 4f       	sbci	r23, 0xFF	; 255
    5118:	8f 4f       	sbci	r24, 0xFF	; 255
    511a:	9f 4f       	sbci	r25, 0xFF	; 255
    511c:	08 95       	ret

0000511e <__tablejump2__>:
    511e:	ee 0f       	add	r30, r30
    5120:	ff 1f       	adc	r31, r31
    5122:	05 90       	lpm	r0, Z+
    5124:	f4 91       	lpm	r31, Z
    5126:	e0 2d       	mov	r30, r0
    5128:	09 94       	ijmp

0000512a <__umulhisi3>:
    512a:	a2 9f       	mul	r26, r18
    512c:	b0 01       	movw	r22, r0
    512e:	b3 9f       	mul	r27, r19
    5130:	c0 01       	movw	r24, r0
    5132:	a3 9f       	mul	r26, r19
    5134:	70 0d       	add	r23, r0
    5136:	81 1d       	adc	r24, r1
    5138:	11 24       	eor	r1, r1
    513a:	91 1d       	adc	r25, r1
    513c:	b2 9f       	mul	r27, r18
    513e:	70 0d       	add	r23, r0
    5140:	81 1d       	adc	r24, r1
    5142:	11 24       	eor	r1, r1
    5144:	91 1d       	adc	r25, r1
    5146:	08 95       	ret

00005148 <__usmulhisi3>:
    5148:	0e 94 95 28 	call	0x512a	; 0x512a <__umulhisi3>

0000514c <__usmulhisi3_tail>:
    514c:	b7 ff       	sbrs	r27, 7
    514e:	08 95       	ret
    5150:	82 1b       	sub	r24, r18
    5152:	93 0b       	sbc	r25, r19
    5154:	08 95       	ret

00005156 <__muluhisi3>:
    5156:	0e 94 95 28 	call	0x512a	; 0x512a <__umulhisi3>
    515a:	a5 9f       	mul	r26, r21
    515c:	90 0d       	add	r25, r0
    515e:	b4 9f       	mul	r27, r20
    5160:	90 0d       	add	r25, r0
    5162:	a4 9f       	mul	r26, r20
    5164:	80 0d       	add	r24, r0
    5166:	91 1d       	adc	r25, r1
    5168:	11 24       	eor	r1, r1
    516a:	08 95       	ret

0000516c <__mulshisi3>:
    516c:	b7 ff       	sbrs	r27, 7
    516e:	0c 94 ab 28 	jmp	0x5156	; 0x5156 <__muluhisi3>

00005172 <__mulohisi3>:
    5172:	0e 94 ab 28 	call	0x5156	; 0x5156 <__muluhisi3>
    5176:	82 1b       	sub	r24, r18
    5178:	93 0b       	sbc	r25, r19
    517a:	08 95       	ret

0000517c <malloc>:
    517c:	0f 93       	push	r16
    517e:	1f 93       	push	r17
    5180:	cf 93       	push	r28
    5182:	df 93       	push	r29
    5184:	82 30       	cpi	r24, 0x02	; 2
    5186:	91 05       	cpc	r25, r1
    5188:	10 f4       	brcc	.+4      	; 0x518e <malloc+0x12>
    518a:	82 e0       	ldi	r24, 0x02	; 2
    518c:	90 e0       	ldi	r25, 0x00	; 0
    518e:	e0 91 10 06 	lds	r30, 0x0610	; 0x800610 <__flp>
    5192:	f0 91 11 06 	lds	r31, 0x0611	; 0x800611 <__flp+0x1>
    5196:	20 e0       	ldi	r18, 0x00	; 0
    5198:	30 e0       	ldi	r19, 0x00	; 0
    519a:	a0 e0       	ldi	r26, 0x00	; 0
    519c:	b0 e0       	ldi	r27, 0x00	; 0
    519e:	30 97       	sbiw	r30, 0x00	; 0
    51a0:	19 f1       	breq	.+70     	; 0x51e8 <malloc+0x6c>
    51a2:	40 81       	ld	r20, Z
    51a4:	51 81       	ldd	r21, Z+1	; 0x01
    51a6:	02 81       	ldd	r16, Z+2	; 0x02
    51a8:	13 81       	ldd	r17, Z+3	; 0x03
    51aa:	48 17       	cp	r20, r24
    51ac:	59 07       	cpc	r21, r25
    51ae:	c8 f0       	brcs	.+50     	; 0x51e2 <malloc+0x66>
    51b0:	84 17       	cp	r24, r20
    51b2:	95 07       	cpc	r25, r21
    51b4:	69 f4       	brne	.+26     	; 0x51d0 <malloc+0x54>
    51b6:	10 97       	sbiw	r26, 0x00	; 0
    51b8:	31 f0       	breq	.+12     	; 0x51c6 <malloc+0x4a>
    51ba:	12 96       	adiw	r26, 0x02	; 2
    51bc:	0c 93       	st	X, r16
    51be:	12 97       	sbiw	r26, 0x02	; 2
    51c0:	13 96       	adiw	r26, 0x03	; 3
    51c2:	1c 93       	st	X, r17
    51c4:	27 c0       	rjmp	.+78     	; 0x5214 <malloc+0x98>
    51c6:	00 93 10 06 	sts	0x0610, r16	; 0x800610 <__flp>
    51ca:	10 93 11 06 	sts	0x0611, r17	; 0x800611 <__flp+0x1>
    51ce:	22 c0       	rjmp	.+68     	; 0x5214 <malloc+0x98>
    51d0:	21 15       	cp	r18, r1
    51d2:	31 05       	cpc	r19, r1
    51d4:	19 f0       	breq	.+6      	; 0x51dc <malloc+0x60>
    51d6:	42 17       	cp	r20, r18
    51d8:	53 07       	cpc	r21, r19
    51da:	18 f4       	brcc	.+6      	; 0x51e2 <malloc+0x66>
    51dc:	9a 01       	movw	r18, r20
    51de:	bd 01       	movw	r22, r26
    51e0:	ef 01       	movw	r28, r30
    51e2:	df 01       	movw	r26, r30
    51e4:	f8 01       	movw	r30, r16
    51e6:	db cf       	rjmp	.-74     	; 0x519e <malloc+0x22>
    51e8:	21 15       	cp	r18, r1
    51ea:	31 05       	cpc	r19, r1
    51ec:	f9 f0       	breq	.+62     	; 0x522c <malloc+0xb0>
    51ee:	28 1b       	sub	r18, r24
    51f0:	39 0b       	sbc	r19, r25
    51f2:	24 30       	cpi	r18, 0x04	; 4
    51f4:	31 05       	cpc	r19, r1
    51f6:	80 f4       	brcc	.+32     	; 0x5218 <malloc+0x9c>
    51f8:	8a 81       	ldd	r24, Y+2	; 0x02
    51fa:	9b 81       	ldd	r25, Y+3	; 0x03
    51fc:	61 15       	cp	r22, r1
    51fe:	71 05       	cpc	r23, r1
    5200:	21 f0       	breq	.+8      	; 0x520a <malloc+0x8e>
    5202:	fb 01       	movw	r30, r22
    5204:	93 83       	std	Z+3, r25	; 0x03
    5206:	82 83       	std	Z+2, r24	; 0x02
    5208:	04 c0       	rjmp	.+8      	; 0x5212 <malloc+0x96>
    520a:	90 93 11 06 	sts	0x0611, r25	; 0x800611 <__flp+0x1>
    520e:	80 93 10 06 	sts	0x0610, r24	; 0x800610 <__flp>
    5212:	fe 01       	movw	r30, r28
    5214:	32 96       	adiw	r30, 0x02	; 2
    5216:	44 c0       	rjmp	.+136    	; 0x52a0 <malloc+0x124>
    5218:	fe 01       	movw	r30, r28
    521a:	e2 0f       	add	r30, r18
    521c:	f3 1f       	adc	r31, r19
    521e:	81 93       	st	Z+, r24
    5220:	91 93       	st	Z+, r25
    5222:	22 50       	subi	r18, 0x02	; 2
    5224:	31 09       	sbc	r19, r1
    5226:	39 83       	std	Y+1, r19	; 0x01
    5228:	28 83       	st	Y, r18
    522a:	3a c0       	rjmp	.+116    	; 0x52a0 <malloc+0x124>
    522c:	20 91 0e 06 	lds	r18, 0x060E	; 0x80060e <__brkval>
    5230:	30 91 0f 06 	lds	r19, 0x060F	; 0x80060f <__brkval+0x1>
    5234:	23 2b       	or	r18, r19
    5236:	41 f4       	brne	.+16     	; 0x5248 <malloc+0xcc>
    5238:	20 91 02 01 	lds	r18, 0x0102	; 0x800102 <__malloc_heap_start>
    523c:	30 91 03 01 	lds	r19, 0x0103	; 0x800103 <__malloc_heap_start+0x1>
    5240:	30 93 0f 06 	sts	0x060F, r19	; 0x80060f <__brkval+0x1>
    5244:	20 93 0e 06 	sts	0x060E, r18	; 0x80060e <__brkval>
    5248:	20 91 00 01 	lds	r18, 0x0100	; 0x800100 <__DATA_REGION_ORIGIN__>
    524c:	30 91 01 01 	lds	r19, 0x0101	; 0x800101 <__DATA_REGION_ORIGIN__+0x1>
    5250:	21 15       	cp	r18, r1
    5252:	31 05       	cpc	r19, r1
    5254:	41 f4       	brne	.+16     	; 0x5266 <malloc+0xea>
    5256:	2d b7       	in	r18, 0x3d	; 61
    5258:	3e b7       	in	r19, 0x3e	; 62
    525a:	40 91 04 01 	lds	r20, 0x0104	; 0x800104 <__malloc_margin>
    525e:	50 91 05 01 	lds	r21, 0x0105	; 0x800105 <__malloc_margin+0x1>
    5262:	24 1b       	sub	r18, r20
    5264:	35 0b       	sbc	r19, r21
    5266:	e0 91 0e 06 	lds	r30, 0x060E	; 0x80060e <__brkval>
    526a:	f0 91 0f 06 	lds	r31, 0x060F	; 0x80060f <__brkval+0x1>
    526e:	e2 17       	cp	r30, r18
    5270:	f3 07       	cpc	r31, r19
    5272:	a0 f4       	brcc	.+40     	; 0x529c <malloc+0x120>
    5274:	2e 1b       	sub	r18, r30
    5276:	3f 0b       	sbc	r19, r31
    5278:	28 17       	cp	r18, r24
    527a:	39 07       	cpc	r19, r25
    527c:	78 f0       	brcs	.+30     	; 0x529c <malloc+0x120>
    527e:	ac 01       	movw	r20, r24
    5280:	4e 5f       	subi	r20, 0xFE	; 254
    5282:	5f 4f       	sbci	r21, 0xFF	; 255
    5284:	24 17       	cp	r18, r20
    5286:	35 07       	cpc	r19, r21
    5288:	48 f0       	brcs	.+18     	; 0x529c <malloc+0x120>
    528a:	4e 0f       	add	r20, r30
    528c:	5f 1f       	adc	r21, r31
    528e:	50 93 0f 06 	sts	0x060F, r21	; 0x80060f <__brkval+0x1>
    5292:	40 93 0e 06 	sts	0x060E, r20	; 0x80060e <__brkval>
    5296:	81 93       	st	Z+, r24
    5298:	91 93       	st	Z+, r25
    529a:	02 c0       	rjmp	.+4      	; 0x52a0 <malloc+0x124>
    529c:	e0 e0       	ldi	r30, 0x00	; 0
    529e:	f0 e0       	ldi	r31, 0x00	; 0
    52a0:	cf 01       	movw	r24, r30
    52a2:	df 91       	pop	r29
    52a4:	cf 91       	pop	r28
    52a6:	1f 91       	pop	r17
    52a8:	0f 91       	pop	r16
    52aa:	08 95       	ret

000052ac <free>:
    52ac:	cf 93       	push	r28
    52ae:	df 93       	push	r29
    52b0:	00 97       	sbiw	r24, 0x00	; 0
    52b2:	09 f4       	brne	.+2      	; 0x52b6 <free+0xa>
    52b4:	81 c0       	rjmp	.+258    	; 0x53b8 <free+0x10c>
    52b6:	fc 01       	movw	r30, r24
    52b8:	32 97       	sbiw	r30, 0x02	; 2
    52ba:	13 82       	std	Z+3, r1	; 0x03
    52bc:	12 82       	std	Z+2, r1	; 0x02
    52be:	a0 91 10 06 	lds	r26, 0x0610	; 0x800610 <__flp>
    52c2:	b0 91 11 06 	lds	r27, 0x0611	; 0x800611 <__flp+0x1>
    52c6:	10 97       	sbiw	r26, 0x00	; 0
    52c8:	81 f4       	brne	.+32     	; 0x52ea <free+0x3e>
    52ca:	20 81       	ld	r18, Z
    52cc:	31 81       	ldd	r19, Z+1	; 0x01
    52ce:	82 0f       	add	r24, r18
    52d0:	93 1f       	adc	r25, r19
    52d2:	20 91 0e 06 	lds	r18, 0x060E	; 0x80060e <__brkval>
    52d6:	30 91 0f 06 	lds	r19, 0x060F	; 0x80060f <__brkval+0x1>
    52da:	28 17       	cp	r18, r24
    52dc:	39 07       	cpc	r19, r25
    52de:	51 f5       	brne	.+84     	; 0x5334 <free+0x88>
    52e0:	f0 93 0f 06 	sts	0x060F, r31	; 0x80060f <__brkval+0x1>
    52e4:	e0 93 0e 06 	sts	0x060E, r30	; 0x80060e <__brkval>
    52e8:	67 c0       	rjmp	.+206    	; 0x53b8 <free+0x10c>
    52ea:	ed 01       	movw	r28, r26
    52ec:	20 e0       	ldi	r18, 0x00	; 0
    52ee:	30 e0       	ldi	r19, 0x00	; 0
    52f0:	ce 17       	cp	r28, r30
    52f2:	df 07       	cpc	r29, r31
    52f4:	40 f4       	brcc	.+16     	; 0x5306 <free+0x5a>
    52f6:	4a 81       	ldd	r20, Y+2	; 0x02
    52f8:	5b 81       	ldd	r21, Y+3	; 0x03
    52fa:	9e 01       	movw	r18, r28
    52fc:	41 15       	cp	r20, r1
    52fe:	51 05       	cpc	r21, r1
    5300:	f1 f0       	breq	.+60     	; 0x533e <free+0x92>
    5302:	ea 01       	movw	r28, r20
    5304:	f5 cf       	rjmp	.-22     	; 0x52f0 <free+0x44>
    5306:	d3 83       	std	Z+3, r29	; 0x03
    5308:	c2 83       	std	Z+2, r28	; 0x02
    530a:	40 81       	ld	r20, Z
    530c:	51 81       	ldd	r21, Z+1	; 0x01
    530e:	84 0f       	add	r24, r20
    5310:	95 1f       	adc	r25, r21
    5312:	c8 17       	cp	r28, r24
    5314:	d9 07       	cpc	r29, r25
    5316:	59 f4       	brne	.+22     	; 0x532e <free+0x82>
    5318:	88 81       	ld	r24, Y
    531a:	99 81       	ldd	r25, Y+1	; 0x01
    531c:	84 0f       	add	r24, r20
    531e:	95 1f       	adc	r25, r21
    5320:	02 96       	adiw	r24, 0x02	; 2
    5322:	91 83       	std	Z+1, r25	; 0x01
    5324:	80 83       	st	Z, r24
    5326:	8a 81       	ldd	r24, Y+2	; 0x02
    5328:	9b 81       	ldd	r25, Y+3	; 0x03
    532a:	93 83       	std	Z+3, r25	; 0x03
    532c:	82 83       	std	Z+2, r24	; 0x02
    532e:	21 15       	cp	r18, r1
    5330:	31 05       	cpc	r19, r1
    5332:	29 f4       	brne	.+10     	; 0x533e <free+0x92>
    5334:	f0 93 11 06 	sts	0x0611, r31	; 0x800611 <__flp+0x1>
    5338:	e0 93 10 06 	sts	0x0610, r30	; 0x800610 <__flp>
    533c:	3d c0       	rjmp	.+122    	; 0x53b8 <free+0x10c>
    533e:	e9 01       	movw	r28, r18
    5340:	fb 83       	std	Y+3, r31	; 0x03
    5342:	ea 83       	std	Y+2, r30	; 0x02
    5344:	49 91       	ld	r20, Y+
    5346:	59 91       	ld	r21, Y+
    5348:	c4 0f       	add	r28, r20
    534a:	d5 1f       	adc	r29, r21
    534c:	ec 17       	cp	r30, r28
    534e:	fd 07       	cpc	r31, r29
    5350:	61 f4       	brne	.+24     	; 0x536a <free+0xbe>
    5352:	80 81       	ld	r24, Z
    5354:	91 81       	ldd	r25, Z+1	; 0x01
    5356:	84 0f       	add	r24, r20
    5358:	95 1f       	adc	r25, r21
    535a:	02 96       	adiw	r24, 0x02	; 2
    535c:	e9 01       	movw	r28, r18
    535e:	99 83       	std	Y+1, r25	; 0x01
    5360:	88 83       	st	Y, r24
    5362:	82 81       	ldd	r24, Z+2	; 0x02
    5364:	93 81       	ldd	r25, Z+3	; 0x03
    5366:	9b 83       	std	Y+3, r25	; 0x03
    5368:	8a 83       	std	Y+2, r24	; 0x02
    536a:	e0 e0       	ldi	r30, 0x00	; 0
    536c:	f0 e0       	ldi	r31, 0x00	; 0
    536e:	12 96       	adiw	r26, 0x02	; 2
    5370:	8d 91       	ld	r24, X+
    5372:	9c 91       	ld	r25, X
    5374:	13 97       	sbiw	r26, 0x03	; 3
    5376:	00 97       	sbiw	r24, 0x00	; 0
    5378:	19 f0       	breq	.+6      	; 0x5380 <free+0xd4>
    537a:	fd 01       	movw	r30, r26
    537c:	dc 01       	movw	r26, r24
    537e:	f7 cf       	rjmp	.-18     	; 0x536e <free+0xc2>
    5380:	8d 91       	ld	r24, X+
    5382:	9c 91       	ld	r25, X
    5384:	11 97       	sbiw	r26, 0x01	; 1
    5386:	9d 01       	movw	r18, r26
    5388:	2e 5f       	subi	r18, 0xFE	; 254
    538a:	3f 4f       	sbci	r19, 0xFF	; 255
    538c:	82 0f       	add	r24, r18
    538e:	93 1f       	adc	r25, r19
    5390:	20 91 0e 06 	lds	r18, 0x060E	; 0x80060e <__brkval>
    5394:	30 91 0f 06 	lds	r19, 0x060F	; 0x80060f <__brkval+0x1>
    5398:	28 17       	cp	r18, r24
    539a:	39 07       	cpc	r19, r25
    539c:	69 f4       	brne	.+26     	; 0x53b8 <free+0x10c>
    539e:	30 97       	sbiw	r30, 0x00	; 0
    53a0:	29 f4       	brne	.+10     	; 0x53ac <free+0x100>
    53a2:	10 92 11 06 	sts	0x0611, r1	; 0x800611 <__flp+0x1>
    53a6:	10 92 10 06 	sts	0x0610, r1	; 0x800610 <__flp>
    53aa:	02 c0       	rjmp	.+4      	; 0x53b0 <free+0x104>
    53ac:	13 82       	std	Z+3, r1	; 0x03
    53ae:	12 82       	std	Z+2, r1	; 0x02
    53b0:	b0 93 0f 06 	sts	0x060F, r27	; 0x80060f <__brkval+0x1>
    53b4:	a0 93 0e 06 	sts	0x060E, r26	; 0x80060e <__brkval>
    53b8:	df 91       	pop	r29
    53ba:	cf 91       	pop	r28
    53bc:	08 95       	ret

000053be <atoi>:
    53be:	fc 01       	movw	r30, r24
    53c0:	88 27       	eor	r24, r24
    53c2:	99 27       	eor	r25, r25
    53c4:	e8 94       	clt
    53c6:	21 91       	ld	r18, Z+
    53c8:	20 32       	cpi	r18, 0x20	; 32
    53ca:	e9 f3       	breq	.-6      	; 0x53c6 <atoi+0x8>
    53cc:	29 30       	cpi	r18, 0x09	; 9
    53ce:	10 f0       	brcs	.+4      	; 0x53d4 <atoi+0x16>
    53d0:	2e 30       	cpi	r18, 0x0E	; 14
    53d2:	c8 f3       	brcs	.-14     	; 0x53c6 <atoi+0x8>
    53d4:	2b 32       	cpi	r18, 0x2B	; 43
    53d6:	41 f0       	breq	.+16     	; 0x53e8 <atoi+0x2a>
    53d8:	2d 32       	cpi	r18, 0x2D	; 45
    53da:	39 f4       	brne	.+14     	; 0x53ea <atoi+0x2c>
    53dc:	68 94       	set
    53de:	04 c0       	rjmp	.+8      	; 0x53e8 <atoi+0x2a>
    53e0:	0e 94 62 2a 	call	0x54c4	; 0x54c4 <__mulhi_const_10>
    53e4:	82 0f       	add	r24, r18
    53e6:	91 1d       	adc	r25, r1
    53e8:	21 91       	ld	r18, Z+
    53ea:	20 53       	subi	r18, 0x30	; 48
    53ec:	2a 30       	cpi	r18, 0x0A	; 10
    53ee:	c0 f3       	brcs	.-16     	; 0x53e0 <atoi+0x22>
    53f0:	1e f4       	brtc	.+6      	; 0x53f8 <atoi+0x3a>
    53f2:	90 95       	com	r25
    53f4:	81 95       	neg	r24
    53f6:	9f 4f       	sbci	r25, 0xFF	; 255
    53f8:	08 95       	ret

000053fa <atol>:
    53fa:	1f 93       	push	r17
    53fc:	fc 01       	movw	r30, r24
    53fe:	99 27       	eor	r25, r25
    5400:	88 27       	eor	r24, r24
    5402:	bc 01       	movw	r22, r24
    5404:	e8 94       	clt
    5406:	11 91       	ld	r17, Z+
    5408:	10 32       	cpi	r17, 0x20	; 32
    540a:	e9 f3       	breq	.-6      	; 0x5406 <atol+0xc>
    540c:	19 30       	cpi	r17, 0x09	; 9
    540e:	10 f0       	brcs	.+4      	; 0x5414 <atol+0x1a>
    5410:	1e 30       	cpi	r17, 0x0E	; 14
    5412:	c8 f3       	brcs	.-14     	; 0x5406 <atol+0xc>
    5414:	1b 32       	cpi	r17, 0x2B	; 43
    5416:	51 f0       	breq	.+20     	; 0x542c <atol+0x32>
    5418:	1d 32       	cpi	r17, 0x2D	; 45
    541a:	49 f4       	brne	.+18     	; 0x542e <atol+0x34>
    541c:	68 94       	set
    541e:	06 c0       	rjmp	.+12     	; 0x542c <atol+0x32>
    5420:	0e 94 4d 2a 	call	0x549a	; 0x549a <__mulsi_const_10>
    5424:	61 0f       	add	r22, r17
    5426:	71 1d       	adc	r23, r1
    5428:	81 1d       	adc	r24, r1
    542a:	91 1d       	adc	r25, r1
    542c:	11 91       	ld	r17, Z+
    542e:	10 53       	subi	r17, 0x30	; 48
    5430:	1a 30       	cpi	r17, 0x0A	; 10
    5432:	b0 f3       	brcs	.-20     	; 0x5420 <atol+0x26>
    5434:	3e f4       	brtc	.+14     	; 0x5444 <atol+0x4a>
    5436:	90 95       	com	r25
    5438:	80 95       	com	r24
    543a:	70 95       	com	r23
    543c:	61 95       	neg	r22
    543e:	7f 4f       	sbci	r23, 0xFF	; 255
    5440:	8f 4f       	sbci	r24, 0xFF	; 255
    5442:	9f 4f       	sbci	r25, 0xFF	; 255
    5444:	1f 91       	pop	r17
    5446:	08 95       	ret

00005448 <toupper>:
    5448:	91 11       	cpse	r25, r1
    544a:	08 95       	ret
    544c:	81 56       	subi	r24, 0x61	; 97
    544e:	8a 51       	subi	r24, 0x1A	; 26
    5450:	08 f4       	brcc	.+2      	; 0x5454 <toupper+0xc>
    5452:	80 52       	subi	r24, 0x20	; 32
    5454:	85 58       	subi	r24, 0x85	; 133
    5456:	08 95       	ret

00005458 <strcat>:
    5458:	fb 01       	movw	r30, r22
    545a:	dc 01       	movw	r26, r24
    545c:	0d 90       	ld	r0, X+
    545e:	00 20       	and	r0, r0
    5460:	e9 f7       	brne	.-6      	; 0x545c <strcat+0x4>
    5462:	11 97       	sbiw	r26, 0x01	; 1
    5464:	01 90       	ld	r0, Z+
    5466:	0d 92       	st	X+, r0
    5468:	00 20       	and	r0, r0
    546a:	e1 f7       	brne	.-8      	; 0x5464 <strcat+0xc>
    546c:	08 95       	ret

0000546e <strcpy>:
    546e:	fb 01       	movw	r30, r22
    5470:	dc 01       	movw	r26, r24
    5472:	01 90       	ld	r0, Z+
    5474:	0d 92       	st	X+, r0
    5476:	00 20       	and	r0, r0
    5478:	e1 f7       	brne	.-8      	; 0x5472 <strcpy+0x4>
    547a:	08 95       	ret

0000547c <strncpy>:
    547c:	fb 01       	movw	r30, r22
    547e:	dc 01       	movw	r26, r24
    5480:	41 50       	subi	r20, 0x01	; 1
    5482:	50 40       	sbci	r21, 0x00	; 0
    5484:	48 f0       	brcs	.+18     	; 0x5498 <strncpy+0x1c>
    5486:	01 90       	ld	r0, Z+
    5488:	0d 92       	st	X+, r0
    548a:	00 20       	and	r0, r0
    548c:	c9 f7       	brne	.-14     	; 0x5480 <strncpy+0x4>
    548e:	01 c0       	rjmp	.+2      	; 0x5492 <strncpy+0x16>
    5490:	1d 92       	st	X+, r1
    5492:	41 50       	subi	r20, 0x01	; 1
    5494:	50 40       	sbci	r21, 0x00	; 0
    5496:	e0 f7       	brcc	.-8      	; 0x5490 <strncpy+0x14>
    5498:	08 95       	ret

0000549a <__mulsi_const_10>:
    549a:	59 2f       	mov	r21, r25
    549c:	48 2f       	mov	r20, r24
    549e:	37 2f       	mov	r19, r23
    54a0:	26 2f       	mov	r18, r22
    54a2:	66 0f       	add	r22, r22
    54a4:	77 1f       	adc	r23, r23
    54a6:	88 1f       	adc	r24, r24
    54a8:	99 1f       	adc	r25, r25
    54aa:	66 0f       	add	r22, r22
    54ac:	77 1f       	adc	r23, r23
    54ae:	88 1f       	adc	r24, r24
    54b0:	99 1f       	adc	r25, r25
    54b2:	62 0f       	add	r22, r18
    54b4:	73 1f       	adc	r23, r19
    54b6:	84 1f       	adc	r24, r20
    54b8:	95 1f       	adc	r25, r21
    54ba:	66 0f       	add	r22, r22
    54bc:	77 1f       	adc	r23, r23
    54be:	88 1f       	adc	r24, r24
    54c0:	99 1f       	adc	r25, r25
    54c2:	08 95       	ret

000054c4 <__mulhi_const_10>:
    54c4:	7a e0       	ldi	r23, 0x0A	; 10
    54c6:	97 9f       	mul	r25, r23
    54c8:	90 2d       	mov	r25, r0
    54ca:	87 9f       	mul	r24, r23
    54cc:	80 2d       	mov	r24, r0
    54ce:	91 0d       	add	r25, r1
    54d0:	11 24       	eor	r1, r1
    54d2:	08 95       	ret

000054d4 <sprintf>:
    54d4:	ae e0       	ldi	r26, 0x0E	; 14
    54d6:	b0 e0       	ldi	r27, 0x00	; 0
    54d8:	e0 e7       	ldi	r30, 0x70	; 112
    54da:	fa e2       	ldi	r31, 0x2A	; 42
    54dc:	0c 94 81 2d 	jmp	0x5b02	; 0x5b02 <__prologue_saves__+0x1c>
    54e0:	0d 89       	ldd	r16, Y+21	; 0x15
    54e2:	1e 89       	ldd	r17, Y+22	; 0x16
    54e4:	86 e0       	ldi	r24, 0x06	; 6
    54e6:	8c 83       	std	Y+4, r24	; 0x04
    54e8:	1a 83       	std	Y+2, r17	; 0x02
    54ea:	09 83       	std	Y+1, r16	; 0x01
    54ec:	8f ef       	ldi	r24, 0xFF	; 255
    54ee:	9f e7       	ldi	r25, 0x7F	; 127
    54f0:	9e 83       	std	Y+6, r25	; 0x06
    54f2:	8d 83       	std	Y+5, r24	; 0x05
    54f4:	ae 01       	movw	r20, r28
    54f6:	47 5e       	subi	r20, 0xE7	; 231
    54f8:	5f 4f       	sbci	r21, 0xFF	; 255
    54fa:	6f 89       	ldd	r22, Y+23	; 0x17
    54fc:	78 8d       	ldd	r23, Y+24	; 0x18
    54fe:	ce 01       	movw	r24, r28
    5500:	01 96       	adiw	r24, 0x01	; 1
    5502:	0e 94 8c 2a 	call	0x5518	; 0x5518 <vfprintf>
    5506:	ef 81       	ldd	r30, Y+7	; 0x07
    5508:	f8 85       	ldd	r31, Y+8	; 0x08
    550a:	e0 0f       	add	r30, r16
    550c:	f1 1f       	adc	r31, r17
    550e:	10 82       	st	Z, r1
    5510:	2e 96       	adiw	r28, 0x0e	; 14
    5512:	e4 e0       	ldi	r30, 0x04	; 4
    5514:	0c 94 9d 2d 	jmp	0x5b3a	; 0x5b3a <__epilogue_restores__+0x1c>

00005518 <vfprintf>:
    5518:	ab e0       	ldi	r26, 0x0B	; 11
    551a:	b0 e0       	ldi	r27, 0x00	; 0
    551c:	e2 e9       	ldi	r30, 0x92	; 146
    551e:	fa e2       	ldi	r31, 0x2A	; 42
    5520:	0c 94 73 2d 	jmp	0x5ae6	; 0x5ae6 <__prologue_saves__>
    5524:	6c 01       	movw	r12, r24
    5526:	7b 01       	movw	r14, r22
    5528:	8a 01       	movw	r16, r20
    552a:	fc 01       	movw	r30, r24
    552c:	17 82       	std	Z+7, r1	; 0x07
    552e:	16 82       	std	Z+6, r1	; 0x06
    5530:	83 81       	ldd	r24, Z+3	; 0x03
    5532:	81 ff       	sbrs	r24, 1
    5534:	cc c1       	rjmp	.+920    	; 0x58ce <vfprintf+0x3b6>
    5536:	ce 01       	movw	r24, r28
    5538:	01 96       	adiw	r24, 0x01	; 1
    553a:	3c 01       	movw	r6, r24
    553c:	f6 01       	movw	r30, r12
    553e:	93 81       	ldd	r25, Z+3	; 0x03
    5540:	f7 01       	movw	r30, r14
    5542:	93 fd       	sbrc	r25, 3
    5544:	85 91       	lpm	r24, Z+
    5546:	93 ff       	sbrs	r25, 3
    5548:	81 91       	ld	r24, Z+
    554a:	7f 01       	movw	r14, r30
    554c:	88 23       	and	r24, r24
    554e:	09 f4       	brne	.+2      	; 0x5552 <vfprintf+0x3a>
    5550:	ba c1       	rjmp	.+884    	; 0x58c6 <vfprintf+0x3ae>
    5552:	85 32       	cpi	r24, 0x25	; 37
    5554:	39 f4       	brne	.+14     	; 0x5564 <vfprintf+0x4c>
    5556:	93 fd       	sbrc	r25, 3
    5558:	85 91       	lpm	r24, Z+
    555a:	93 ff       	sbrs	r25, 3
    555c:	81 91       	ld	r24, Z+
    555e:	7f 01       	movw	r14, r30
    5560:	85 32       	cpi	r24, 0x25	; 37
    5562:	29 f4       	brne	.+10     	; 0x556e <vfprintf+0x56>
    5564:	b6 01       	movw	r22, r12
    5566:	90 e0       	ldi	r25, 0x00	; 0
    5568:	0e 94 83 2c 	call	0x5906	; 0x5906 <fputc>
    556c:	e7 cf       	rjmp	.-50     	; 0x553c <vfprintf+0x24>
    556e:	91 2c       	mov	r9, r1
    5570:	21 2c       	mov	r2, r1
    5572:	31 2c       	mov	r3, r1
    5574:	ff e1       	ldi	r31, 0x1F	; 31
    5576:	f3 15       	cp	r31, r3
    5578:	d8 f0       	brcs	.+54     	; 0x55b0 <vfprintf+0x98>
    557a:	8b 32       	cpi	r24, 0x2B	; 43
    557c:	79 f0       	breq	.+30     	; 0x559c <vfprintf+0x84>
    557e:	38 f4       	brcc	.+14     	; 0x558e <vfprintf+0x76>
    5580:	80 32       	cpi	r24, 0x20	; 32
    5582:	79 f0       	breq	.+30     	; 0x55a2 <vfprintf+0x8a>
    5584:	83 32       	cpi	r24, 0x23	; 35
    5586:	a1 f4       	brne	.+40     	; 0x55b0 <vfprintf+0x98>
    5588:	23 2d       	mov	r18, r3
    558a:	20 61       	ori	r18, 0x10	; 16
    558c:	1d c0       	rjmp	.+58     	; 0x55c8 <vfprintf+0xb0>
    558e:	8d 32       	cpi	r24, 0x2D	; 45
    5590:	61 f0       	breq	.+24     	; 0x55aa <vfprintf+0x92>
    5592:	80 33       	cpi	r24, 0x30	; 48
    5594:	69 f4       	brne	.+26     	; 0x55b0 <vfprintf+0x98>
    5596:	23 2d       	mov	r18, r3
    5598:	21 60       	ori	r18, 0x01	; 1
    559a:	16 c0       	rjmp	.+44     	; 0x55c8 <vfprintf+0xb0>
    559c:	83 2d       	mov	r24, r3
    559e:	82 60       	ori	r24, 0x02	; 2
    55a0:	38 2e       	mov	r3, r24
    55a2:	e3 2d       	mov	r30, r3
    55a4:	e4 60       	ori	r30, 0x04	; 4
    55a6:	3e 2e       	mov	r3, r30
    55a8:	2a c0       	rjmp	.+84     	; 0x55fe <vfprintf+0xe6>
    55aa:	f3 2d       	mov	r31, r3
    55ac:	f8 60       	ori	r31, 0x08	; 8
    55ae:	1d c0       	rjmp	.+58     	; 0x55ea <vfprintf+0xd2>
    55b0:	37 fc       	sbrc	r3, 7
    55b2:	2d c0       	rjmp	.+90     	; 0x560e <vfprintf+0xf6>
    55b4:	20 ed       	ldi	r18, 0xD0	; 208
    55b6:	28 0f       	add	r18, r24
    55b8:	2a 30       	cpi	r18, 0x0A	; 10
    55ba:	40 f0       	brcs	.+16     	; 0x55cc <vfprintf+0xb4>
    55bc:	8e 32       	cpi	r24, 0x2E	; 46
    55be:	b9 f4       	brne	.+46     	; 0x55ee <vfprintf+0xd6>
    55c0:	36 fc       	sbrc	r3, 6
    55c2:	81 c1       	rjmp	.+770    	; 0x58c6 <vfprintf+0x3ae>
    55c4:	23 2d       	mov	r18, r3
    55c6:	20 64       	ori	r18, 0x40	; 64
    55c8:	32 2e       	mov	r3, r18
    55ca:	19 c0       	rjmp	.+50     	; 0x55fe <vfprintf+0xe6>
    55cc:	36 fe       	sbrs	r3, 6
    55ce:	06 c0       	rjmp	.+12     	; 0x55dc <vfprintf+0xc4>
    55d0:	8a e0       	ldi	r24, 0x0A	; 10
    55d2:	98 9e       	mul	r9, r24
    55d4:	20 0d       	add	r18, r0
    55d6:	11 24       	eor	r1, r1
    55d8:	92 2e       	mov	r9, r18
    55da:	11 c0       	rjmp	.+34     	; 0x55fe <vfprintf+0xe6>
    55dc:	ea e0       	ldi	r30, 0x0A	; 10
    55de:	2e 9e       	mul	r2, r30
    55e0:	20 0d       	add	r18, r0
    55e2:	11 24       	eor	r1, r1
    55e4:	22 2e       	mov	r2, r18
    55e6:	f3 2d       	mov	r31, r3
    55e8:	f0 62       	ori	r31, 0x20	; 32
    55ea:	3f 2e       	mov	r3, r31
    55ec:	08 c0       	rjmp	.+16     	; 0x55fe <vfprintf+0xe6>
    55ee:	8c 36       	cpi	r24, 0x6C	; 108
    55f0:	21 f4       	brne	.+8      	; 0x55fa <vfprintf+0xe2>
    55f2:	83 2d       	mov	r24, r3
    55f4:	80 68       	ori	r24, 0x80	; 128
    55f6:	38 2e       	mov	r3, r24
    55f8:	02 c0       	rjmp	.+4      	; 0x55fe <vfprintf+0xe6>
    55fa:	88 36       	cpi	r24, 0x68	; 104
    55fc:	41 f4       	brne	.+16     	; 0x560e <vfprintf+0xf6>
    55fe:	f7 01       	movw	r30, r14
    5600:	93 fd       	sbrc	r25, 3
    5602:	85 91       	lpm	r24, Z+
    5604:	93 ff       	sbrs	r25, 3
    5606:	81 91       	ld	r24, Z+
    5608:	7f 01       	movw	r14, r30
    560a:	81 11       	cpse	r24, r1
    560c:	b3 cf       	rjmp	.-154    	; 0x5574 <vfprintf+0x5c>
    560e:	98 2f       	mov	r25, r24
    5610:	9f 7d       	andi	r25, 0xDF	; 223
    5612:	95 54       	subi	r25, 0x45	; 69
    5614:	93 30       	cpi	r25, 0x03	; 3
    5616:	28 f4       	brcc	.+10     	; 0x5622 <vfprintf+0x10a>
    5618:	0c 5f       	subi	r16, 0xFC	; 252
    561a:	1f 4f       	sbci	r17, 0xFF	; 255
    561c:	9f e3       	ldi	r25, 0x3F	; 63
    561e:	99 83       	std	Y+1, r25	; 0x01
    5620:	0d c0       	rjmp	.+26     	; 0x563c <vfprintf+0x124>
    5622:	83 36       	cpi	r24, 0x63	; 99
    5624:	31 f0       	breq	.+12     	; 0x5632 <vfprintf+0x11a>
    5626:	83 37       	cpi	r24, 0x73	; 115
    5628:	71 f0       	breq	.+28     	; 0x5646 <vfprintf+0x12e>
    562a:	83 35       	cpi	r24, 0x53	; 83
    562c:	09 f0       	breq	.+2      	; 0x5630 <vfprintf+0x118>
    562e:	59 c0       	rjmp	.+178    	; 0x56e2 <vfprintf+0x1ca>
    5630:	21 c0       	rjmp	.+66     	; 0x5674 <vfprintf+0x15c>
    5632:	f8 01       	movw	r30, r16
    5634:	80 81       	ld	r24, Z
    5636:	89 83       	std	Y+1, r24	; 0x01
    5638:	0e 5f       	subi	r16, 0xFE	; 254
    563a:	1f 4f       	sbci	r17, 0xFF	; 255
    563c:	88 24       	eor	r8, r8
    563e:	83 94       	inc	r8
    5640:	91 2c       	mov	r9, r1
    5642:	53 01       	movw	r10, r6
    5644:	13 c0       	rjmp	.+38     	; 0x566c <vfprintf+0x154>
    5646:	28 01       	movw	r4, r16
    5648:	f2 e0       	ldi	r31, 0x02	; 2
    564a:	4f 0e       	add	r4, r31
    564c:	51 1c       	adc	r5, r1
    564e:	f8 01       	movw	r30, r16
    5650:	a0 80       	ld	r10, Z
    5652:	b1 80       	ldd	r11, Z+1	; 0x01
    5654:	36 fe       	sbrs	r3, 6
    5656:	03 c0       	rjmp	.+6      	; 0x565e <vfprintf+0x146>
    5658:	69 2d       	mov	r22, r9
    565a:	70 e0       	ldi	r23, 0x00	; 0
    565c:	02 c0       	rjmp	.+4      	; 0x5662 <vfprintf+0x14a>
    565e:	6f ef       	ldi	r22, 0xFF	; 255
    5660:	7f ef       	ldi	r23, 0xFF	; 255
    5662:	c5 01       	movw	r24, r10
    5664:	0e 94 78 2c 	call	0x58f0	; 0x58f0 <strnlen>
    5668:	4c 01       	movw	r8, r24
    566a:	82 01       	movw	r16, r4
    566c:	f3 2d       	mov	r31, r3
    566e:	ff 77       	andi	r31, 0x7F	; 127
    5670:	3f 2e       	mov	r3, r31
    5672:	16 c0       	rjmp	.+44     	; 0x56a0 <vfprintf+0x188>
    5674:	28 01       	movw	r4, r16
    5676:	22 e0       	ldi	r18, 0x02	; 2
    5678:	42 0e       	add	r4, r18
    567a:	51 1c       	adc	r5, r1
    567c:	f8 01       	movw	r30, r16
    567e:	a0 80       	ld	r10, Z
    5680:	b1 80       	ldd	r11, Z+1	; 0x01
    5682:	36 fe       	sbrs	r3, 6
    5684:	03 c0       	rjmp	.+6      	; 0x568c <vfprintf+0x174>
    5686:	69 2d       	mov	r22, r9
    5688:	70 e0       	ldi	r23, 0x00	; 0
    568a:	02 c0       	rjmp	.+4      	; 0x5690 <vfprintf+0x178>
    568c:	6f ef       	ldi	r22, 0xFF	; 255
    568e:	7f ef       	ldi	r23, 0xFF	; 255
    5690:	c5 01       	movw	r24, r10
    5692:	0e 94 6d 2c 	call	0x58da	; 0x58da <strnlen_P>
    5696:	4c 01       	movw	r8, r24
    5698:	f3 2d       	mov	r31, r3
    569a:	f0 68       	ori	r31, 0x80	; 128
    569c:	3f 2e       	mov	r3, r31
    569e:	82 01       	movw	r16, r4
    56a0:	33 fc       	sbrc	r3, 3
    56a2:	1b c0       	rjmp	.+54     	; 0x56da <vfprintf+0x1c2>
    56a4:	82 2d       	mov	r24, r2
    56a6:	90 e0       	ldi	r25, 0x00	; 0
    56a8:	88 16       	cp	r8, r24
    56aa:	99 06       	cpc	r9, r25
    56ac:	b0 f4       	brcc	.+44     	; 0x56da <vfprintf+0x1c2>
    56ae:	b6 01       	movw	r22, r12
    56b0:	80 e2       	ldi	r24, 0x20	; 32
    56b2:	90 e0       	ldi	r25, 0x00	; 0
    56b4:	0e 94 83 2c 	call	0x5906	; 0x5906 <fputc>
    56b8:	2a 94       	dec	r2
    56ba:	f4 cf       	rjmp	.-24     	; 0x56a4 <vfprintf+0x18c>
    56bc:	f5 01       	movw	r30, r10
    56be:	37 fc       	sbrc	r3, 7
    56c0:	85 91       	lpm	r24, Z+
    56c2:	37 fe       	sbrs	r3, 7
    56c4:	81 91       	ld	r24, Z+
    56c6:	5f 01       	movw	r10, r30
    56c8:	b6 01       	movw	r22, r12
    56ca:	90 e0       	ldi	r25, 0x00	; 0
    56cc:	0e 94 83 2c 	call	0x5906	; 0x5906 <fputc>
    56d0:	21 10       	cpse	r2, r1
    56d2:	2a 94       	dec	r2
    56d4:	21 e0       	ldi	r18, 0x01	; 1
    56d6:	82 1a       	sub	r8, r18
    56d8:	91 08       	sbc	r9, r1
    56da:	81 14       	cp	r8, r1
    56dc:	91 04       	cpc	r9, r1
    56de:	71 f7       	brne	.-36     	; 0x56bc <vfprintf+0x1a4>
    56e0:	e8 c0       	rjmp	.+464    	; 0x58b2 <vfprintf+0x39a>
    56e2:	84 36       	cpi	r24, 0x64	; 100
    56e4:	11 f0       	breq	.+4      	; 0x56ea <vfprintf+0x1d2>
    56e6:	89 36       	cpi	r24, 0x69	; 105
    56e8:	41 f5       	brne	.+80     	; 0x573a <vfprintf+0x222>
    56ea:	f8 01       	movw	r30, r16
    56ec:	37 fe       	sbrs	r3, 7
    56ee:	07 c0       	rjmp	.+14     	; 0x56fe <vfprintf+0x1e6>
    56f0:	60 81       	ld	r22, Z
    56f2:	71 81       	ldd	r23, Z+1	; 0x01
    56f4:	82 81       	ldd	r24, Z+2	; 0x02
    56f6:	93 81       	ldd	r25, Z+3	; 0x03
    56f8:	0c 5f       	subi	r16, 0xFC	; 252
    56fa:	1f 4f       	sbci	r17, 0xFF	; 255
    56fc:	08 c0       	rjmp	.+16     	; 0x570e <vfprintf+0x1f6>
    56fe:	60 81       	ld	r22, Z
    5700:	71 81       	ldd	r23, Z+1	; 0x01
    5702:	07 2e       	mov	r0, r23
    5704:	00 0c       	add	r0, r0
    5706:	88 0b       	sbc	r24, r24
    5708:	99 0b       	sbc	r25, r25
    570a:	0e 5f       	subi	r16, 0xFE	; 254
    570c:	1f 4f       	sbci	r17, 0xFF	; 255
    570e:	f3 2d       	mov	r31, r3
    5710:	ff 76       	andi	r31, 0x6F	; 111
    5712:	3f 2e       	mov	r3, r31
    5714:	97 ff       	sbrs	r25, 7
    5716:	09 c0       	rjmp	.+18     	; 0x572a <vfprintf+0x212>
    5718:	90 95       	com	r25
    571a:	80 95       	com	r24
    571c:	70 95       	com	r23
    571e:	61 95       	neg	r22
    5720:	7f 4f       	sbci	r23, 0xFF	; 255
    5722:	8f 4f       	sbci	r24, 0xFF	; 255
    5724:	9f 4f       	sbci	r25, 0xFF	; 255
    5726:	f0 68       	ori	r31, 0x80	; 128
    5728:	3f 2e       	mov	r3, r31
    572a:	2a e0       	ldi	r18, 0x0A	; 10
    572c:	30 e0       	ldi	r19, 0x00	; 0
    572e:	a3 01       	movw	r20, r6
    5730:	0e 94 bf 2c 	call	0x597e	; 0x597e <__ultoa_invert>
    5734:	88 2e       	mov	r8, r24
    5736:	86 18       	sub	r8, r6
    5738:	45 c0       	rjmp	.+138    	; 0x57c4 <vfprintf+0x2ac>
    573a:	85 37       	cpi	r24, 0x75	; 117
    573c:	31 f4       	brne	.+12     	; 0x574a <vfprintf+0x232>
    573e:	23 2d       	mov	r18, r3
    5740:	2f 7e       	andi	r18, 0xEF	; 239
    5742:	b2 2e       	mov	r11, r18
    5744:	2a e0       	ldi	r18, 0x0A	; 10
    5746:	30 e0       	ldi	r19, 0x00	; 0
    5748:	25 c0       	rjmp	.+74     	; 0x5794 <vfprintf+0x27c>
    574a:	93 2d       	mov	r25, r3
    574c:	99 7f       	andi	r25, 0xF9	; 249
    574e:	b9 2e       	mov	r11, r25
    5750:	8f 36       	cpi	r24, 0x6F	; 111
    5752:	c1 f0       	breq	.+48     	; 0x5784 <vfprintf+0x26c>
    5754:	18 f4       	brcc	.+6      	; 0x575c <vfprintf+0x244>
    5756:	88 35       	cpi	r24, 0x58	; 88
    5758:	79 f0       	breq	.+30     	; 0x5778 <vfprintf+0x260>
    575a:	b5 c0       	rjmp	.+362    	; 0x58c6 <vfprintf+0x3ae>
    575c:	80 37       	cpi	r24, 0x70	; 112
    575e:	19 f0       	breq	.+6      	; 0x5766 <vfprintf+0x24e>
    5760:	88 37       	cpi	r24, 0x78	; 120
    5762:	21 f0       	breq	.+8      	; 0x576c <vfprintf+0x254>
    5764:	b0 c0       	rjmp	.+352    	; 0x58c6 <vfprintf+0x3ae>
    5766:	e9 2f       	mov	r30, r25
    5768:	e0 61       	ori	r30, 0x10	; 16
    576a:	be 2e       	mov	r11, r30
    576c:	b4 fe       	sbrs	r11, 4
    576e:	0d c0       	rjmp	.+26     	; 0x578a <vfprintf+0x272>
    5770:	fb 2d       	mov	r31, r11
    5772:	f4 60       	ori	r31, 0x04	; 4
    5774:	bf 2e       	mov	r11, r31
    5776:	09 c0       	rjmp	.+18     	; 0x578a <vfprintf+0x272>
    5778:	34 fe       	sbrs	r3, 4
    577a:	0a c0       	rjmp	.+20     	; 0x5790 <vfprintf+0x278>
    577c:	29 2f       	mov	r18, r25
    577e:	26 60       	ori	r18, 0x06	; 6
    5780:	b2 2e       	mov	r11, r18
    5782:	06 c0       	rjmp	.+12     	; 0x5790 <vfprintf+0x278>
    5784:	28 e0       	ldi	r18, 0x08	; 8
    5786:	30 e0       	ldi	r19, 0x00	; 0
    5788:	05 c0       	rjmp	.+10     	; 0x5794 <vfprintf+0x27c>
    578a:	20 e1       	ldi	r18, 0x10	; 16
    578c:	30 e0       	ldi	r19, 0x00	; 0
    578e:	02 c0       	rjmp	.+4      	; 0x5794 <vfprintf+0x27c>
    5790:	20 e1       	ldi	r18, 0x10	; 16
    5792:	32 e0       	ldi	r19, 0x02	; 2
    5794:	f8 01       	movw	r30, r16
    5796:	b7 fe       	sbrs	r11, 7
    5798:	07 c0       	rjmp	.+14     	; 0x57a8 <vfprintf+0x290>
    579a:	60 81       	ld	r22, Z
    579c:	71 81       	ldd	r23, Z+1	; 0x01
    579e:	82 81       	ldd	r24, Z+2	; 0x02
    57a0:	93 81       	ldd	r25, Z+3	; 0x03
    57a2:	0c 5f       	subi	r16, 0xFC	; 252
    57a4:	1f 4f       	sbci	r17, 0xFF	; 255
    57a6:	06 c0       	rjmp	.+12     	; 0x57b4 <vfprintf+0x29c>
    57a8:	60 81       	ld	r22, Z
    57aa:	71 81       	ldd	r23, Z+1	; 0x01
    57ac:	80 e0       	ldi	r24, 0x00	; 0
    57ae:	90 e0       	ldi	r25, 0x00	; 0
    57b0:	0e 5f       	subi	r16, 0xFE	; 254
    57b2:	1f 4f       	sbci	r17, 0xFF	; 255
    57b4:	a3 01       	movw	r20, r6
    57b6:	0e 94 bf 2c 	call	0x597e	; 0x597e <__ultoa_invert>
    57ba:	88 2e       	mov	r8, r24
    57bc:	86 18       	sub	r8, r6
    57be:	fb 2d       	mov	r31, r11
    57c0:	ff 77       	andi	r31, 0x7F	; 127
    57c2:	3f 2e       	mov	r3, r31
    57c4:	36 fe       	sbrs	r3, 6
    57c6:	0d c0       	rjmp	.+26     	; 0x57e2 <vfprintf+0x2ca>
    57c8:	23 2d       	mov	r18, r3
    57ca:	2e 7f       	andi	r18, 0xFE	; 254
    57cc:	a2 2e       	mov	r10, r18
    57ce:	89 14       	cp	r8, r9
    57d0:	58 f4       	brcc	.+22     	; 0x57e8 <vfprintf+0x2d0>
    57d2:	34 fe       	sbrs	r3, 4
    57d4:	0b c0       	rjmp	.+22     	; 0x57ec <vfprintf+0x2d4>
    57d6:	32 fc       	sbrc	r3, 2
    57d8:	09 c0       	rjmp	.+18     	; 0x57ec <vfprintf+0x2d4>
    57da:	83 2d       	mov	r24, r3
    57dc:	8e 7e       	andi	r24, 0xEE	; 238
    57de:	a8 2e       	mov	r10, r24
    57e0:	05 c0       	rjmp	.+10     	; 0x57ec <vfprintf+0x2d4>
    57e2:	b8 2c       	mov	r11, r8
    57e4:	a3 2c       	mov	r10, r3
    57e6:	03 c0       	rjmp	.+6      	; 0x57ee <vfprintf+0x2d6>
    57e8:	b8 2c       	mov	r11, r8
    57ea:	01 c0       	rjmp	.+2      	; 0x57ee <vfprintf+0x2d6>
    57ec:	b9 2c       	mov	r11, r9
    57ee:	a4 fe       	sbrs	r10, 4
    57f0:	0f c0       	rjmp	.+30     	; 0x5810 <vfprintf+0x2f8>
    57f2:	fe 01       	movw	r30, r28
    57f4:	e8 0d       	add	r30, r8
    57f6:	f1 1d       	adc	r31, r1
    57f8:	80 81       	ld	r24, Z
    57fa:	80 33       	cpi	r24, 0x30	; 48
    57fc:	21 f4       	brne	.+8      	; 0x5806 <vfprintf+0x2ee>
    57fe:	9a 2d       	mov	r25, r10
    5800:	99 7e       	andi	r25, 0xE9	; 233
    5802:	a9 2e       	mov	r10, r25
    5804:	09 c0       	rjmp	.+18     	; 0x5818 <vfprintf+0x300>
    5806:	a2 fe       	sbrs	r10, 2
    5808:	06 c0       	rjmp	.+12     	; 0x5816 <vfprintf+0x2fe>
    580a:	b3 94       	inc	r11
    580c:	b3 94       	inc	r11
    580e:	04 c0       	rjmp	.+8      	; 0x5818 <vfprintf+0x300>
    5810:	8a 2d       	mov	r24, r10
    5812:	86 78       	andi	r24, 0x86	; 134
    5814:	09 f0       	breq	.+2      	; 0x5818 <vfprintf+0x300>
    5816:	b3 94       	inc	r11
    5818:	a3 fc       	sbrc	r10, 3
    581a:	11 c0       	rjmp	.+34     	; 0x583e <vfprintf+0x326>
    581c:	a0 fe       	sbrs	r10, 0
    581e:	06 c0       	rjmp	.+12     	; 0x582c <vfprintf+0x314>
    5820:	b2 14       	cp	r11, r2
    5822:	88 f4       	brcc	.+34     	; 0x5846 <vfprintf+0x32e>
    5824:	28 0c       	add	r2, r8
    5826:	92 2c       	mov	r9, r2
    5828:	9b 18       	sub	r9, r11
    582a:	0e c0       	rjmp	.+28     	; 0x5848 <vfprintf+0x330>
    582c:	b2 14       	cp	r11, r2
    582e:	60 f4       	brcc	.+24     	; 0x5848 <vfprintf+0x330>
    5830:	b6 01       	movw	r22, r12
    5832:	80 e2       	ldi	r24, 0x20	; 32
    5834:	90 e0       	ldi	r25, 0x00	; 0
    5836:	0e 94 83 2c 	call	0x5906	; 0x5906 <fputc>
    583a:	b3 94       	inc	r11
    583c:	f7 cf       	rjmp	.-18     	; 0x582c <vfprintf+0x314>
    583e:	b2 14       	cp	r11, r2
    5840:	18 f4       	brcc	.+6      	; 0x5848 <vfprintf+0x330>
    5842:	2b 18       	sub	r2, r11
    5844:	02 c0       	rjmp	.+4      	; 0x584a <vfprintf+0x332>
    5846:	98 2c       	mov	r9, r8
    5848:	21 2c       	mov	r2, r1
    584a:	a4 fe       	sbrs	r10, 4
    584c:	10 c0       	rjmp	.+32     	; 0x586e <vfprintf+0x356>
    584e:	b6 01       	movw	r22, r12
    5850:	80 e3       	ldi	r24, 0x30	; 48
    5852:	90 e0       	ldi	r25, 0x00	; 0
    5854:	0e 94 83 2c 	call	0x5906	; 0x5906 <fputc>
    5858:	a2 fe       	sbrs	r10, 2
    585a:	17 c0       	rjmp	.+46     	; 0x588a <vfprintf+0x372>
    585c:	a1 fc       	sbrc	r10, 1
    585e:	03 c0       	rjmp	.+6      	; 0x5866 <vfprintf+0x34e>
    5860:	88 e7       	ldi	r24, 0x78	; 120
    5862:	90 e0       	ldi	r25, 0x00	; 0
    5864:	02 c0       	rjmp	.+4      	; 0x586a <vfprintf+0x352>
    5866:	88 e5       	ldi	r24, 0x58	; 88
    5868:	90 e0       	ldi	r25, 0x00	; 0
    586a:	b6 01       	movw	r22, r12
    586c:	0c c0       	rjmp	.+24     	; 0x5886 <vfprintf+0x36e>
    586e:	8a 2d       	mov	r24, r10
    5870:	86 78       	andi	r24, 0x86	; 134
    5872:	59 f0       	breq	.+22     	; 0x588a <vfprintf+0x372>
    5874:	a1 fe       	sbrs	r10, 1
    5876:	02 c0       	rjmp	.+4      	; 0x587c <vfprintf+0x364>
    5878:	8b e2       	ldi	r24, 0x2B	; 43
    587a:	01 c0       	rjmp	.+2      	; 0x587e <vfprintf+0x366>
    587c:	80 e2       	ldi	r24, 0x20	; 32
    587e:	a7 fc       	sbrc	r10, 7
    5880:	8d e2       	ldi	r24, 0x2D	; 45
    5882:	b6 01       	movw	r22, r12
    5884:	90 e0       	ldi	r25, 0x00	; 0
    5886:	0e 94 83 2c 	call	0x5906	; 0x5906 <fputc>
    588a:	89 14       	cp	r8, r9
    588c:	38 f4       	brcc	.+14     	; 0x589c <vfprintf+0x384>
    588e:	b6 01       	movw	r22, r12
    5890:	80 e3       	ldi	r24, 0x30	; 48
    5892:	90 e0       	ldi	r25, 0x00	; 0
    5894:	0e 94 83 2c 	call	0x5906	; 0x5906 <fputc>
    5898:	9a 94       	dec	r9
    589a:	f7 cf       	rjmp	.-18     	; 0x588a <vfprintf+0x372>
    589c:	8a 94       	dec	r8
    589e:	f3 01       	movw	r30, r6
    58a0:	e8 0d       	add	r30, r8
    58a2:	f1 1d       	adc	r31, r1
    58a4:	80 81       	ld	r24, Z
    58a6:	b6 01       	movw	r22, r12
    58a8:	90 e0       	ldi	r25, 0x00	; 0
    58aa:	0e 94 83 2c 	call	0x5906	; 0x5906 <fputc>
    58ae:	81 10       	cpse	r8, r1
    58b0:	f5 cf       	rjmp	.-22     	; 0x589c <vfprintf+0x384>
    58b2:	22 20       	and	r2, r2
    58b4:	09 f4       	brne	.+2      	; 0x58b8 <vfprintf+0x3a0>
    58b6:	42 ce       	rjmp	.-892    	; 0x553c <vfprintf+0x24>
    58b8:	b6 01       	movw	r22, r12
    58ba:	80 e2       	ldi	r24, 0x20	; 32
    58bc:	90 e0       	ldi	r25, 0x00	; 0
    58be:	0e 94 83 2c 	call	0x5906	; 0x5906 <fputc>
    58c2:	2a 94       	dec	r2
    58c4:	f6 cf       	rjmp	.-20     	; 0x58b2 <vfprintf+0x39a>
    58c6:	f6 01       	movw	r30, r12
    58c8:	86 81       	ldd	r24, Z+6	; 0x06
    58ca:	97 81       	ldd	r25, Z+7	; 0x07
    58cc:	02 c0       	rjmp	.+4      	; 0x58d2 <vfprintf+0x3ba>
    58ce:	8f ef       	ldi	r24, 0xFF	; 255
    58d0:	9f ef       	ldi	r25, 0xFF	; 255
    58d2:	2b 96       	adiw	r28, 0x0b	; 11
    58d4:	e2 e1       	ldi	r30, 0x12	; 18
    58d6:	0c 94 8f 2d 	jmp	0x5b1e	; 0x5b1e <__epilogue_restores__>

000058da <strnlen_P>:
    58da:	fc 01       	movw	r30, r24
    58dc:	05 90       	lpm	r0, Z+
    58de:	61 50       	subi	r22, 0x01	; 1
    58e0:	70 40       	sbci	r23, 0x00	; 0
    58e2:	01 10       	cpse	r0, r1
    58e4:	d8 f7       	brcc	.-10     	; 0x58dc <strnlen_P+0x2>
    58e6:	80 95       	com	r24
    58e8:	90 95       	com	r25
    58ea:	8e 0f       	add	r24, r30
    58ec:	9f 1f       	adc	r25, r31
    58ee:	08 95       	ret

000058f0 <strnlen>:
    58f0:	fc 01       	movw	r30, r24
    58f2:	61 50       	subi	r22, 0x01	; 1
    58f4:	70 40       	sbci	r23, 0x00	; 0
    58f6:	01 90       	ld	r0, Z+
    58f8:	01 10       	cpse	r0, r1
    58fa:	d8 f7       	brcc	.-10     	; 0x58f2 <strnlen+0x2>
    58fc:	80 95       	com	r24
    58fe:	90 95       	com	r25
    5900:	8e 0f       	add	r24, r30
    5902:	9f 1f       	adc	r25, r31
    5904:	08 95       	ret

00005906 <fputc>:
    5906:	0f 93       	push	r16
    5908:	1f 93       	push	r17
    590a:	cf 93       	push	r28
    590c:	df 93       	push	r29
    590e:	fb 01       	movw	r30, r22
    5910:	23 81       	ldd	r18, Z+3	; 0x03
    5912:	21 fd       	sbrc	r18, 1
    5914:	03 c0       	rjmp	.+6      	; 0x591c <fputc+0x16>
    5916:	8f ef       	ldi	r24, 0xFF	; 255
    5918:	9f ef       	ldi	r25, 0xFF	; 255
    591a:	2c c0       	rjmp	.+88     	; 0x5974 <fputc+0x6e>
    591c:	22 ff       	sbrs	r18, 2
    591e:	16 c0       	rjmp	.+44     	; 0x594c <fputc+0x46>
    5920:	46 81       	ldd	r20, Z+6	; 0x06
    5922:	57 81       	ldd	r21, Z+7	; 0x07
    5924:	24 81       	ldd	r18, Z+4	; 0x04
    5926:	35 81       	ldd	r19, Z+5	; 0x05
    5928:	42 17       	cp	r20, r18
    592a:	53 07       	cpc	r21, r19
    592c:	44 f4       	brge	.+16     	; 0x593e <fputc+0x38>
    592e:	a0 81       	ld	r26, Z
    5930:	b1 81       	ldd	r27, Z+1	; 0x01
    5932:	9d 01       	movw	r18, r26
    5934:	2f 5f       	subi	r18, 0xFF	; 255
    5936:	3f 4f       	sbci	r19, 0xFF	; 255
    5938:	31 83       	std	Z+1, r19	; 0x01
    593a:	20 83       	st	Z, r18
    593c:	8c 93       	st	X, r24
    593e:	26 81       	ldd	r18, Z+6	; 0x06
    5940:	37 81       	ldd	r19, Z+7	; 0x07
    5942:	2f 5f       	subi	r18, 0xFF	; 255
    5944:	3f 4f       	sbci	r19, 0xFF	; 255
    5946:	37 83       	std	Z+7, r19	; 0x07
    5948:	26 83       	std	Z+6, r18	; 0x06
    594a:	14 c0       	rjmp	.+40     	; 0x5974 <fputc+0x6e>
    594c:	8b 01       	movw	r16, r22
    594e:	ec 01       	movw	r28, r24
    5950:	fb 01       	movw	r30, r22
    5952:	00 84       	ldd	r0, Z+8	; 0x08
    5954:	f1 85       	ldd	r31, Z+9	; 0x09
    5956:	e0 2d       	mov	r30, r0
    5958:	09 95       	icall
    595a:	89 2b       	or	r24, r25
    595c:	e1 f6       	brne	.-72     	; 0x5916 <fputc+0x10>
    595e:	d8 01       	movw	r26, r16
    5960:	16 96       	adiw	r26, 0x06	; 6
    5962:	8d 91       	ld	r24, X+
    5964:	9c 91       	ld	r25, X
    5966:	17 97       	sbiw	r26, 0x07	; 7
    5968:	01 96       	adiw	r24, 0x01	; 1
    596a:	17 96       	adiw	r26, 0x07	; 7
    596c:	9c 93       	st	X, r25
    596e:	8e 93       	st	-X, r24
    5970:	16 97       	sbiw	r26, 0x06	; 6
    5972:	ce 01       	movw	r24, r28
    5974:	df 91       	pop	r29
    5976:	cf 91       	pop	r28
    5978:	1f 91       	pop	r17
    597a:	0f 91       	pop	r16
    597c:	08 95       	ret

0000597e <__ultoa_invert>:
    597e:	fa 01       	movw	r30, r20
    5980:	aa 27       	eor	r26, r26
    5982:	28 30       	cpi	r18, 0x08	; 8
    5984:	51 f1       	breq	.+84     	; 0x59da <__ultoa_invert+0x5c>
    5986:	20 31       	cpi	r18, 0x10	; 16
    5988:	81 f1       	breq	.+96     	; 0x59ea <__ultoa_invert+0x6c>
    598a:	e8 94       	clt
    598c:	6f 93       	push	r22
    598e:	6e 7f       	andi	r22, 0xFE	; 254
    5990:	6e 5f       	subi	r22, 0xFE	; 254
    5992:	7f 4f       	sbci	r23, 0xFF	; 255
    5994:	8f 4f       	sbci	r24, 0xFF	; 255
    5996:	9f 4f       	sbci	r25, 0xFF	; 255
    5998:	af 4f       	sbci	r26, 0xFF	; 255
    599a:	b1 e0       	ldi	r27, 0x01	; 1
    599c:	3e d0       	rcall	.+124    	; 0x5a1a <__ultoa_invert+0x9c>
    599e:	b4 e0       	ldi	r27, 0x04	; 4
    59a0:	3c d0       	rcall	.+120    	; 0x5a1a <__ultoa_invert+0x9c>
    59a2:	67 0f       	add	r22, r23
    59a4:	78 1f       	adc	r23, r24
    59a6:	89 1f       	adc	r24, r25
    59a8:	9a 1f       	adc	r25, r26
    59aa:	a1 1d       	adc	r26, r1
    59ac:	68 0f       	add	r22, r24
    59ae:	79 1f       	adc	r23, r25
    59b0:	8a 1f       	adc	r24, r26
    59b2:	91 1d       	adc	r25, r1
    59b4:	a1 1d       	adc	r26, r1
    59b6:	6a 0f       	add	r22, r26
    59b8:	71 1d       	adc	r23, r1
    59ba:	81 1d       	adc	r24, r1
    59bc:	91 1d       	adc	r25, r1
    59be:	a1 1d       	adc	r26, r1
    59c0:	20 d0       	rcall	.+64     	; 0x5a02 <__ultoa_invert+0x84>
    59c2:	09 f4       	brne	.+2      	; 0x59c6 <__ultoa_invert+0x48>
    59c4:	68 94       	set
    59c6:	3f 91       	pop	r19
    59c8:	2a e0       	ldi	r18, 0x0A	; 10
    59ca:	26 9f       	mul	r18, r22
    59cc:	11 24       	eor	r1, r1
    59ce:	30 19       	sub	r19, r0
    59d0:	30 5d       	subi	r19, 0xD0	; 208
    59d2:	31 93       	st	Z+, r19
    59d4:	de f6       	brtc	.-74     	; 0x598c <__ultoa_invert+0xe>
    59d6:	cf 01       	movw	r24, r30
    59d8:	08 95       	ret
    59da:	46 2f       	mov	r20, r22
    59dc:	47 70       	andi	r20, 0x07	; 7
    59de:	40 5d       	subi	r20, 0xD0	; 208
    59e0:	41 93       	st	Z+, r20
    59e2:	b3 e0       	ldi	r27, 0x03	; 3
    59e4:	0f d0       	rcall	.+30     	; 0x5a04 <__ultoa_invert+0x86>
    59e6:	c9 f7       	brne	.-14     	; 0x59da <__ultoa_invert+0x5c>
    59e8:	f6 cf       	rjmp	.-20     	; 0x59d6 <__ultoa_invert+0x58>
    59ea:	46 2f       	mov	r20, r22
    59ec:	4f 70       	andi	r20, 0x0F	; 15
    59ee:	40 5d       	subi	r20, 0xD0	; 208
    59f0:	4a 33       	cpi	r20, 0x3A	; 58
    59f2:	18 f0       	brcs	.+6      	; 0x59fa <__ultoa_invert+0x7c>
    59f4:	49 5d       	subi	r20, 0xD9	; 217
    59f6:	31 fd       	sbrc	r19, 1
    59f8:	40 52       	subi	r20, 0x20	; 32
    59fa:	41 93       	st	Z+, r20
    59fc:	02 d0       	rcall	.+4      	; 0x5a02 <__ultoa_invert+0x84>
    59fe:	a9 f7       	brne	.-22     	; 0x59ea <__ultoa_invert+0x6c>
    5a00:	ea cf       	rjmp	.-44     	; 0x59d6 <__ultoa_invert+0x58>
    5a02:	b4 e0       	ldi	r27, 0x04	; 4
    5a04:	a6 95       	lsr	r26
    5a06:	97 95       	ror	r25
    5a08:	87 95       	ror	r24
    5a0a:	77 95       	ror	r23
    5a0c:	67 95       	ror	r22
    5a0e:	ba 95       	dec	r27
    5a10:	c9 f7       	brne	.-14     	; 0x5a04 <__ultoa_invert+0x86>
    5a12:	00 97       	sbiw	r24, 0x00	; 0
    5a14:	61 05       	cpc	r22, r1
    5a16:	71 05       	cpc	r23, r1
    5a18:	08 95       	ret
    5a1a:	9b 01       	movw	r18, r22
    5a1c:	ac 01       	movw	r20, r24
    5a1e:	0a 2e       	mov	r0, r26
    5a20:	06 94       	lsr	r0
    5a22:	57 95       	ror	r21
    5a24:	47 95       	ror	r20
    5a26:	37 95       	ror	r19
    5a28:	27 95       	ror	r18
    5a2a:	ba 95       	dec	r27
    5a2c:	c9 f7       	brne	.-14     	; 0x5a20 <__ultoa_invert+0xa2>
    5a2e:	62 0f       	add	r22, r18
    5a30:	73 1f       	adc	r23, r19
    5a32:	84 1f       	adc	r24, r20
    5a34:	95 1f       	adc	r25, r21
    5a36:	a0 1d       	adc	r26, r0
    5a38:	08 95       	ret

00005a3a <eeprom_read_byte>:
    5a3a:	f9 99       	sbic	0x1f, 1	; 31
    5a3c:	fe cf       	rjmp	.-4      	; 0x5a3a <eeprom_read_byte>
    5a3e:	92 bd       	out	0x22, r25	; 34
    5a40:	81 bd       	out	0x21, r24	; 33
    5a42:	f8 9a       	sbi	0x1f, 0	; 31
    5a44:	99 27       	eor	r25, r25
    5a46:	80 b5       	in	r24, 0x20	; 32
    5a48:	08 95       	ret

00005a4a <eeprom_read_dword>:
    5a4a:	a6 e1       	ldi	r26, 0x16	; 22
    5a4c:	b0 e0       	ldi	r27, 0x00	; 0
    5a4e:	44 e0       	ldi	r20, 0x04	; 4
    5a50:	50 e0       	ldi	r21, 0x00	; 0
    5a52:	0c 94 65 2d 	jmp	0x5aca	; 0x5aca <eeprom_read_blraw>

00005a56 <eeprom_read_word>:
    5a56:	a8 e1       	ldi	r26, 0x18	; 24
    5a58:	b0 e0       	ldi	r27, 0x00	; 0
    5a5a:	42 e0       	ldi	r20, 0x02	; 2
    5a5c:	50 e0       	ldi	r21, 0x00	; 0
    5a5e:	0c 94 65 2d 	jmp	0x5aca	; 0x5aca <eeprom_read_blraw>

00005a62 <eeprom_update_byte>:
    5a62:	26 2f       	mov	r18, r22

00005a64 <eeprom_update_r18>:
    5a64:	f9 99       	sbic	0x1f, 1	; 31
    5a66:	fe cf       	rjmp	.-4      	; 0x5a64 <eeprom_update_r18>
    5a68:	92 bd       	out	0x22, r25	; 34
    5a6a:	81 bd       	out	0x21, r24	; 33
    5a6c:	f8 9a       	sbi	0x1f, 0	; 31
    5a6e:	01 97       	sbiw	r24, 0x01	; 1
    5a70:	00 b4       	in	r0, 0x20	; 32
    5a72:	02 16       	cp	r0, r18
    5a74:	39 f0       	breq	.+14     	; 0x5a84 <eeprom_update_r18+0x20>
    5a76:	1f ba       	out	0x1f, r1	; 31
    5a78:	20 bd       	out	0x20, r18	; 32
    5a7a:	0f b6       	in	r0, 0x3f	; 63
    5a7c:	f8 94       	cli
    5a7e:	fa 9a       	sbi	0x1f, 2	; 31
    5a80:	f9 9a       	sbi	0x1f, 1	; 31
    5a82:	0f be       	out	0x3f, r0	; 63
    5a84:	08 95       	ret

00005a86 <eeprom_update_dword>:
    5a86:	03 96       	adiw	r24, 0x03	; 3
    5a88:	27 2f       	mov	r18, r23
    5a8a:	0e 94 32 2d 	call	0x5a64	; 0x5a64 <eeprom_update_r18>
    5a8e:	0e 94 31 2d 	call	0x5a62	; 0x5a62 <eeprom_update_byte>
    5a92:	25 2f       	mov	r18, r21
    5a94:	0e 94 32 2d 	call	0x5a64	; 0x5a64 <eeprom_update_r18>
    5a98:	24 2f       	mov	r18, r20
    5a9a:	0c 94 32 2d 	jmp	0x5a64	; 0x5a64 <eeprom_update_r18>

00005a9e <eeprom_update_word>:
    5a9e:	01 96       	adiw	r24, 0x01	; 1
    5aa0:	27 2f       	mov	r18, r23
    5aa2:	0e 94 32 2d 	call	0x5a64	; 0x5a64 <eeprom_update_r18>
    5aa6:	0c 94 31 2d 	jmp	0x5a62	; 0x5a62 <eeprom_update_byte>

00005aaa <eeprom_write_byte>:
    5aaa:	26 2f       	mov	r18, r22

00005aac <eeprom_write_r18>:
    5aac:	f9 99       	sbic	0x1f, 1	; 31
    5aae:	fe cf       	rjmp	.-4      	; 0x5aac <eeprom_write_r18>
    5ab0:	1f ba       	out	0x1f, r1	; 31
    5ab2:	92 bd       	out	0x22, r25	; 34
    5ab4:	81 bd       	out	0x21, r24	; 33
    5ab6:	20 bd       	out	0x20, r18	; 32
    5ab8:	0f b6       	in	r0, 0x3f	; 63
    5aba:	f8 94       	cli
    5abc:	fa 9a       	sbi	0x1f, 2	; 31
    5abe:	f9 9a       	sbi	0x1f, 1	; 31
    5ac0:	0f be       	out	0x3f, r0	; 63
    5ac2:	01 96       	adiw	r24, 0x01	; 1
    5ac4:	08 95       	ret

00005ac6 <eeprom_read_block>:
    5ac6:	dc 01       	movw	r26, r24
    5ac8:	cb 01       	movw	r24, r22

00005aca <eeprom_read_blraw>:
    5aca:	fc 01       	movw	r30, r24
    5acc:	f9 99       	sbic	0x1f, 1	; 31
    5ace:	fe cf       	rjmp	.-4      	; 0x5acc <eeprom_read_blraw+0x2>
    5ad0:	06 c0       	rjmp	.+12     	; 0x5ade <eeprom_read_blraw+0x14>
    5ad2:	f2 bd       	out	0x22, r31	; 34
    5ad4:	e1 bd       	out	0x21, r30	; 33
    5ad6:	f8 9a       	sbi	0x1f, 0	; 31
    5ad8:	31 96       	adiw	r30, 0x01	; 1
    5ada:	00 b4       	in	r0, 0x20	; 32
    5adc:	0d 92       	st	X+, r0
    5ade:	41 50       	subi	r20, 0x01	; 1
    5ae0:	50 40       	sbci	r21, 0x00	; 0
    5ae2:	b8 f7       	brcc	.-18     	; 0x5ad2 <eeprom_read_blraw+0x8>
    5ae4:	08 95       	ret

00005ae6 <__prologue_saves__>:
    5ae6:	2f 92       	push	r2
    5ae8:	3f 92       	push	r3
    5aea:	4f 92       	push	r4
    5aec:	5f 92       	push	r5
    5aee:	6f 92       	push	r6
    5af0:	7f 92       	push	r7
    5af2:	8f 92       	push	r8
    5af4:	9f 92       	push	r9
    5af6:	af 92       	push	r10
    5af8:	bf 92       	push	r11
    5afa:	cf 92       	push	r12
    5afc:	df 92       	push	r13
    5afe:	ef 92       	push	r14
    5b00:	ff 92       	push	r15
    5b02:	0f 93       	push	r16
    5b04:	1f 93       	push	r17
    5b06:	cf 93       	push	r28
    5b08:	df 93       	push	r29
    5b0a:	cd b7       	in	r28, 0x3d	; 61
    5b0c:	de b7       	in	r29, 0x3e	; 62
    5b0e:	ca 1b       	sub	r28, r26
    5b10:	db 0b       	sbc	r29, r27
    5b12:	0f b6       	in	r0, 0x3f	; 63
    5b14:	f8 94       	cli
    5b16:	de bf       	out	0x3e, r29	; 62
    5b18:	0f be       	out	0x3f, r0	; 63
    5b1a:	cd bf       	out	0x3d, r28	; 61
    5b1c:	09 94       	ijmp

00005b1e <__epilogue_restores__>:
    5b1e:	2a 88       	ldd	r2, Y+18	; 0x12
    5b20:	39 88       	ldd	r3, Y+17	; 0x11
    5b22:	48 88       	ldd	r4, Y+16	; 0x10
    5b24:	5f 84       	ldd	r5, Y+15	; 0x0f
    5b26:	6e 84       	ldd	r6, Y+14	; 0x0e
    5b28:	7d 84       	ldd	r7, Y+13	; 0x0d
    5b2a:	8c 84       	ldd	r8, Y+12	; 0x0c
    5b2c:	9b 84       	ldd	r9, Y+11	; 0x0b
    5b2e:	aa 84       	ldd	r10, Y+10	; 0x0a
    5b30:	b9 84       	ldd	r11, Y+9	; 0x09
    5b32:	c8 84       	ldd	r12, Y+8	; 0x08
    5b34:	df 80       	ldd	r13, Y+7	; 0x07
    5b36:	ee 80       	ldd	r14, Y+6	; 0x06
    5b38:	fd 80       	ldd	r15, Y+5	; 0x05
    5b3a:	0c 81       	ldd	r16, Y+4	; 0x04
    5b3c:	1b 81       	ldd	r17, Y+3	; 0x03
    5b3e:	aa 81       	ldd	r26, Y+2	; 0x02
    5b40:	b9 81       	ldd	r27, Y+1	; 0x01
    5b42:	ce 0f       	add	r28, r30
    5b44:	d1 1d       	adc	r29, r1
    5b46:	0f b6       	in	r0, 0x3f	; 63
    5b48:	f8 94       	cli
    5b4a:	de bf       	out	0x3e, r29	; 62
    5b4c:	0f be       	out	0x3f, r0	; 63
    5b4e:	cd bf       	out	0x3d, r28	; 61
    5b50:	ed 01       	movw	r28, r26
    5b52:	08 95       	ret

00005b54 <__do_global_dtors>:
    5b54:	10 e0       	ldi	r17, 0x00	; 0
    5b56:	c5 ef       	ldi	r28, 0xF5	; 245
    5b58:	d0 e0       	ldi	r29, 0x00	; 0
    5b5a:	04 c0       	rjmp	.+8      	; 0x5b64 <__do_global_dtors+0x10>
    5b5c:	fe 01       	movw	r30, r28
    5b5e:	0e 94 8f 28 	call	0x511e	; 0x511e <__tablejump2__>
    5b62:	21 96       	adiw	r28, 0x01	; 1
    5b64:	c6 3f       	cpi	r28, 0xF6	; 246
    5b66:	d1 07       	cpc	r29, r17
    5b68:	c9 f7       	brne	.-14     	; 0x5b5c <__do_global_dtors+0x8>
    5b6a:	f8 94       	cli

00005b6c <__stop_program>:
    5b6c:	ff cf       	rjmp	.-2      	; 0x5b6c <__stop_program>
